 ex_sdl_flexible_shaft_lstm_sfun

 Timestamp is 63b2f9b6 (Mon Jan  2 23:35:18 2023)

 Preferred load address is 0000000180000000

 Start         Length     Name                   Class
 0001:00000000 000546d0H .text                   CODE
 0001:000546d0 00015e00H .text$mn                CODE
 0001:0006a4d0 00000040H .text$mn$00             CODE
 0001:0006a510 00000320H .text$x                 CODE
 0001:0006a830 00000100H .text$yc                CODE
 0001:0006a930 00000061H .text$yd                CODE
 0002:00000000 00000aa0H .idata$5                DATA
 0002:00000aa0 00000028H .00cfg                  DATA
 0002:00000ac8 00000008H .CRT$XCA                DATA
 0002:00000ad0 00000008H .CRT$XCB                DATA
 0002:00000ad8 00000008H .CRT$XCD                DATA
 0002:00000ae0 00000080H .CRT$XCU                DATA
 0002:00000b60 00000008H .CRT$XCZ                DATA
 0002:00000b68 00000008H .CRT$XIA                DATA
 0002:00000b70 00000008H .CRT$XIZ                DATA
 0002:00000b78 00000008H .CRT$XLA                DATA
 0002:00000b80 00000008H .CRT$XLZ                DATA
 0002:00000b88 00000008H .CRT$XPA                DATA
 0002:00000b90 00000008H .CRT$XPZ                DATA
 0002:00000b98 00000008H .CRT$XTA                DATA
 0002:00000ba0 00000010H .CRT$XTZ                DATA
 0002:00000ba8 00000000H .gehcont$y              DATA
 0002:00000ba8 00000000H .gfids$y                DATA
 0002:00000bb0 00011d50H .rdata                  DATA
 0002:00012900 00000008H .rdata$CastGuardVftablesA DATA
 0002:00012908 00000008H .rdata$CastGuardVftablesC DATA
 0002:00012910 00000028H .rdata$T                DATA
 0002:00012938 000005bcH .rdata$r                DATA
 0002:00012ef4 00000100H .rdata$voltmd           DATA
 0002:00012ff4 0000040cH .rdata$zzzdbg           DATA
 0002:00013400 00000008H .rtc$IAA                DATA
 0002:00013408 00000008H .rtc$IZZ                DATA
 0002:00013410 00000008H .rtc$TAA                DATA
 0002:00013418 00000be8H .rtc$TZZ                DATA
 0002:00014000 00001000H .tls                    DATA
 0002:00015000 00001000H .tls$                   DATA
 0002:00016000 00000008H .tls$ZZZ                DATA
 0002:00016008 00008ea8H .xdata                  DATA
 0002:0001eeb0 000000f0H .xdata$x                DATA
 0002:0001efa0 000000acH .edata                  DATA
 0002:0001f04c 00000168H .idata$2                DATA
 0002:0001f1b4 00000014H .idata$3                DATA
 0002:0001f1c8 00000aa0H .idata$4                DATA
 0002:0001fc68 00001c4aH .idata$6                DATA
 0003:00000000 000000d8H .data                   DATA
 0003:000000d8 000000d0H .data$r                 DATA
 0003:000001a8 00000118H .data$rs                DATA
 0003:000002c0 00003760H .bss                    DATA
 0004:00000000 00006e58H .pdata                  DATA
 0005:00000000 0000021fH __nv_module_id          DATA
 0006:00000000 00001b58H .nv_fatbin              DATA
 0007:00000000 00000060H .nvFatBinSegment        DATA
 0008:00000000 00000df8H __nv_relfatbin          DATA

  Address         Publics by Value              Rva+Base               Lib:Object

 0000:00000000       __guard_longjmp_count      0000000000000000     <absolute>
 0000:00000000       __guard_check_icall_a64n_fptr 0000000000000000     <absolute>
 0000:00000000       __enclave_config           0000000000000000     <absolute>
 0000:00000000       __guard_eh_cont_count      0000000000000000     <absolute>
 0000:00000000       __x64_code_ranges_to_entry_points_count 0000000000000000     <absolute>
 0000:00000000       __guard_iat_count          0000000000000000     <absolute>
 0000:00000000       __hybrid_code_map_count    0000000000000000     <absolute>
 0000:00000000       __arm64x_redirection_metadata_count 0000000000000000     <absolute>
 0000:00000000       __hybrid_auxiliary_iat     0000000000000000     <absolute>
 0000:00000000       ___safe_se_handler_count   0000000000000000     <absolute>
 0000:00000000       __guard_fids_table         0000000000000000     <absolute>
 0000:00000000       __arm64x_extra_rfe_table_size 0000000000000000     <absolute>
 0000:00000000       __hybrid_auxiliary_iat_copy 0000000000000000     <absolute>
 0000:00000000       __x64_code_ranges_to_entry_points 0000000000000000     <absolute>
 0000:00000000       __hybrid_code_map          0000000000000000     <absolute>
 0000:00000000       ___safe_se_handler_table   0000000000000000     <absolute>
 0000:00000000       __guard_iat_table          0000000000000000     <absolute>
 0000:00000000       __guard_fids_count         0000000000000000     <absolute>
 0000:00000000       __guard_eh_cont_table      0000000000000000     <absolute>
 0000:00000000       __dynamic_value_reloc_table 0000000000000000     <absolute>
 0000:00000000       __arm64x_redirection_metadata 0000000000000000     <absolute>
 0000:00000000       __arm64x_extra_rfe_table   0000000000000000     <absolute>
 0000:00000000       __AbsoluteZero             0000000000000000     <absolute>
 0000:00000000       __arm64x_native_entrypoint 0000000000000000     <absolute>
 0000:00000000       __guard_longjmp_table      0000000000000000     <absolute>
 0000:00000100       __guard_flags              0000000000000100     <absolute>
 0000:00000000       __ImageBase                0000000180000000     <linker-defined>
 0001:00000000       ??0contextStateAuto@cudart@@QEAA@PEAVcontextState@1@@Z 0000000180001000 f i cudart_static:cuda_runtime_api.obj
 0001:00000010       ??0contextStateAuto@cudart@@QEAA@XZ 0000000180001010 f i cudart_static:cuda_runtime_api.obj
 0001:00000020       ??1contextStateAuto@cudart@@QEAA@XZ 0000000180001020 f i cudart_static:cuda_runtime_api.obj
 0001:00000030       ??CcontextStateAuto@cudart@@QEAAPEAVcontextState@1@XZ 0000000180001030 f i cudart_static:cuda_runtime_api.obj
 0001:00000040       ?copy1DConvertTo3DParams@cudart@@YAXPEAXPEBX_KW4cudaMemcpyKind@@PEAUcudaMemcpy3DParms@@@Z 0000000180001040 f   cudart_static:cuda_runtime_api.obj
 0001:000000d0       ?copyFromSymbolConvertTo3DParams@cudart@@YA?AW4cudaError@@PEAXPEBX_K2W4cudaMemcpyKind@@PEAUcudaMemcpy3DParms@@@Z 00000001800010d0 f   cudart_static:cuda_runtime_api.obj
 0001:000001b0       ?copyToSymbolConvertTo3DParams@cudart@@YA?AW4cudaError@@PEBX0_K1W4cudaMemcpyKind@@PEAUcudaMemcpy3DParms@@@Z 00000001800011b0 f   cudart_static:cuda_runtime_api.obj
 0001:000002a0       ?cudaApiArrayGetInfo@cudart@@YA?AW4cudaError@@PEAUcudaChannelFormatDesc@@PEAUcudaExtent@@PEAIPEAUcudaArray@@@Z 00000001800012a0 f   cudart_static:cuda_runtime_api.obj
 0001:000003c0       ?cudaApiArrayGetPlane@cudart@@YA?AW4cudaError@@PEAPEAUcudaArray@@PEAU3@I@Z 00000001800013c0 f   cudart_static:cuda_runtime_api.obj
 0001:00000450       ?cudaApiArrayGetSparseProperties@cudart@@YA?AW4cudaError@@PEAUcudaArraySparseProperties@@PEAUcudaArray@@@Z 0000000180001450 f   cudart_static:cuda_runtime_api.obj
 0001:00000520       ?cudaApiBindSurfaceToArray@cudart@@YA?AW4cudaError@@PEBUsurfaceReference@@PEBUcudaArray@@PEBUcudaChannelFormatDesc@@@Z 0000000180001520 f   cudart_static:cuda_runtime_api.obj
 0001:000005c0       ?cudaApiBindTexture2D@cudart@@YA?AW4cudaError@@PEA_KPEBUtextureReference@@PEBXPEBUcudaChannelFormatDesc@@_K44@Z 00000001800015c0 f   cudart_static:cuda_runtime_api.obj
 0001:000006a0       ?cudaApiBindTexture@cudart@@YA?AW4cudaError@@PEA_KPEBUtextureReference@@PEBXPEBUcudaChannelFormatDesc@@_K@Z 00000001800016a0 f   cudart_static:cuda_runtime_api.obj
 0001:00000760       ?cudaApiBindTextureToArray@cudart@@YA?AW4cudaError@@PEBUtextureReference@@PEBUcudaArray@@PEBUcudaChannelFormatDesc@@@Z 0000000180001760 f   cudart_static:cuda_runtime_api.obj
 0001:00000800       ?cudaApiBindTextureToMipmappedArray@cudart@@YA?AW4cudaError@@PEBUtextureReference@@PEBUcudaMipmappedArray@@PEBUcudaChannelFormatDesc@@@Z 0000000180001800 f   cudart_static:cuda_runtime_api.obj
 0001:000008a0       ?cudaApiChooseDevice@cudart@@YA?AW4cudaError@@PEAHPEBUcudaDeviceProp@@@Z 00000001800018a0 f   cudart_static:cuda_runtime_api.obj
 0001:00000920       ?cudaApiCreateChannelDesc@cudart@@YA?AUcudaChannelFormatDesc@@HHHHW4cudaChannelFormatKind@@@Z 0000000180001920 f   cudart_static:cuda_runtime_api.obj
 0001:00000940       ?cudaApiCreateSurfaceObject@cudart@@YA?AW4cudaError@@PEA_KPEBUcudaResourceDesc@@@Z 0000000180001940 f   cudart_static:cuda_runtime_api.obj
 0001:00000a20       ?cudaApiCreateTextureObject@cudart@@YA?AW4cudaError@@PEA_KPEBUcudaResourceDesc@@PEBUcudaTextureDesc@@PEBUcudaResourceViewDesc@@@Z 0000000180001a20 f   cudart_static:cuda_runtime_api.obj
 0001:00000b10       ?cudaApiCtxResetPersistingL2Cache@cudart@@YA?AW4cudaError@@XZ 0000000180001b10 f   cudart_static:cuda_runtime_api.obj
 0001:00000b60       ?cudaApiD3D10GetDevice@cudart@@YA?AW4cudaError@@PEAHPEAUIDXGIAdapter@@@Z 0000000180001b60 f   cudart_static:cuda_runtime_api.obj
 0001:00000bb0       ?cudaApiD3D10GetDevices@cudart@@YA?AW4cudaError@@PEAIPEAHIPEAUID3D10Device@@W4cudaD3D10DeviceList@@@Z 0000000180001bb0 f   cudart_static:cuda_runtime_api.obj
 0001:00000cd0       ?cudaApiD3D10GetDirect3DDevice@cudart@@YA?AW4cudaError@@PEAPEAUID3D10Device@@@Z 0000000180001cd0 f   cudart_static:cuda_runtime_api.obj
 0001:00000d40       ?cudaApiD3D10MapResources@cudart@@YA?AW4cudaError@@HPEAPEAUID3D10Resource@@@Z 0000000180001d40 f   cudart_static:cuda_runtime_api.obj
 0001:00000dd0       ?cudaApiD3D10RegisterResource@cudart@@YA?AW4cudaError@@PEAUID3D10Resource@@I@Z 0000000180001dd0 f   cudart_static:cuda_runtime_api.obj
 0001:00000e60       ?cudaApiD3D10ResourceGetMappedArray@cudart@@YA?AW4cudaError@@PEAPEAUcudaArray@@PEAUID3D10Resource@@I@Z 0000000180001e60 f   cudart_static:cuda_runtime_api.obj
 0001:00000f00       ?cudaApiD3D10ResourceGetMappedPitch@cudart@@YA?AW4cudaError@@PEA_K0PEAUID3D10Resource@@I@Z 0000000180001f00 f   cudart_static:cuda_runtime_api.obj
 0001:00000fa0       ?cudaApiD3D10ResourceGetMappedPointer@cudart@@YA?AW4cudaError@@PEAPEAXPEAUID3D10Resource@@I@Z 0000000180001fa0 f   cudart_static:cuda_runtime_api.obj
 0001:00001030       ?cudaApiD3D10ResourceGetMappedSize@cudart@@YA?AW4cudaError@@PEA_KPEAUID3D10Resource@@I@Z 0000000180002030 f   cudart_static:cuda_runtime_api.obj
 0001:000010c0       ?cudaApiD3D10ResourceGetSurfaceDimensions@cudart@@YA?AW4cudaError@@PEA_K00PEAUID3D10Resource@@I@Z 00000001800020c0 f   cudart_static:cuda_runtime_api.obj
 0001:00001160       ?cudaApiD3D10ResourceSetMapFlags@cudart@@YA?AW4cudaError@@PEAUID3D10Resource@@I@Z 0000000180002160 f   cudart_static:cuda_runtime_api.obj
 0001:000011f0       ?cudaApiD3D10SetDirect3DDevice@cudart@@YA?AW4cudaError@@PEAUID3D10Device@@H@Z 00000001800021f0 f   cudart_static:cuda_runtime_api.obj
 0001:000012d0       ?cudaApiD3D10UnmapResources@cudart@@YA?AW4cudaError@@HPEAPEAUID3D10Resource@@@Z 00000001800022d0 f   cudart_static:cuda_runtime_api.obj
 0001:00001360       ?cudaApiD3D10UnregisterResource@cudart@@YA?AW4cudaError@@PEAUID3D10Resource@@@Z 0000000180002360 f   cudart_static:cuda_runtime_api.obj
 0001:000013d0       ?cudaApiD3D11GetDevice@cudart@@YA?AW4cudaError@@PEAHPEAUIDXGIAdapter@@@Z 00000001800023d0 f   cudart_static:cuda_runtime_api.obj
 0001:00001420       ?cudaApiD3D11GetDevices@cudart@@YA?AW4cudaError@@PEAIPEAHIPEAUID3D11Device@@W4cudaD3D11DeviceList@@@Z 0000000180002420 f   cudart_static:cuda_runtime_api.obj
 0001:00001540       ?cudaApiD3D11GetDirect3DDevice@cudart@@YA?AW4cudaError@@PEAPEAUID3D11Device@@@Z 0000000180002540 f   cudart_static:cuda_runtime_api.obj
 0001:000015b0       ?cudaApiD3D11SetDirect3DDevice@cudart@@YA?AW4cudaError@@PEAUID3D11Device@@H@Z 00000001800025b0 f   cudart_static:cuda_runtime_api.obj
 0001:00001690       ?cudaApiD3D9Begin@cudart@@YA?AW4cudaError@@PEAUIDirect3DDevice9@@@Z 0000000180002690 f   cudart_static:cuda_runtime_api.obj
 0001:00001700       ?cudaApiD3D9End@cudart@@YA?AW4cudaError@@XZ 0000000180002700 f   cudart_static:cuda_runtime_api.obj
 0001:00001760       ?cudaApiD3D9GetDevice@cudart@@YA?AW4cudaError@@PEAHPEBD@Z 0000000180002760 f   cudart_static:cuda_runtime_api.obj
 0001:000017c0       ?cudaApiD3D9GetDevices@cudart@@YA?AW4cudaError@@PEAIPEAHIPEAUIDirect3DDevice9@@W4cudaD3D9DeviceList@@@Z 00000001800027c0 f   cudart_static:cuda_runtime_api.obj
 0001:00001900       ?cudaApiD3D9GetDirect3DDevice@cudart@@YA?AW4cudaError@@PEAPEAUIDirect3DDevice9@@@Z 0000000180002900 f   cudart_static:cuda_runtime_api.obj
 0001:00001970       ?cudaApiD3D9MapResources@cudart@@YA?AW4cudaError@@HPEAPEAUIDirect3DResource9@@@Z 0000000180002970 f   cudart_static:cuda_runtime_api.obj
 0001:00001a00       ?cudaApiD3D9MapVertexBuffer@cudart@@YA?AW4cudaError@@PEAPEAXPEAUIDirect3DVertexBuffer9@@@Z 0000000180002a00 f   cudart_static:cuda_runtime_api.obj
 0001:00001a90       ?cudaApiD3D9RegisterResource@cudart@@YA?AW4cudaError@@PEAUIDirect3DResource9@@I@Z 0000000180002a90 f   cudart_static:cuda_runtime_api.obj
 0001:00001b20       ?cudaApiD3D9RegisterVertexBuffer@cudart@@YA?AW4cudaError@@PEAUIDirect3DVertexBuffer9@@@Z 0000000180002b20 f   cudart_static:cuda_runtime_api.obj
 0001:00001b90       ?cudaApiD3D9ResourceGetMappedArray@cudart@@YA?AW4cudaError@@PEAPEAUcudaArray@@PEAUIDirect3DResource9@@II@Z 0000000180002b90 f   cudart_static:cuda_runtime_api.obj
 0001:00001c40       ?cudaApiD3D9ResourceGetMappedPitch@cudart@@YA?AW4cudaError@@PEA_K0PEAUIDirect3DResource9@@II@Z 0000000180002c40 f   cudart_static:cuda_runtime_api.obj
 0001:00001ce0       ?cudaApiD3D9ResourceGetMappedPointer@cudart@@YA?AW4cudaError@@PEAPEAXPEAUIDirect3DResource9@@II@Z 0000000180002ce0 f   cudart_static:cuda_runtime_api.obj
 0001:00001d80       ?cudaApiD3D9ResourceGetMappedSize@cudart@@YA?AW4cudaError@@PEA_KPEAUIDirect3DResource9@@II@Z 0000000180002d80 f   cudart_static:cuda_runtime_api.obj
 0001:00001e20       ?cudaApiD3D9ResourceGetSurfaceDimensions@cudart@@YA?AW4cudaError@@PEA_K00PEAUIDirect3DResource9@@II@Z 0000000180002e20 f   cudart_static:cuda_runtime_api.obj
 0001:00001ed0       ?cudaApiD3D9ResourceSetMapFlags@cudart@@YA?AW4cudaError@@PEAUIDirect3DResource9@@I@Z 0000000180002ed0 f   cudart_static:cuda_runtime_api.obj
 0001:00001f60       ?cudaApiD3D9SetDirect3DDevice@cudart@@YA?AW4cudaError@@PEAUIDirect3DDevice9@@H@Z 0000000180002f60 f   cudart_static:cuda_runtime_api.obj
 0001:00002040       ?cudaApiD3D9UnmapResources@cudart@@YA?AW4cudaError@@HPEAPEAUIDirect3DResource9@@@Z 0000000180003040 f   cudart_static:cuda_runtime_api.obj
 0001:000020d0       ?cudaApiD3D9UnmapVertexBuffer@cudart@@YA?AW4cudaError@@PEAUIDirect3DVertexBuffer9@@@Z 00000001800030d0 f   cudart_static:cuda_runtime_api.obj
 0001:00002140       ?cudaApiD3D9UnregisterResource@cudart@@YA?AW4cudaError@@PEAUIDirect3DResource9@@@Z 0000000180003140 f   cudart_static:cuda_runtime_api.obj
 0001:000021b0       ?cudaApiD3D9UnregisterVertexBuffer@cudart@@YA?AW4cudaError@@PEAUIDirect3DVertexBuffer9@@@Z 00000001800031b0 f   cudart_static:cuda_runtime_api.obj
 0001:00002220       ?cudaApiDestroyExternalMemory@cudart@@YA?AW4cudaError@@PEAUCUexternalMemory_st@@@Z 0000000180003220 f   cudart_static:cuda_runtime_api.obj
 0001:00002290       ?cudaApiDestroyExternalSemaphore@cudart@@YA?AW4cudaError@@PEAUCUexternalSemaphore_st@@@Z 0000000180003290 f   cudart_static:cuda_runtime_api.obj
 0001:00002300       ?cudaApiDestroySurfaceObject@cudart@@YA?AW4cudaError@@_K@Z 0000000180003300 f   cudart_static:cuda_runtime_api.obj
 0001:00002370       ?cudaApiDestroyTextureObject@cudart@@YA?AW4cudaError@@_K@Z 0000000180003370 f   cudart_static:cuda_runtime_api.obj
 0001:000023e0       ?cudaApiDeviceCanAccessPeer@cudart@@YA?AW4cudaError@@PEAHHH@Z 00000001800033e0 f   cudart_static:cuda_runtime_api.obj
 0001:000024b0       ?cudaApiDeviceDisablePeerAccess@cudart@@YA?AW4cudaError@@H@Z 00000001800034b0 f   cudart_static:cuda_runtime_api.obj
 0001:00002590       ?cudaApiDeviceEnablePeerAccess@cudart@@YA?AW4cudaError@@HI@Z 0000000180003590 f   cudart_static:cuda_runtime_api.obj
 0001:00002680       ?cudaApiDeviceGetAttribute@cudart@@YA?AW4cudaError@@PEAHW4cudaDeviceAttr@@H@Z 0000000180003680 f   cudart_static:cuda_runtime_api.obj
 0001:000026d0       ?cudaApiDeviceGetByPCIBusId@cudart@@YA?AW4cudaError@@PEAHPEBD@Z 00000001800036d0 f   cudart_static:cuda_runtime_api.obj
 0001:00002720       ?cudaApiDeviceGetCacheConfig@cudart@@YA?AW4cudaError@@PEAW4cudaFuncCache@@@Z 0000000180003720 f   cudart_static:cuda_runtime_api.obj
 0001:00002790       ?cudaApiDeviceGetDefaultMemPool@cudart@@YA?AW4cudaError@@PEAPEAUCUmemPoolHandle_st@@H@Z 0000000180003790 f   cudart_static:cuda_runtime_api.obj
 0001:00002820       ?cudaApiDeviceGetLimit@cudart@@YA?AW4cudaError@@PEA_KW4cudaLimit@@@Z 0000000180003820 f   cudart_static:cuda_runtime_api.obj
 0001:000028b0       ?cudaApiDeviceGetMemPool@cudart@@YA?AW4cudaError@@PEAPEAUCUmemPoolHandle_st@@H@Z 00000001800038b0 f   cudart_static:cuda_runtime_api.obj
 0001:00002900       ?cudaApiDeviceGetNvSciSyncAttributes@cudart@@YA?AW4cudaError@@PEAXHH@Z 0000000180003900 f   cudart_static:cuda_runtime_api.obj
 0001:00002990       ?cudaApiDeviceGetP2PAttribute@cudart@@YA?AW4cudaError@@PEAHW4cudaDeviceP2PAttr@@HH@Z 0000000180003990 f   cudart_static:cuda_runtime_api.obj
 0001:000029e0       ?cudaApiDeviceGetPCIBusId@cudart@@YA?AW4cudaError@@PEADHH@Z 00000001800039e0 f   cudart_static:cuda_runtime_api.obj
 0001:00002a30       ?cudaApiDeviceGetSharedMemConfig@cudart@@YA?AW4cudaError@@PEAW4cudaSharedMemConfig@@@Z 0000000180003a30 f   cudart_static:cuda_runtime_api.obj
 0001:00002aa0       ?cudaApiDeviceGetStreamPriorityRange@cudart@@YA?AW4cudaError@@PEAH0@Z 0000000180003aa0 f   cudart_static:cuda_runtime_api.obj
 0001:00002b30       ?cudaApiDeviceGetTexture1DLinearMaxWidth@cudart@@YA?AW4cudaError@@PEA_KPEBUcudaChannelFormatDesc@@H@Z 0000000180003b30 f   cudart_static:cuda_runtime_api.obj
 0001:00002be0       ?cudaApiDeviceReset@cudart@@YA?AW4cudaError@@XZ 0000000180003be0 f   cudart_static:cuda_runtime_api.obj
 0001:00002cb0       ?cudaApiDeviceSetCacheConfig@cudart@@YA?AW4cudaError@@W4cudaFuncCache@@@Z 0000000180003cb0 f   cudart_static:cuda_runtime_api.obj
 0001:00002d20       ?cudaApiDeviceSetLimit@cudart@@YA?AW4cudaError@@W4cudaLimit@@_K@Z 0000000180003d20 f   cudart_static:cuda_runtime_api.obj
 0001:00002db0       ?cudaApiDeviceSetMemPool@cudart@@YA?AW4cudaError@@HPEAUCUmemPoolHandle_st@@@Z 0000000180003db0 f   cudart_static:cuda_runtime_api.obj
 0001:00002e00       ?cudaApiDeviceSetSharedMemConfig@cudart@@YA?AW4cudaError@@W4cudaSharedMemConfig@@@Z 0000000180003e00 f   cudart_static:cuda_runtime_api.obj
 0001:00002e70       ?cudaApiDeviceSynchronize@cudart@@YA?AW4cudaError@@XZ 0000000180003e70 f   cudart_static:cuda_runtime_api.obj
 0001:00002ed0       ?cudaApiDriverGetVersion@cudart@@YA?AW4cudaError@@PEAH@Z 0000000180003ed0 f   cudart_static:cuda_runtime_api.obj
 0001:00002f30       ?cudaApiEventCreate@cudart@@YA?AW4cudaError@@PEAPEAUCUevent_st@@@Z 0000000180003f30 f   cudart_static:cuda_runtime_api.obj
 0001:00002fa0       ?cudaApiEventCreateWithFlags@cudart@@YA?AW4cudaError@@PEAPEAUCUevent_st@@I@Z 0000000180003fa0 f   cudart_static:cuda_runtime_api.obj
 0001:00003050       ?cudaApiEventDestroy@cudart@@YA?AW4cudaError@@PEAUCUevent_st@@@Z 0000000180004050 f   cudart_static:cuda_runtime_api.obj
 0001:000030c0       ?cudaApiEventElapsedTime@cudart@@YA?AW4cudaError@@PEAMPEAUCUevent_st@@1@Z 00000001800040c0 f   cudart_static:cuda_runtime_api.obj
 0001:00003160       ?cudaApiEventQuery@cudart@@YA?AW4cudaError@@PEAUCUevent_st@@@Z 0000000180004160 f   cudart_static:cuda_runtime_api.obj
 0001:000031d0       ?cudaApiEventRecord@cudart@@YA?AW4cudaError@@PEAUCUevent_st@@PEAUCUstream_st@@@Z 00000001800041d0 f   cudart_static:cuda_runtime_api.obj
 0001:000032f0       ?cudaApiEventRecordWithFlags@cudart@@YA?AW4cudaError@@PEAUCUevent_st@@PEAUCUstream_st@@I@Z 00000001800042f0 f   cudart_static:cuda_runtime_api.obj
 0001:00003430       ?cudaApiEventRecordWithFlags_ptsz@cudart@@YA?AW4cudaError@@PEAUCUevent_st@@PEAUCUstream_st@@I@Z 0000000180004430 f   cudart_static:cuda_runtime_api.obj
 0001:000034c0       ?cudaApiEventRecord_ptsz@cudart@@YA?AW4cudaError@@PEAUCUevent_st@@PEAUCUstream_st@@@Z 00000001800044c0 f   cudart_static:cuda_runtime_api.obj
 0001:00003550       ?cudaApiEventSynchronize@cudart@@YA?AW4cudaError@@PEAUCUevent_st@@@Z 0000000180004550 f   cudart_static:cuda_runtime_api.obj
 0001:000035a0       ?cudaApiExternalMemoryGetMappedBuffer@cudart@@YA?AW4cudaError@@PEAPEAXPEAUCUexternalMemory_st@@PEBUcudaExternalMemoryBufferDesc@@@Z 00000001800045a0 f   cudart_static:cuda_runtime_api.obj
 0001:00003670       ?cudaApiExternalMemoryGetMappedMipmappedArray@cudart@@YA?AW4cudaError@@PEAPEAUcudaMipmappedArray@@PEAUCUexternalMemory_st@@PEBUcudaExternalMemoryMipmappedArrayDesc@@@Z 0000000180004670 f   cudart_static:cuda_runtime_api.obj
 0001:00003780       ?cudaApiFree@cudart@@YA?AW4cudaError@@PEAX@Z 0000000180004780 f   cudart_static:cuda_runtime_api.obj
 0001:000037f0       ?cudaApiFreeArray@cudart@@YA?AW4cudaError@@PEAUcudaArray@@@Z 00000001800047f0 f   cudart_static:cuda_runtime_api.obj
 0001:00003870       ?cudaApiFreeAsync@cudart@@YA?AW4cudaError@@PEAXPEAUCUstream_st@@@Z 0000000180004870 f   cudart_static:cuda_runtime_api.obj
 0001:00003a00       ?cudaApiFreeAsync_ptsz@cudart@@YA?AW4cudaError@@PEAXPEAUCUstream_st@@@Z 0000000180004a00 f   cudart_static:cuda_runtime_api.obj
 0001:00003aa0       ?cudaApiFreeHost@cudart@@YA?AW4cudaError@@PEAX@Z 0000000180004aa0 f   cudart_static:cuda_runtime_api.obj
 0001:00003b10       ?cudaApiFreeMipmappedArray@cudart@@YA?AW4cudaError@@PEAUcudaMipmappedArray@@@Z 0000000180004b10 f   cudart_static:cuda_runtime_api.obj
 0001:00003b90       ?cudaApiFuncGetAttributes@cudart@@YA?AW4cudaError@@PEAUcudaFuncAttributes@@PEBX@Z 0000000180004b90 f   cudart_static:cuda_runtime_api.obj
 0001:00003d70       ?cudaApiFuncSetAttribute@cudart@@YA?AW4cudaError@@PEBXW4cudaFuncAttribute@@H@Z 0000000180004d70 f   cudart_static:cuda_runtime_api.obj
 0001:00003e30       ?cudaApiFuncSetCacheConfig@cudart@@YA?AW4cudaError@@PEBXW4cudaFuncCache@@@Z 0000000180004e30 f   cudart_static:cuda_runtime_api.obj
 0001:00003ee0       ?cudaApiFuncSetSharedMemConfig@cudart@@YA?AW4cudaError@@PEBXW4cudaSharedMemConfig@@@Z 0000000180004ee0 f   cudart_static:cuda_runtime_api.obj
 0001:00003f90       ?cudaApiGLGetDevices@cudart@@YA?AW4cudaError@@PEAIPEAHIW4cudaGLDeviceList@@@Z 0000000180004f90 f   cudart_static:cuda_runtime_api.obj
 0001:000040d0       ?cudaApiGLMapBufferObject@cudart@@YA?AW4cudaError@@PEAPEAXI@Z 00000001800050d0 f   cudart_static:cuda_runtime_api.obj
 0001:00004160       ?cudaApiGLMapBufferObjectAsync@cudart@@YA?AW4cudaError@@PEAPEAXIPEAUCUstream_st@@@Z 0000000180005160 f   cudart_static:cuda_runtime_api.obj
 0001:000041f0       ?cudaApiGLRegisterBufferObject@cudart@@YA?AW4cudaError@@I@Z 00000001800051f0 f   cudart_static:cuda_runtime_api.obj
 0001:00004270       ?cudaApiGLSetBufferObjectMapFlags@cudart@@YA?AW4cudaError@@II@Z 0000000180005270 f   cudart_static:cuda_runtime_api.obj
 0001:000042f0       ?cudaApiGLSetGLDevice@cudart@@YA?AW4cudaError@@H@Z 00000001800052f0 f   cudart_static:cuda_runtime_api.obj
 0001:000043a0       ?cudaApiGLUnmapBufferObject@cudart@@YA?AW4cudaError@@I@Z 00000001800053a0 f   cudart_static:cuda_runtime_api.obj
 0001:00004410       ?cudaApiGLUnmapBufferObjectAsync@cudart@@YA?AW4cudaError@@IPEAUCUstream_st@@@Z 0000000180005410 f   cudart_static:cuda_runtime_api.obj
 0001:000044a0       ?cudaApiGLUnregisterBufferObject@cudart@@YA?AW4cudaError@@I@Z 00000001800054a0 f   cudart_static:cuda_runtime_api.obj
 0001:00004520       ?cudaApiGetChannelDesc@cudart@@YA?AW4cudaError@@PEAUcudaChannelFormatDesc@@PEBUcudaArray@@@Z 0000000180005520 f   cudart_static:cuda_runtime_api.obj
 0001:000045b0       ?cudaApiGetDevice@cudart@@YA?AW4cudaError@@PEAH@Z 00000001800055b0 f   cudart_static:cuda_runtime_api.obj
 0001:000046a0       ?cudaApiGetDeviceCount@cudart@@YA?AW4cudaError@@PEAH@Z 00000001800056a0 f   cudart_static:cuda_runtime_api.obj
 0001:00004700       ?cudaApiGetDeviceFlags@cudart@@YA?AW4cudaError@@PEAI@Z 0000000180005700 f   cudart_static:cuda_runtime_api.obj
 0001:00004840       ?cudaApiGetDeviceProperties@cudart@@YA?AW4cudaError@@PEAUcudaDeviceProp@@H@Z 0000000180005840 f   cudart_static:cuda_runtime_api.obj
 0001:00004990       ?cudaApiGetErrorName@cudart@@YAPEBDW4cudaError@@@Z 0000000180005990 f   cudart_static:cuda_runtime_api.obj
 0001:000049d0       ?cudaApiGetErrorString@cudart@@YAPEBDW4cudaError@@@Z 00000001800059d0 f   cudart_static:cuda_runtime_api.obj
 0001:00004a10       ?cudaApiGetFuncBySymbol@cudart@@YA?AW4cudaError@@PEAPEAUCUfunc_st@@PEBX@Z 0000000180005a10 f   cudart_static:cuda_runtime_api.obj
 0001:00004ab0       ?cudaApiGetLastError@cudart@@YA?AW4cudaError@@XZ 0000000180005ab0 f   cudart_static:cuda_runtime_api.obj
 0001:00004ae0       ?cudaApiGetMipmappedArrayLevel@cudart@@YA?AW4cudaError@@PEAPEAUcudaArray@@PEBUcudaMipmappedArray@@I@Z 0000000180005ae0 f   cudart_static:cuda_runtime_api.obj
 0001:00004b70       ?cudaApiGetSurfaceObjectResourceDesc@cudart@@YA?AW4cudaError@@PEAUcudaResourceDesc@@_K@Z 0000000180005b70 f   cudart_static:cuda_runtime_api.obj
 0001:00004c50       ?cudaApiGetSurfaceReference@cudart@@YA?AW4cudaError@@PEAPEBUsurfaceReference@@PEBX@Z 0000000180005c50 f   cudart_static:cuda_runtime_api.obj
 0001:00004cf0       ?cudaApiGetSymbolAddress@cudart@@YA?AW4cudaError@@PEAPEAXPEBX@Z 0000000180005cf0 f   cudart_static:cuda_runtime_api.obj
 0001:00004d90       ?cudaApiGetSymbolSize@cudart@@YA?AW4cudaError@@PEA_KPEBX@Z 0000000180005d90 f   cudart_static:cuda_runtime_api.obj
 0001:00004e30       ?cudaApiGetTextureAlignmentOffset@cudart@@YA?AW4cudaError@@PEA_KPEBUtextureReference@@@Z 0000000180005e30 f   cudart_static:cuda_runtime_api.obj
 0001:00004ed0       ?cudaApiGetTextureObjectResourceDesc@cudart@@YA?AW4cudaError@@PEAUcudaResourceDesc@@_K@Z 0000000180005ed0 f   cudart_static:cuda_runtime_api.obj
 0001:00004fb0       ?cudaApiGetTextureObjectResourceViewDesc@cudart@@YA?AW4cudaError@@PEAUcudaResourceViewDesc@@_K@Z 0000000180005fb0 f   cudart_static:cuda_runtime_api.obj
 0001:000050a0       ?cudaApiGetTextureObjectTextureDesc@cudart@@YA?AW4cudaError@@PEAUcudaTextureDesc@@_K@Z 00000001800060a0 f   cudart_static:cuda_runtime_api.obj
 0001:00005190       ?cudaApiGetTextureReference@cudart@@YA?AW4cudaError@@PEAPEBUtextureReference@@PEBX@Z 0000000180006190 f   cudart_static:cuda_runtime_api.obj
 0001:00005230       ?cudaApiGraphAddChildGraphNode@cudart@@YA?AW4cudaError@@PEAPEAUCUgraphNode_st@@PEAUCUgraph_st@@PEBQEAU3@_K1@Z 0000000180006230 f   cudart_static:cuda_runtime_api.obj
 0001:000052e0       ?cudaApiGraphAddDependencies@cudart@@YA?AW4cudaError@@PEAUCUgraph_st@@PEBQEAUCUgraphNode_st@@1_K@Z 00000001800062e0 f   cudart_static:cuda_runtime_api.obj
 0001:00005380       ?cudaApiGraphAddEmptyNode@cudart@@YA?AW4cudaError@@PEAPEAUCUgraphNode_st@@PEAUCUgraph_st@@PEBQEAU3@_K@Z 0000000180006380 f   cudart_static:cuda_runtime_api.obj
 0001:00005420       ?cudaApiGraphAddEventRecordNode@cudart@@YA?AW4cudaError@@PEAPEAUCUgraphNode_st@@PEAUCUgraph_st@@PEBQEAU3@_KPEAUCUevent_st@@@Z 0000000180006420 f   cudart_static:cuda_runtime_api.obj
 0001:000054d0       ?cudaApiGraphAddEventWaitNode@cudart@@YA?AW4cudaError@@PEAPEAUCUgraphNode_st@@PEAUCUgraph_st@@PEBQEAU3@_KPEAUCUevent_st@@@Z 00000001800064d0 f   cudart_static:cuda_runtime_api.obj
 0001:00005580       ?cudaApiGraphAddExternalSemaphoresSignalNode@cudart@@YA?AW4cudaError@@PEAPEAUCUgraphNode_st@@PEAUCUgraph_st@@PEBQEAU3@_KPEBUcudaExternalSemaphoreSignalNodeParams@@@Z 0000000180006580 f   cudart_static:cuda_runtime_api.obj
 0001:00005630       ?cudaApiGraphAddExternalSemaphoresWaitNode@cudart@@YA?AW4cudaError@@PEAPEAUCUgraphNode_st@@PEAUCUgraph_st@@PEBQEAU3@_KPEBUcudaExternalSemaphoreWaitNodeParams@@@Z 0000000180006630 f   cudart_static:cuda_runtime_api.obj
 0001:000056e0       ?cudaApiGraphAddHostNode@cudart@@YA?AW4cudaError@@PEAPEAUCUgraphNode_st@@PEAUCUgraph_st@@PEBQEAU3@_KPEBUcudaHostNodeParams@@@Z 00000001800066e0 f   cudart_static:cuda_runtime_api.obj
 0001:000057b0       ?cudaApiGraphAddKernelNode@cudart@@YA?AW4cudaError@@PEAPEAUCUgraphNode_st@@PEAUCUgraph_st@@PEBQEAU3@_KPEBUcudaKernelNodeParams@@@Z 00000001800067b0 f   cudart_static:cuda_runtime_api.obj
 0001:00005900       ?cudaApiGraphAddMemcpyNode1D@cudart@@YA?AW4cudaError@@PEAPEAUCUgraphNode_st@@PEAUCUgraph_st@@PEBQEAU3@_KPEAXPEBX3W4cudaMemcpyKind@@@Z 0000000180006900 f   cudart_static:cuda_runtime_api.obj
 0001:00005ab0       ?cudaApiGraphAddMemcpyNode@cudart@@YA?AW4cudaError@@PEAPEAUCUgraphNode_st@@PEAUCUgraph_st@@PEBQEAU3@_KPEBUcudaMemcpy3DParms@@@Z 0000000180006ab0 f   cudart_static:cuda_runtime_api.obj
 0001:00005c10       ?cudaApiGraphAddMemcpyNodeFromSymbol@cudart@@YA?AW4cudaError@@PEAPEAUCUgraphNode_st@@PEAUCUgraph_st@@PEBQEAU3@_KPEAXPEBX33W4cudaMemcpyKind@@@Z 0000000180006c10 f   cudart_static:cuda_runtime_api.obj
 0001:00005db0       ?cudaApiGraphAddMemcpyNodeToSymbol@cudart@@YA?AW4cudaError@@PEAPEAUCUgraphNode_st@@PEAUCUgraph_st@@PEBQEAU3@_KPEBX433W4cudaMemcpyKind@@@Z 0000000180006db0 f   cudart_static:cuda_runtime_api.obj
 0001:00005f50       ?cudaApiGraphAddMemsetNode@cudart@@YA?AW4cudaError@@PEAPEAUCUgraphNode_st@@PEAUCUgraph_st@@PEBQEAU3@_KPEBUcudaMemsetParams@@@Z 0000000180006f50 f   cudart_static:cuda_runtime_api.obj
 0001:000060c0       ?cudaApiGraphChildGraphNodeGetGraph@cudart@@YA?AW4cudaError@@PEAUCUgraphNode_st@@PEAPEAUCUgraph_st@@@Z 00000001800070c0 f   cudart_static:cuda_runtime_api.obj
 0001:00006150       ?cudaApiGraphClone@cudart@@YA?AW4cudaError@@PEAPEAUCUgraph_st@@PEAU3@@Z 0000000180007150 f   cudart_static:cuda_runtime_api.obj
 0001:000061e0       ?cudaApiGraphCreate@cudart@@YA?AW4cudaError@@PEAPEAUCUgraph_st@@I@Z 00000001800071e0 f   cudart_static:cuda_runtime_api.obj
 0001:00006270       ?cudaApiGraphDestroy@cudart@@YA?AW4cudaError@@PEAUCUgraph_st@@@Z 0000000180007270 f   cudart_static:cuda_runtime_api.obj
 0001:000062e0       ?cudaApiGraphDestroyNode@cudart@@YA?AW4cudaError@@PEAUCUgraphNode_st@@@Z 00000001800072e0 f   cudart_static:cuda_runtime_api.obj
 0001:00006350       ?cudaApiGraphEventRecordNodeGetEvent@cudart@@YA?AW4cudaError@@PEAUCUgraphNode_st@@PEAPEAUCUevent_st@@@Z 0000000180007350 f   cudart_static:cuda_runtime_api.obj
 0001:000063e0       ?cudaApiGraphEventRecordNodeSetEvent@cudart@@YA?AW4cudaError@@PEAUCUgraphNode_st@@PEAUCUevent_st@@@Z 00000001800073e0 f   cudart_static:cuda_runtime_api.obj
 0001:00006470       ?cudaApiGraphEventWaitNodeGetEvent@cudart@@YA?AW4cudaError@@PEAUCUgraphNode_st@@PEAPEAUCUevent_st@@@Z 0000000180007470 f   cudart_static:cuda_runtime_api.obj
 0001:00006500       ?cudaApiGraphEventWaitNodeSetEvent@cudart@@YA?AW4cudaError@@PEAUCUgraphNode_st@@PEAUCUevent_st@@@Z 0000000180007500 f   cudart_static:cuda_runtime_api.obj
 0001:00006590       ?cudaApiGraphExecChildGraphNodeSetParams@cudart@@YA?AW4cudaError@@PEAUCUgraphExec_st@@PEAUCUgraphNode_st@@PEAUCUgraph_st@@@Z 0000000180007590 f   cudart_static:cuda_runtime_api.obj
 0001:00006620       ?cudaApiGraphExecDestroy@cudart@@YA?AW4cudaError@@PEAUCUgraphExec_st@@@Z 0000000180007620 f   cudart_static:cuda_runtime_api.obj
 0001:00006690       ?cudaApiGraphExecEventRecordNodeSetEvent@cudart@@YA?AW4cudaError@@PEAUCUgraphExec_st@@PEAUCUgraphNode_st@@PEAUCUevent_st@@@Z 0000000180007690 f   cudart_static:cuda_runtime_api.obj
 0001:00006720       ?cudaApiGraphExecEventWaitNodeSetEvent@cudart@@YA?AW4cudaError@@PEAUCUgraphExec_st@@PEAUCUgraphNode_st@@PEAUCUevent_st@@@Z 0000000180007720 f   cudart_static:cuda_runtime_api.obj
 0001:000067b0       ?cudaApiGraphExecExternalSemaphoresSignalNodeSetParams@cudart@@YA?AW4cudaError@@PEAUCUgraphExec_st@@PEAUCUgraphNode_st@@PEBUcudaExternalSemaphoreSignalNodeParams@@@Z 00000001800077b0 f   cudart_static:cuda_runtime_api.obj
 0001:00006840       ?cudaApiGraphExecExternalSemaphoresWaitNodeSetParams@cudart@@YA?AW4cudaError@@PEAUCUgraphExec_st@@PEAUCUgraphNode_st@@PEBUcudaExternalSemaphoreWaitNodeParams@@@Z 0000000180007840 f   cudart_static:cuda_runtime_api.obj
 0001:000068d0       ?cudaApiGraphExecHostNodeSetParams@cudart@@YA?AW4cudaError@@PEAUCUgraphExec_st@@PEAUCUgraphNode_st@@PEBUcudaHostNodeParams@@@Z 00000001800078d0 f   cudart_static:cuda_runtime_api.obj
 0001:00006980       ?cudaApiGraphExecKernelNodeSetParams@cudart@@YA?AW4cudaError@@PEAUCUgraphExec_st@@PEAUCUgraphNode_st@@PEBUcudaKernelNodeParams@@@Z 0000000180007980 f   cudart_static:cuda_runtime_api.obj
 0001:00006aa0       ?cudaApiGraphExecMemcpyNodeSetParams1D@cudart@@YA?AW4cudaError@@PEAUCUgraphExec_st@@PEAUCUgraphNode_st@@PEAXPEBX_KW4cudaMemcpyKind@@@Z 0000000180007aa0 f   cudart_static:cuda_runtime_api.obj
 0001:00006c50       ?cudaApiGraphExecMemcpyNodeSetParams@cudart@@YA?AW4cudaError@@PEAUCUgraphExec_st@@PEAUCUgraphNode_st@@PEBUcudaMemcpy3DParms@@@Z 0000000180007c50 f   cudart_static:cuda_runtime_api.obj
 0001:00006d90       ?cudaApiGraphExecMemcpyNodeSetParamsFromSymbol@cudart@@YA?AW4cudaError@@PEAUCUgraphExec_st@@PEAUCUgraphNode_st@@PEAXPEBX_K4W4cudaMemcpyKind@@@Z 0000000180007d90 f   cudart_static:cuda_runtime_api.obj
 0001:00006f00       ?cudaApiGraphExecMemcpyNodeSetParamsToSymbol@cudart@@YA?AW4cudaError@@PEAUCUgraphExec_st@@PEAUCUgraphNode_st@@PEBX2_K3W4cudaMemcpyKind@@@Z 0000000180007f00 f   cudart_static:cuda_runtime_api.obj
 0001:00007070       ?cudaApiGraphExecMemsetNodeSetParams@cudart@@YA?AW4cudaError@@PEAUCUgraphExec_st@@PEAUCUgraphNode_st@@PEBUcudaMemsetParams@@@Z 0000000180008070 f   cudart_static:cuda_runtime_api.obj
 0001:000071c0       ?cudaApiGraphExecUpdate@cudart@@YA?AW4cudaError@@PEAUCUgraphExec_st@@PEAUCUgraph_st@@PEAPEAUCUgraphNode_st@@PEAW4cudaGraphExecUpdateResult@@@Z 00000001800081c0 f   cudart_static:cuda_runtime_api.obj
 0001:00007270       ?cudaApiGraphExternalSemaphoresSignalNodeGetParams@cudart@@YA?AW4cudaError@@PEAUCUgraphNode_st@@PEAUcudaExternalSemaphoreSignalNodeParams@@@Z 0000000180008270 f   cudart_static:cuda_runtime_api.obj
 0001:00007300       ?cudaApiGraphExternalSemaphoresSignalNodeSetParams@cudart@@YA?AW4cudaError@@PEAUCUgraphNode_st@@PEBUcudaExternalSemaphoreSignalNodeParams@@@Z 0000000180008300 f   cudart_static:cuda_runtime_api.obj
 0001:00007390       ?cudaApiGraphExternalSemaphoresWaitNodeGetParams@cudart@@YA?AW4cudaError@@PEAUCUgraphNode_st@@PEAUcudaExternalSemaphoreWaitNodeParams@@@Z 0000000180008390 f   cudart_static:cuda_runtime_api.obj
 0001:00007420       ?cudaApiGraphExternalSemaphoresWaitNodeSetParams@cudart@@YA?AW4cudaError@@PEAUCUgraphNode_st@@PEBUcudaExternalSemaphoreWaitNodeParams@@@Z 0000000180008420 f   cudart_static:cuda_runtime_api.obj
 0001:000074b0       ?cudaApiGraphGetEdges@cudart@@YA?AW4cudaError@@PEAUCUgraph_st@@PEAPEAUCUgraphNode_st@@1PEA_K@Z 00000001800084b0 f   cudart_static:cuda_runtime_api.obj
 0001:00007550       ?cudaApiGraphGetNodes@cudart@@YA?AW4cudaError@@PEAUCUgraph_st@@PEAPEAUCUgraphNode_st@@PEA_K@Z 0000000180008550 f   cudart_static:cuda_runtime_api.obj
 0001:000075e0       ?cudaApiGraphGetRootNodes@cudart@@YA?AW4cudaError@@PEAUCUgraph_st@@PEAPEAUCUgraphNode_st@@PEA_K@Z 00000001800085e0 f   cudart_static:cuda_runtime_api.obj
 0001:00007670       ?cudaApiGraphHostNodeGetParams@cudart@@YA?AW4cudaError@@PEAUCUgraphNode_st@@PEAUcudaHostNodeParams@@@Z 0000000180008670 f   cudart_static:cuda_runtime_api.obj
 0001:00007710       ?cudaApiGraphHostNodeSetParams@cudart@@YA?AW4cudaError@@PEAUCUgraphNode_st@@PEBUcudaHostNodeParams@@@Z 0000000180008710 f   cudart_static:cuda_runtime_api.obj
 0001:000077b0       ?cudaApiGraphInstantiate@cudart@@YA?AW4cudaError@@PEAPEAUCUgraphExec_st@@PEAUCUgraph_st@@PEAPEAUCUgraphNode_st@@PEAD_K@Z 00000001800087b0 f   cudart_static:cuda_runtime_api.obj
 0001:00007860       ?cudaApiGraphKernelNodeCopyAttributes@cudart@@YA?AW4cudaError@@PEAUCUgraphNode_st@@0@Z 0000000180008860 f   cudart_static:cuda_runtime_api.obj
 0001:000078f0       ?cudaApiGraphKernelNodeGetAttribute@cudart@@YA?AW4cudaError@@PEAUCUgraphNode_st@@W4cudaKernelNodeAttrID@@PEATcudaKernelNodeAttrValue@@@Z 00000001800088f0 f   cudart_static:cuda_runtime_api.obj
 0001:000079b0       ?cudaApiGraphKernelNodeGetParams@cudart@@YA?AW4cudaError@@PEAUCUgraphNode_st@@PEAUcudaKernelNodeParams@@@Z 00000001800089b0 f   cudart_static:cuda_runtime_api.obj
 0001:00007ab0       ?cudaApiGraphKernelNodeSetAttribute@cudart@@YA?AW4cudaError@@PEAUCUgraphNode_st@@W4cudaKernelNodeAttrID@@PEBTcudaKernelNodeAttrValue@@@Z 0000000180008ab0 f   cudart_static:cuda_runtime_api.obj
 0001:00007b80       ?cudaApiGraphKernelNodeSetParams@cudart@@YA?AW4cudaError@@PEAUCUgraphNode_st@@PEBUcudaKernelNodeParams@@@Z 0000000180008b80 f   cudart_static:cuda_runtime_api.obj
 0001:00007ca0       ?cudaApiGraphLaunch@cudart@@YA?AW4cudaError@@PEAUCUgraphExec_st@@PEAUCUstream_st@@@Z 0000000180008ca0 f   cudart_static:cuda_runtime_api.obj
 0001:00007dc0       ?cudaApiGraphLaunch_ptsz@cudart@@YA?AW4cudaError@@PEAUCUgraphExec_st@@PEAUCUstream_st@@@Z 0000000180008dc0 f   cudart_static:cuda_runtime_api.obj
 0001:00007e50       ?cudaApiGraphMemcpyNodeGetParams@cudart@@YA?AW4cudaError@@PEAUCUgraphNode_st@@PEAUcudaMemcpy3DParms@@@Z 0000000180008e50 f   cudart_static:cuda_runtime_api.obj
 0001:00007f00       ?cudaApiGraphMemcpyNodeSetParams1D@cudart@@YA?AW4cudaError@@PEAUCUgraphNode_st@@PEAXPEBX_KW4cudaMemcpyKind@@@Z 0000000180008f00 f   cudart_static:cuda_runtime_api.obj
 0001:00008020       ?cudaApiGraphMemcpyNodeSetParams@cudart@@YA?AW4cudaError@@PEAUCUgraphNode_st@@PEBUcudaMemcpy3DParms@@@Z 0000000180009020 f   cudart_static:cuda_runtime_api.obj
 0001:000080d0       ?cudaApiGraphMemcpyNodeSetParamsFromSymbol@cudart@@YA?AW4cudaError@@PEAUCUgraphNode_st@@PEAXPEBX_K3W4cudaMemcpyKind@@@Z 00000001800090d0 f   cudart_static:cuda_runtime_api.obj
 0001:000081c0       ?cudaApiGraphMemcpyNodeSetParamsToSymbol@cudart@@YA?AW4cudaError@@PEAUCUgraphNode_st@@PEBX1_K2W4cudaMemcpyKind@@@Z 00000001800091c0 f   cudart_static:cuda_runtime_api.obj
 0001:000082b0       ?cudaApiGraphMemsetNodeGetParams@cudart@@YA?AW4cudaError@@PEAUCUgraphNode_st@@PEAUcudaMemsetParams@@@Z 00000001800092b0 f   cudart_static:cuda_runtime_api.obj
 0001:00008380       ?cudaApiGraphMemsetNodeSetParams@cudart@@YA?AW4cudaError@@PEAUCUgraphNode_st@@PEBUcudaMemsetParams@@@Z 0000000180009380 f   cudart_static:cuda_runtime_api.obj
 0001:00008410       ?cudaApiGraphNodeFindInClone@cudart@@YA?AW4cudaError@@PEAPEAUCUgraphNode_st@@PEAU3@PEAUCUgraph_st@@@Z 0000000180009410 f   cudart_static:cuda_runtime_api.obj
 0001:000084a0       ?cudaApiGraphNodeGetDependencies@cudart@@YA?AW4cudaError@@PEAUCUgraphNode_st@@PEAPEAU3@PEA_K@Z 00000001800094a0 f   cudart_static:cuda_runtime_api.obj
 0001:00008530       ?cudaApiGraphNodeGetDependentNodes@cudart@@YA?AW4cudaError@@PEAUCUgraphNode_st@@PEAPEAU3@PEA_K@Z 0000000180009530 f   cudart_static:cuda_runtime_api.obj
 0001:000085c0       ?cudaApiGraphNodeGetType@cudart@@YA?AW4cudaError@@PEAUCUgraphNode_st@@PEAW4cudaGraphNodeType@@@Z 00000001800095c0 f   cudart_static:cuda_runtime_api.obj
 0001:00008670       ?cudaApiGraphRemoveDependencies@cudart@@YA?AW4cudaError@@PEAUCUgraph_st@@PEBQEAUCUgraphNode_st@@1_K@Z 0000000180009670 f   cudart_static:cuda_runtime_api.obj
 0001:00008710       ?cudaApiGraphUpload@cudart@@YA?AW4cudaError@@PEAUCUgraphExec_st@@PEAUCUstream_st@@@Z 0000000180009710 f   cudart_static:cuda_runtime_api.obj
 0001:00008830       ?cudaApiGraphUpload_ptsz@cudart@@YA?AW4cudaError@@PEAUCUgraphExec_st@@PEAUCUstream_st@@@Z 0000000180009830 f   cudart_static:cuda_runtime_api.obj
 0001:000088c0       ?cudaApiGraphicsD3D10RegisterResource@cudart@@YA?AW4cudaError@@PEAPEAUcudaGraphicsResource@@PEAUID3D10Resource@@I@Z 00000001800098c0 f   cudart_static:cuda_runtime_api.obj
 0001:00008950       ?cudaApiGraphicsD3D11RegisterResource@cudart@@YA?AW4cudaError@@PEAPEAUcudaGraphicsResource@@PEAUID3D11Resource@@I@Z 0000000180009950 f   cudart_static:cuda_runtime_api.obj
 0001:000089e0       ?cudaApiGraphicsD3D9RegisterResource@cudart@@YA?AW4cudaError@@PEAPEAUcudaGraphicsResource@@PEAUIDirect3DResource9@@I@Z 00000001800099e0 f   cudart_static:cuda_runtime_api.obj
 0001:00008a70       ?cudaApiGraphicsGLRegisterBuffer@cudart@@YA?AW4cudaError@@PEAPEAUcudaGraphicsResource@@II@Z 0000000180009a70 f   cudart_static:cuda_runtime_api.obj
 0001:00008b00       ?cudaApiGraphicsGLRegisterImage@cudart@@YA?AW4cudaError@@PEAPEAUcudaGraphicsResource@@III@Z 0000000180009b00 f   cudart_static:cuda_runtime_api.obj
 0001:00008ba0       ?cudaApiGraphicsMapResources@cudart@@YA?AW4cudaError@@HPEAPEAUcudaGraphicsResource@@PEAUCUstream_st@@@Z 0000000180009ba0 f   cudart_static:cuda_runtime_api.obj
 0001:00008c30       ?cudaApiGraphicsResourceGetMappedMipmappedArray@cudart@@YA?AW4cudaError@@PEAPEAUcudaMipmappedArray@@PEAUcudaGraphicsResource@@@Z 0000000180009c30 f   cudart_static:cuda_runtime_api.obj
 0001:00008cd0       ?cudaApiGraphicsResourceGetMappedPointer@cudart@@YA?AW4cudaError@@PEAPEAXPEA_KPEAUcudaGraphicsResource@@@Z 0000000180009cd0 f   cudart_static:cuda_runtime_api.obj
 0001:00008d20       ?cudaApiGraphicsResourceSetMapFlags@cudart@@YA?AW4cudaError@@PEAUcudaGraphicsResource@@I@Z 0000000180009d20 f   cudart_static:cuda_runtime_api.obj
 0001:00008dc0       ?cudaApiGraphicsSubResourceGetMappedArray@cudart@@YA?AW4cudaError@@PEAPEAUcudaArray@@PEAUcudaGraphicsResource@@II@Z 0000000180009dc0 f   cudart_static:cuda_runtime_api.obj
 0001:00008e70       ?cudaApiGraphicsUnmapResources@cudart@@YA?AW4cudaError@@HPEAPEAUcudaGraphicsResource@@PEAUCUstream_st@@@Z 0000000180009e70 f   cudart_static:cuda_runtime_api.obj
 0001:00008f00       ?cudaApiGraphicsUnregisterResource@cudart@@YA?AW4cudaError@@PEAUcudaGraphicsResource@@@Z 0000000180009f00 f   cudart_static:cuda_runtime_api.obj
 0001:00008f70       ?cudaApiHostAlloc@cudart@@YA?AW4cudaError@@PEAPEAX_KI@Z 0000000180009f70 f   cudart_static:cuda_runtime_api.obj
 0001:00009000       ?cudaApiHostGetDevicePointer@cudart@@YA?AW4cudaError@@PEAPEAXPEAXI@Z 000000018000a000 f   cudart_static:cuda_runtime_api.obj
 0001:00009090       ?cudaApiHostGetFlags@cudart@@YA?AW4cudaError@@PEAIPEAX@Z 000000018000a090 f   cudart_static:cuda_runtime_api.obj
 0001:00009120       ?cudaApiHostRegister@cudart@@YA?AW4cudaError@@PEAX_KI@Z 000000018000a120 f   cudart_static:cuda_runtime_api.obj
 0001:000091b0       ?cudaApiHostUnregister@cudart@@YA?AW4cudaError@@PEAX@Z 000000018000a1b0 f   cudart_static:cuda_runtime_api.obj
 0001:00009220       ?cudaApiImportExternalMemory@cudart@@YA?AW4cudaError@@PEAPEAUCUexternalMemory_st@@PEBUcudaExternalMemoryHandleDesc@@@Z 000000018000a220 f   cudart_static:cuda_runtime_api.obj
 0001:00009380       ?cudaApiImportExternalSemaphore@cudart@@YA?AW4cudaError@@PEAPEAUCUexternalSemaphore_st@@PEBUcudaExternalSemaphoreHandleDesc@@@Z 000000018000a380 f   cudart_static:cuda_runtime_api.obj
 0001:00009500       ?cudaApiIpcCloseMemHandle@cudart@@YA?AW4cudaError@@PEAX@Z 000000018000a500 f   cudart_static:cuda_runtime_api.obj
 0001:00009570       ?cudaApiIpcGetEventHandle@cudart@@YA?AW4cudaError@@PEAUcudaIpcEventHandle_st@@PEAUCUevent_st@@@Z 000000018000a570 f   cudart_static:cuda_runtime_api.obj
 0001:00009630       ?cudaApiIpcGetMemHandle@cudart@@YA?AW4cudaError@@PEAUcudaIpcMemHandle_st@@PEAX@Z 000000018000a630 f   cudart_static:cuda_runtime_api.obj
 0001:000096f0       ?cudaApiIpcOpenEventHandle@cudart@@YA?AW4cudaError@@PEAPEAUCUevent_st@@UcudaIpcEventHandle_st@@@Z 000000018000a6f0 f   cudart_static:cuda_runtime_api.obj
 0001:000097d0       ?cudaApiIpcOpenMemHandle@cudart@@YA?AW4cudaError@@PEAPEAXUcudaIpcMemHandle_st@@I@Z 000000018000a7d0 f   cudart_static:cuda_runtime_api.obj
 0001:000098b0       ?cudaApiLaunchCooperativeKernel@cudart@@YA?AW4cudaError@@PEBXUdim3@@1PEAPEAX_KPEAUCUstream_st@@@Z 000000018000a8b0 f   cudart_static:cuda_runtime_api.obj
 0001:00009b40       ?cudaApiLaunchCooperativeKernelMultiDevice@cudart@@YA?AW4cudaError@@PEAUcudaLaunchParams@@II@Z 000000018000ab40 f   cudart_static:cuda_runtime_api.obj
 0001:00009dc0       ?cudaApiLaunchCooperativeKernel_ptsz@cudart@@YA?AW4cudaError@@PEBXUdim3@@1PEAPEAX_KPEAUCUstream_st@@@Z 000000018000adc0 f   cudart_static:cuda_runtime_api.obj
 0001:00009ef0       ?cudaApiLaunchHostFunc@cudart@@YA?AW4cudaError@@PEAUCUstream_st@@P6AXPEAX@Z1@Z 000000018000aef0 f   cudart_static:cuda_runtime_api.obj
 0001:0000a030       ?cudaApiLaunchHostFunc_ptsz@cudart@@YA?AW4cudaError@@PEAUCUstream_st@@P6AXPEAX@Z1@Z 000000018000b030 f   cudart_static:cuda_runtime_api.obj
 0001:0000a0c0       ?cudaApiLaunchKernel@cudart@@YA?AW4cudaError@@PEBXUdim3@@1PEAPEAX_KPEAUCUstream_st@@@Z 000000018000b0c0 f   cudart_static:cuda_runtime_api.obj
 0001:0000a370       ?cudaApiLaunchKernel_ptsz@cudart@@YA?AW4cudaError@@PEBXUdim3@@1PEAPEAX_KPEAUCUstream_st@@@Z 000000018000b370 f   cudart_static:cuda_runtime_api.obj
 0001:0000a4b0       ?cudaApiMalloc3D@cudart@@YA?AW4cudaError@@PEAUcudaPitchedPtr@@UcudaExtent@@@Z 000000018000b4b0 f   cudart_static:cuda_runtime_api.obj
 0001:0000a560       ?cudaApiMalloc3DArray@cudart@@YA?AW4cudaError@@PEAPEAUcudaArray@@PEBUcudaChannelFormatDesc@@UcudaExtent@@I@Z 000000018000b560 f   cudart_static:cuda_runtime_api.obj
 0001:0000a610       ?cudaApiMalloc@cudart@@YA?AW4cudaError@@PEAPEAX_K@Z 000000018000b610 f   cudart_static:cuda_runtime_api.obj
 0001:0000a6a0       ?cudaApiMallocArray@cudart@@YA?AW4cudaError@@PEAPEAUcudaArray@@PEBUcudaChannelFormatDesc@@_K2I@Z 000000018000b6a0 f   cudart_static:cuda_runtime_api.obj
 0001:0000a750       ?cudaApiMallocAsync@cudart@@YA?AW4cudaError@@PEAPEAX_KPEAUCUstream_st@@@Z 000000018000b750 f   cudart_static:cuda_runtime_api.obj
 0001:0000a900       ?cudaApiMallocAsync_ptsz@cudart@@YA?AW4cudaError@@PEAPEAX_KPEAUCUstream_st@@@Z 000000018000b900 f   cudart_static:cuda_runtime_api.obj
 0001:0000a9b0       ?cudaApiMallocFromPoolAsync@cudart@@YA?AW4cudaError@@PEAPEAX_KPEAUCUmemPoolHandle_st@@PEAUCUstream_st@@@Z 000000018000b9b0 f   cudart_static:cuda_runtime_api.obj
 0001:0000ab60       ?cudaApiMallocFromPoolAsync_ptsz@cudart@@YA?AW4cudaError@@PEAPEAX_KPEAUCUmemPoolHandle_st@@PEAUCUstream_st@@@Z 000000018000bb60 f   cudart_static:cuda_runtime_api.obj
 0001:0000ac10       ?cudaApiMallocHost@cudart@@YA?AW4cudaError@@PEAPEAX_K@Z 000000018000bc10 f   cudart_static:cuda_runtime_api.obj
 0001:0000aca0       ?cudaApiMallocManaged@cudart@@YA?AW4cudaError@@PEAPEAX_KI@Z 000000018000bca0 f   cudart_static:cuda_runtime_api.obj
 0001:0000ad30       ?cudaApiMallocMipmappedArray@cudart@@YA?AW4cudaError@@PEAPEAUcudaMipmappedArray@@PEBUcudaChannelFormatDesc@@UcudaExtent@@II@Z 000000018000bd30 f   cudart_static:cuda_runtime_api.obj
 0001:0000adf0       ?cudaApiMallocPitch@cudart@@YA?AW4cudaError@@PEAPEAXPEA_K_K2@Z 000000018000bdf0 f   cudart_static:cuda_runtime_api.obj
 0001:0000aea0       ?cudaApiMemAdvise@cudart@@YA?AW4cudaError@@PEBX_KW4cudaMemoryAdvise@@H@Z 000000018000bea0 f   cudart_static:cuda_runtime_api.obj
 0001:0000aef0       ?cudaApiMemGetInfo@cudart@@YA?AW4cudaError@@PEA_K0@Z 000000018000bef0 f   cudart_static:cuda_runtime_api.obj
 0001:0000af80       ?cudaApiMemPoolCreate@cudart@@YA?AW4cudaError@@PEAPEAUCUmemPoolHandle_st@@PEBUcudaMemPoolProps@@@Z 000000018000bf80 f   cudart_static:cuda_runtime_api.obj
 0001:0000b070       ?cudaApiMemPoolDestroy@cudart@@YA?AW4cudaError@@PEAUCUmemPoolHandle_st@@@Z 000000018000c070 f   cudart_static:cuda_runtime_api.obj
 0001:0000b0c0       ?cudaApiMemPoolExportPointer@cudart@@YA?AW4cudaError@@PEAUcudaMemPoolPtrExportData@@PEAX@Z 000000018000c0c0 f   cudart_static:cuda_runtime_api.obj
 0001:0000b110       ?cudaApiMemPoolExportToShareableHandle@cudart@@YA?AW4cudaError@@PEAXPEAUCUmemPoolHandle_st@@W4cudaMemAllocationHandleType@@I@Z 000000018000c110 f   cudart_static:cuda_runtime_api.obj
 0001:0000b170       ?cudaApiMemPoolGetAccess@cudart@@YA?AW4cudaError@@PEAW4cudaMemAccessFlags@@PEAUCUmemPoolHandle_st@@PEAUcudaMemLocation@@@Z 000000018000c170 f   cudart_static:cuda_runtime_api.obj
 0001:0000b1f0       ?cudaApiMemPoolGetAttribute@cudart@@YA?AW4cudaError@@PEAUCUmemPoolHandle_st@@W4cudaMemPoolAttr@@PEAX@Z 000000018000c1f0 f   cudart_static:cuda_runtime_api.obj
 0001:0000b240       ?cudaApiMemPoolImportFromShareableHandle@cudart@@YA?AW4cudaError@@PEAPEAUCUmemPoolHandle_st@@PEAXW4cudaMemAllocationHandleType@@I@Z 000000018000c240 f   cudart_static:cuda_runtime_api.obj
 0001:0000b2a0       ?cudaApiMemPoolImportPointer@cudart@@YA?AW4cudaError@@PEAPEAXPEAUCUmemPoolHandle_st@@PEAUcudaMemPoolPtrExportData@@@Z 000000018000c2a0 f   cudart_static:cuda_runtime_api.obj
 0001:0000b2f0       ?cudaApiMemPoolSetAccess@cudart@@YA?AW4cudaError@@PEAUCUmemPoolHandle_st@@PEBUcudaMemAccessDesc@@_K@Z 000000018000c2f0 f   cudart_static:cuda_runtime_api.obj
 0001:0000b400       ?cudaApiMemPoolSetAttribute@cudart@@YA?AW4cudaError@@PEAUCUmemPoolHandle_st@@W4cudaMemPoolAttr@@PEAX@Z 000000018000c400 f   cudart_static:cuda_runtime_api.obj
 0001:0000b450       ?cudaApiMemPoolTrimTo@cudart@@YA?AW4cudaError@@PEAUCUmemPoolHandle_st@@_K@Z 000000018000c450 f   cudart_static:cuda_runtime_api.obj
 0001:0000b4a0       ?cudaApiMemPrefetchAsync@cudart@@YA?AW4cudaError@@PEBX_KHPEAUCUstream_st@@@Z 000000018000c4a0 f   cudart_static:cuda_runtime_api.obj
 0001:0000b5f0       ?cudaApiMemPrefetchAsync_ptsz@cudart@@YA?AW4cudaError@@PEBX_KHPEAUCUstream_st@@@Z 000000018000c5f0 f   cudart_static:cuda_runtime_api.obj
 0001:0000b690       ?cudaApiMemRangeGetAttribute@cudart@@YA?AW4cudaError@@PEAX_KW4cudaMemRangeAttribute@@PEBX1@Z 000000018000c690 f   cudart_static:cuda_runtime_api.obj
 0001:0000b6f0       ?cudaApiMemRangeGetAttributes@cudart@@YA?AW4cudaError@@PEAPEAXPEA_KPEAW4cudaMemRangeAttribute@@_KPEBX3@Z 000000018000c6f0 f   cudart_static:cuda_runtime_api.obj
 0001:0000b760       ?cudaApiMemcpy2D@cudart@@YA?AW4cudaError@@PEAX_KPEBX111W4cudaMemcpyKind@@@Z 000000018000c760 f   cudart_static:cuda_runtime_api.obj
 0001:0000b7a0       ?cudaApiMemcpy2DArrayToArray@cudart@@YA?AW4cudaError@@PEAUcudaArray@@_K1PEBU3@1111W4cudaMemcpyKind@@@Z 000000018000c7a0 f   cudart_static:cuda_runtime_api.obj
 0001:0000b8f0       ?cudaApiMemcpy2DArrayToArray_ptds@cudart@@YA?AW4cudaError@@PEAUcudaArray@@_K1PEBU3@1111W4cudaMemcpyKind@@@Z 000000018000c8f0 f   cudart_static:cuda_runtime_api.obj
 0001:0000b950       ?cudaApiMemcpy2DAsync@cudart@@YA?AW4cudaError@@PEAX_KPEBX111W4cudaMemcpyKind@@PEAUCUstream_st@@@Z 000000018000c950 f   cudart_static:cuda_runtime_api.obj
 0001:0000ba80       ?cudaApiMemcpy2DAsync_ptsz@cudart@@YA?AW4cudaError@@PEAX_KPEBX111W4cudaMemcpyKind@@PEAUCUstream_st@@@Z 000000018000ca80 f   cudart_static:cuda_runtime_api.obj
 0001:0000bbb0       ?cudaApiMemcpy2DFromArray@cudart@@YA?AW4cudaError@@PEAX_KPEBUcudaArray@@1111W4cudaMemcpyKind@@@Z 000000018000cbb0 f   cudart_static:cuda_runtime_api.obj
 0001:0000bc00       ?cudaApiMemcpy2DFromArrayAsync@cudart@@YA?AW4cudaError@@PEAX_KPEBUcudaArray@@1111W4cudaMemcpyKind@@PEAUCUstream_st@@@Z 000000018000cc00 f   cudart_static:cuda_runtime_api.obj
 0001:0000bd50       ?cudaApiMemcpy2DFromArrayAsync_ptsz@cudart@@YA?AW4cudaError@@PEAX_KPEBUcudaArray@@1111W4cudaMemcpyKind@@PEAUCUstream_st@@@Z 000000018000cd50 f   cudart_static:cuda_runtime_api.obj
 0001:0000be90       ?cudaApiMemcpy2DFromArray_ptds@cudart@@YA?AW4cudaError@@PEAX_KPEBUcudaArray@@1111W4cudaMemcpyKind@@@Z 000000018000ce90 f   cudart_static:cuda_runtime_api.obj
 0001:0000bee0       ?cudaApiMemcpy2DToArray@cudart@@YA?AW4cudaError@@PEAUcudaArray@@_K1PEBX111W4cudaMemcpyKind@@@Z 000000018000cee0 f   cudart_static:cuda_runtime_api.obj
 0001:0000bf30       ?cudaApiMemcpy2DToArrayAsync@cudart@@YA?AW4cudaError@@PEAUcudaArray@@_K1PEBX111W4cudaMemcpyKind@@PEAUCUstream_st@@@Z 000000018000cf30 f   cudart_static:cuda_runtime_api.obj
 0001:0000c080       ?cudaApiMemcpy2DToArrayAsync_ptsz@cudart@@YA?AW4cudaError@@PEAUcudaArray@@_K1PEBX111W4cudaMemcpyKind@@PEAUCUstream_st@@@Z 000000018000d080 f   cudart_static:cuda_runtime_api.obj
 0001:0000c1d0       ?cudaApiMemcpy2DToArray_ptds@cudart@@YA?AW4cudaError@@PEAUcudaArray@@_K1PEBX111W4cudaMemcpyKind@@@Z 000000018000d1d0 f   cudart_static:cuda_runtime_api.obj
 0001:0000c220       ?cudaApiMemcpy2D_ptds@cudart@@YA?AW4cudaError@@PEAX_KPEBX111W4cudaMemcpyKind@@@Z 000000018000d220 f   cudart_static:cuda_runtime_api.obj
 0001:0000c260       ?cudaApiMemcpy3D@cudart@@YA?AW4cudaError@@PEBUcudaMemcpy3DParms@@@Z 000000018000d260 f   cudart_static:cuda_runtime_api.obj
 0001:0000c280       ?cudaApiMemcpy3DAsync@cudart@@YA?AW4cudaError@@PEBUcudaMemcpy3DParms@@PEAUCUstream_st@@@Z 000000018000d280 f   cudart_static:cuda_runtime_api.obj
 0001:0000c340       ?cudaApiMemcpy3DAsync_ptsz@cudart@@YA?AW4cudaError@@PEBUcudaMemcpy3DParms@@PEAUCUstream_st@@@Z 000000018000d340 f   cudart_static:cuda_runtime_api.obj
 0001:0000c410       ?cudaApiMemcpy3DPeer@cudart@@YA?AW4cudaError@@PEBUcudaMemcpy3DPeerParms@@@Z 000000018000d410 f   cudart_static:cuda_runtime_api.obj
 0001:0000c430       ?cudaApiMemcpy3DPeerAsync@cudart@@YA?AW4cudaError@@PEBUcudaMemcpy3DPeerParms@@PEAUCUstream_st@@@Z 000000018000d430 f   cudart_static:cuda_runtime_api.obj
 0001:0000c5d0       ?cudaApiMemcpy3DPeerAsync_ptsz@cudart@@YA?AW4cudaError@@PEBUcudaMemcpy3DPeerParms@@PEAUCUstream_st@@@Z 000000018000d5d0 f   cudart_static:cuda_runtime_api.obj
 0001:0000c770       ?cudaApiMemcpy3DPeer_ptds@cudart@@YA?AW4cudaError@@PEBUcudaMemcpy3DPeerParms@@@Z 000000018000d770 f   cudart_static:cuda_runtime_api.obj
 0001:0000c790       ?cudaApiMemcpy3D_ptds@cudart@@YA?AW4cudaError@@PEBUcudaMemcpy3DParms@@@Z 000000018000d790 f   cudart_static:cuda_runtime_api.obj
 0001:0000c7b0       ?cudaApiMemcpy@cudart@@YA?AW4cudaError@@PEAXPEBX_KW4cudaMemcpyKind@@@Z 000000018000d7b0 f   cudart_static:cuda_runtime_api.obj
 0001:0000c7d0       ?cudaApiMemcpyArrayToArray@cudart@@YA?AW4cudaError@@PEAUcudaArray@@_K1PEBU3@111W4cudaMemcpyKind@@@Z 000000018000d7d0 f   cudart_static:cuda_runtime_api.obj
 0001:0000c900       ?cudaApiMemcpyArrayToArray_ptds@cudart@@YA?AW4cudaError@@PEAUcudaArray@@_K1PEBU3@111W4cudaMemcpyKind@@@Z 000000018000d900 f   cudart_static:cuda_runtime_api.obj
 0001:0000c950       ?cudaApiMemcpyAsync@cudart@@YA?AW4cudaError@@PEAXPEBX_KW4cudaMemcpyKind@@PEAUCUstream_st@@@Z 000000018000d950 f   cudart_static:cuda_runtime_api.obj
 0001:0000ca30       ?cudaApiMemcpyAsync_ptsz@cudart@@YA?AW4cudaError@@PEAXPEBX_KW4cudaMemcpyKind@@PEAUCUstream_st@@@Z 000000018000da30 f   cudart_static:cuda_runtime_api.obj
 0001:0000cb00       ?cudaApiMemcpyFromArray@cudart@@YA?AW4cudaError@@PEAXPEBUcudaArray@@_K22W4cudaMemcpyKind@@@Z 000000018000db00 f   cudart_static:cuda_runtime_api.obj
 0001:0000cb30       ?cudaApiMemcpyFromArrayAsync@cudart@@YA?AW4cudaError@@PEAXPEBUcudaArray@@_K22W4cudaMemcpyKind@@PEAUCUstream_st@@@Z 000000018000db30 f   cudart_static:cuda_runtime_api.obj
 0001:0000cc40       ?cudaApiMemcpyFromArrayAsync_ptsz@cudart@@YA?AW4cudaError@@PEAXPEBUcudaArray@@_K22W4cudaMemcpyKind@@PEAUCUstream_st@@@Z 000000018000dc40 f   cudart_static:cuda_runtime_api.obj
 0001:0000cd50       ?cudaApiMemcpyFromArray_ptds@cudart@@YA?AW4cudaError@@PEAXPEBUcudaArray@@_K22W4cudaMemcpyKind@@@Z 000000018000dd50 f   cudart_static:cuda_runtime_api.obj
 0001:0000cd80       ?cudaApiMemcpyFromSymbol@cudart@@YA?AW4cudaError@@PEAXPEBX_K2W4cudaMemcpyKind@@@Z 000000018000dd80 f   cudart_static:cuda_runtime_api.obj
 0001:0000cdb0       ?cudaApiMemcpyFromSymbolAsync@cudart@@YA?AW4cudaError@@PEAXPEBX_K2W4cudaMemcpyKind@@PEAUCUstream_st@@@Z 000000018000ddb0 f   cudart_static:cuda_runtime_api.obj
 0001:0000ced0       ?cudaApiMemcpyFromSymbolAsync_ptsz@cudart@@YA?AW4cudaError@@PEAXPEBX_K2W4cudaMemcpyKind@@PEAUCUstream_st@@@Z 000000018000ded0 f   cudart_static:cuda_runtime_api.obj
 0001:0000d010       ?cudaApiMemcpyFromSymbol_ptds@cudart@@YA?AW4cudaError@@PEAXPEBX_K2W4cudaMemcpyKind@@@Z 000000018000e010 f   cudart_static:cuda_runtime_api.obj
 0001:0000d040       ?cudaApiMemcpyPeer@cudart@@YA?AW4cudaError@@PEAXHPEBXH_K@Z 000000018000e040 f   cudart_static:cuda_runtime_api.obj
 0001:0000d170       ?cudaApiMemcpyPeerAsync@cudart@@YA?AW4cudaError@@PEAXHPEBXH_KPEAUCUstream_st@@@Z 000000018000e170 f   cudart_static:cuda_runtime_api.obj
 0001:0000d2b0       ?cudaApiMemcpyToArray@cudart@@YA?AW4cudaError@@PEAUcudaArray@@_K1PEBX1W4cudaMemcpyKind@@@Z 000000018000e2b0 f   cudart_static:cuda_runtime_api.obj
 0001:0000d2e0       ?cudaApiMemcpyToArrayAsync@cudart@@YA?AW4cudaError@@PEAUcudaArray@@_K1PEBX1W4cudaMemcpyKind@@PEAUCUstream_st@@@Z 000000018000e2e0 f   cudart_static:cuda_runtime_api.obj
 0001:0000d3f0       ?cudaApiMemcpyToArrayAsync_ptsz@cudart@@YA?AW4cudaError@@PEAUcudaArray@@_K1PEBX1W4cudaMemcpyKind@@PEAUCUstream_st@@@Z 000000018000e3f0 f   cudart_static:cuda_runtime_api.obj
 0001:0000d500       ?cudaApiMemcpyToArray_ptds@cudart@@YA?AW4cudaError@@PEAUcudaArray@@_K1PEBX1W4cudaMemcpyKind@@@Z 000000018000e500 f   cudart_static:cuda_runtime_api.obj
 0001:0000d530       ?cudaApiMemcpyToSymbol@cudart@@YA?AW4cudaError@@PEBX0_K1W4cudaMemcpyKind@@@Z 000000018000e530 f   cudart_static:cuda_runtime_api.obj
 0001:0000d560       ?cudaApiMemcpyToSymbolAsync@cudart@@YA?AW4cudaError@@PEBX0_K1W4cudaMemcpyKind@@PEAUCUstream_st@@@Z 000000018000e560 f   cudart_static:cuda_runtime_api.obj
 0001:0000d680       ?cudaApiMemcpyToSymbolAsync_ptsz@cudart@@YA?AW4cudaError@@PEBX0_K1W4cudaMemcpyKind@@PEAUCUstream_st@@@Z 000000018000e680 f   cudart_static:cuda_runtime_api.obj
 0001:0000d7d0       ?cudaApiMemcpyToSymbol_ptds@cudart@@YA?AW4cudaError@@PEBX0_K1W4cudaMemcpyKind@@@Z 000000018000e7d0 f   cudart_static:cuda_runtime_api.obj
 0001:0000d800       ?cudaApiMemcpy_ptds@cudart@@YA?AW4cudaError@@PEAXPEBX_KW4cudaMemcpyKind@@@Z 000000018000e800 f   cudart_static:cuda_runtime_api.obj
 0001:0000d820       ?cudaApiMemset2D@cudart@@YA?AW4cudaError@@PEAX_KH11@Z 000000018000e820 f   cudart_static:cuda_runtime_api.obj
 0001:0000d850       ?cudaApiMemset2DAsync@cudart@@YA?AW4cudaError@@PEAX_KH11PEAUCUstream_st@@@Z 000000018000e850 f   cudart_static:cuda_runtime_api.obj
 0001:0000d950       ?cudaApiMemset2DAsync_ptsz@cudart@@YA?AW4cudaError@@PEAX_KH11PEAUCUstream_st@@@Z 000000018000e950 f   cudart_static:cuda_runtime_api.obj
 0001:0000da40       ?cudaApiMemset2D_ptds@cudart@@YA?AW4cudaError@@PEAX_KH11@Z 000000018000ea40 f   cudart_static:cuda_runtime_api.obj
 0001:0000da70       ?cudaApiMemset3D@cudart@@YA?AW4cudaError@@UcudaPitchedPtr@@HUcudaExtent@@@Z 000000018000ea70 f   cudart_static:cuda_runtime_api.obj
 0001:0000db60       ?cudaApiMemset3DAsync@cudart@@YA?AW4cudaError@@UcudaPitchedPtr@@HUcudaExtent@@PEAUCUstream_st@@@Z 000000018000eb60 f   cudart_static:cuda_runtime_api.obj
 0001:0000dd30       ?cudaApiMemset3DAsync_ptsz@cudart@@YA?AW4cudaError@@UcudaPitchedPtr@@HUcudaExtent@@PEAUCUstream_st@@@Z 000000018000ed30 f   cudart_static:cuda_runtime_api.obj
 0001:0000def0       ?cudaApiMemset3D_ptds@cudart@@YA?AW4cudaError@@UcudaPitchedPtr@@HUcudaExtent@@@Z 000000018000eef0 f   cudart_static:cuda_runtime_api.obj
 0001:0000dfe0       ?cudaApiMemset@cudart@@YA?AW4cudaError@@PEAXH_K@Z 000000018000efe0 f   cudart_static:cuda_runtime_api.obj
 0001:0000e000       ?cudaApiMemsetAsync@cudart@@YA?AW4cudaError@@PEAXH_KPEAUCUstream_st@@@Z 000000018000f000 f   cudart_static:cuda_runtime_api.obj
 0001:0000e0d0       ?cudaApiMemsetAsync_ptsz@cudart@@YA?AW4cudaError@@PEAXH_KPEAUCUstream_st@@@Z 000000018000f0d0 f   cudart_static:cuda_runtime_api.obj
 0001:0000e190       ?cudaApiMemset_ptds@cudart@@YA?AW4cudaError@@PEAXH_K@Z 000000018000f190 f   cudart_static:cuda_runtime_api.obj
 0001:0000e1b0       ?cudaApiMipmappedArrayGetSparseProperties@cudart@@YA?AW4cudaError@@PEAUcudaArraySparseProperties@@PEAUcudaMipmappedArray@@@Z 000000018000f1b0 f   cudart_static:cuda_runtime_api.obj
 0001:0000e280       ?cudaApiOccupancyAvailableDynamicSMemPerBlock@cudart@@YA?AW4cudaError@@PEA_KPEBXHH@Z 000000018000f280 f   cudart_static:cuda_runtime_api.obj
 0001:0000e340       ?cudaApiOccupancyMaxActiveBlocksPerMultiprocessor@cudart@@YA?AW4cudaError@@PEAHPEBXH_K@Z 000000018000f340 f   cudart_static:cuda_runtime_api.obj
 0001:0000e360       ?cudaApiOccupancyMaxActiveBlocksPerMultiprocessorWithFlags@cudart@@YA?AW4cudaError@@PEAHPEBXH_KI@Z 000000018000f360 f   cudart_static:cuda_runtime_api.obj
 0001:0000e430       ?cudaApiPeekAtLastError@cudart@@YA?AW4cudaError@@XZ 000000018000f430 f   cudart_static:cuda_runtime_api.obj
 0001:0000e460       ?cudaApiPointerGetAttributes@cudart@@YA?AW4cudaError@@PEAUcudaPointerAttributes@@PEBX@Z 000000018000f460 f   cudart_static:cuda_runtime_api.obj
 0001:0000e5c0       ?cudaApiProfilerInitialize@cudart@@YA?AW4cudaError@@PEBD0W4cudaOutputMode@@@Z 000000018000f5c0 f   cudart_static:cuda_runtime_api.obj
 0001:0000e650       ?cudaApiProfilerStart@cudart@@YA?AW4cudaError@@XZ 000000018000f650 f   cudart_static:cuda_runtime_api.obj
 0001:0000e6b0       ?cudaApiProfilerStop@cudart@@YA?AW4cudaError@@XZ 000000018000f6b0 f   cudart_static:cuda_runtime_api.obj
 0001:0000e730       ?cudaApiRuntimeGetVersion@cudart@@YA?AW4cudaError@@PEAH@Z 000000018000f730 f   cudart_static:cuda_runtime_api.obj
 0001:0000e780       ?cudaApiSetDevice@cudart@@YA?AW4cudaError@@H@Z 000000018000f780 f   cudart_static:cuda_runtime_api.obj
 0001:0000e820       ?cudaApiSetDeviceFlags@cudart@@YA?AW4cudaError@@I@Z 000000018000f820 f   cudart_static:cuda_runtime_api.obj
 0001:0000e8e0       ?cudaApiSetDoubleForDevice@cudart@@YA?AW4cudaError@@PEAN@Z 000000018000f8e0 f   cudart_static:cuda_runtime_api.obj
 0001:0000e8f0       ?cudaApiSetDoubleForHost@cudart@@YA?AW4cudaError@@PEAN@Z 000000018000f8f0 f   cudart_static:cuda_runtime_api.obj
 0001:0000e900       ?cudaApiSetValidDevices@cudart@@YA?AW4cudaError@@PEAHH@Z 000000018000f900 f   cudart_static:cuda_runtime_api.obj
 0001:0000e9a0       ?cudaApiSignalExternalSemaphoresAsync@cudart@@YA?AW4cudaError@@PEBQEAUCUexternalSemaphore_st@@PEBUcudaExternalSemaphoreSignalParams_v1@@IPEAUCUstream_st@@@Z 000000018000f9a0 f   cudart_static:cuda_runtime_api.obj
 0001:0000ebe0       ?cudaApiSignalExternalSemaphoresAsync_ptsz@cudart@@YA?AW4cudaError@@PEBQEAUCUexternalSemaphore_st@@PEBUcudaExternalSemaphoreSignalParams_v1@@IPEAUCUstream_st@@@Z 000000018000fbe0 f   cudart_static:cuda_runtime_api.obj
 0001:0000ec00       ?cudaApiSignalExternalSemaphoresAsync_v2@cudart@@YA?AW4cudaError@@PEBQEAUCUexternalSemaphore_st@@PEBUcudaExternalSemaphoreSignalParams@@IPEAUCUstream_st@@@Z 000000018000fc00 f   cudart_static:cuda_runtime_api.obj
 0001:0000eca0       ?cudaApiSignalExternalSemaphoresAsync_v2_ptsz@cudart@@YA?AW4cudaError@@PEBQEAUCUexternalSemaphore_st@@PEBUcudaExternalSemaphoreSignalParams@@IPEAUCUstream_st@@@Z 000000018000fca0 f   cudart_static:cuda_runtime_api.obj
 0001:0000ed40       ?cudaApiStreamAddCallback@cudart@@YA?AW4cudaError@@PEAUCUstream_st@@P6AX0W42@PEAX@Z2I@Z 000000018000fd40 f   cudart_static:cuda_runtime_api.obj
 0001:0000ee40       ?cudaApiStreamAddCallback_ptsz@cudart@@YA?AW4cudaError@@PEAUCUstream_st@@P6AX0W42@PEAX@Z2I@Z 000000018000fe40 f   cudart_static:cuda_runtime_api.obj
 0001:0000ee60       ?cudaApiStreamAttachMemAsync@cudart@@YA?AW4cudaError@@PEAUCUstream_st@@PEAX_KI@Z 000000018000fe60 f   cudart_static:cuda_runtime_api.obj
 0001:0000efb0       ?cudaApiStreamAttachMemAsync_ptsz@cudart@@YA?AW4cudaError@@PEAUCUstream_st@@PEAX_KI@Z 000000018000ffb0 f   cudart_static:cuda_runtime_api.obj
 0001:0000f050       ?cudaApiStreamBeginCapture@cudart@@YA?AW4cudaError@@PEAUCUstream_st@@W4cudaStreamCaptureMode@@@Z 0000000180010050 f   cudart_static:cuda_runtime_api.obj
 0001:0000f170       ?cudaApiStreamBeginCapture_ptsz@cudart@@YA?AW4cudaError@@PEAUCUstream_st@@W4cudaStreamCaptureMode@@@Z 0000000180010170 f   cudart_static:cuda_runtime_api.obj
 0001:0000f200       ?cudaApiStreamCopyAttributes@cudart@@YA?AW4cudaError@@PEAUCUstream_st@@0@Z 0000000180010200 f   cudart_static:cuda_runtime_api.obj
 0001:0000f320       ?cudaApiStreamCopyAttributes_ptsz@cudart@@YA?AW4cudaError@@PEAUCUstream_st@@0@Z 0000000180010320 f   cudart_static:cuda_runtime_api.obj
 0001:0000f3b0       ?cudaApiStreamCreate@cudart@@YA?AW4cudaError@@PEAPEAUCUstream_st@@@Z 00000001800103b0 f   cudart_static:cuda_runtime_api.obj
 0001:0000f420       ?cudaApiStreamCreateWithFlags@cudart@@YA?AW4cudaError@@PEAPEAUCUstream_st@@I@Z 0000000180010420 f   cudart_static:cuda_runtime_api.obj
 0001:0000f4b0       ?cudaApiStreamCreateWithPriority@cudart@@YA?AW4cudaError@@PEAPEAUCUstream_st@@IH@Z 00000001800104b0 f   cudart_static:cuda_runtime_api.obj
 0001:0000f540       ?cudaApiStreamDestroy@cudart@@YA?AW4cudaError@@PEAUCUstream_st@@@Z 0000000180010540 f   cudart_static:cuda_runtime_api.obj
 0001:0000f5b0       ?cudaApiStreamEndCapture@cudart@@YA?AW4cudaError@@PEAUCUstream_st@@PEAPEAUCUgraph_st@@@Z 00000001800105b0 f   cudart_static:cuda_runtime_api.obj
 0001:0000f6d0       ?cudaApiStreamEndCapture_ptsz@cudart@@YA?AW4cudaError@@PEAUCUstream_st@@PEAPEAUCUgraph_st@@@Z 00000001800106d0 f   cudart_static:cuda_runtime_api.obj
 0001:0000f760       ?cudaApiStreamGetAttribute@cudart@@YA?AW4cudaError@@PEAUCUstream_st@@W4cudaStreamAttrID@@PEATcudaStreamAttrValue@@@Z 0000000180010760 f   cudart_static:cuda_runtime_api.obj
 0001:0000f860       ?cudaApiStreamGetAttribute_ptsz@cudart@@YA?AW4cudaError@@PEAUCUstream_st@@W4cudaStreamAttrID@@PEATcudaStreamAttrValue@@@Z 0000000180010860 f   cudart_static:cuda_runtime_api.obj
 0001:0000f880       ?cudaApiStreamGetCaptureInfo@cudart@@YA?AW4cudaError@@PEAUCUstream_st@@PEAW4cudaStreamCaptureStatus@@PEA_K@Z 0000000180010880 f   cudart_static:cuda_runtime_api.obj
 0001:0000fa20       ?cudaApiStreamGetCaptureInfo_ptsz@cudart@@YA?AW4cudaError@@PEAUCUstream_st@@PEAW4cudaStreamCaptureStatus@@PEA_K@Z 0000000180010a20 f   cudart_static:cuda_runtime_api.obj
 0001:0000faf0       ?cudaApiStreamGetFlags@cudart@@YA?AW4cudaError@@PEAUCUstream_st@@PEAI@Z 0000000180010af0 f   cudart_static:cuda_runtime_api.obj
 0001:0000fc10       ?cudaApiStreamGetFlags_ptsz@cudart@@YA?AW4cudaError@@PEAUCUstream_st@@PEAI@Z 0000000180010c10 f   cudart_static:cuda_runtime_api.obj
 0001:0000fca0       ?cudaApiStreamGetPriority@cudart@@YA?AW4cudaError@@PEAUCUstream_st@@PEAH@Z 0000000180010ca0 f   cudart_static:cuda_runtime_api.obj
 0001:0000fdc0       ?cudaApiStreamGetPriority_ptsz@cudart@@YA?AW4cudaError@@PEAUCUstream_st@@PEAH@Z 0000000180010dc0 f   cudart_static:cuda_runtime_api.obj
 0001:0000fe50       ?cudaApiStreamIsCapturing@cudart@@YA?AW4cudaError@@PEAUCUstream_st@@PEAW4cudaStreamCaptureStatus@@@Z 0000000180010e50 f   cudart_static:cuda_runtime_api.obj
 0001:0000ff60       ?cudaApiStreamIsCapturing_ptsz@cudart@@YA?AW4cudaError@@PEAUCUstream_st@@PEAW4cudaStreamCaptureStatus@@@Z 0000000180010f60 f   cudart_static:cuda_runtime_api.obj
 0001:0000ff80       ?cudaApiStreamQuery@cudart@@YA?AW4cudaError@@PEAUCUstream_st@@@Z 0000000180010f80 f   cudart_static:cuda_runtime_api.obj
 0001:000100c0       ?cudaApiStreamQuery_ptsz@cudart@@YA?AW4cudaError@@PEAUCUstream_st@@@Z 00000001800110c0 f   cudart_static:cuda_runtime_api.obj
 0001:00010150       ?cudaApiStreamSetAttribute@cudart@@YA?AW4cudaError@@PEAUCUstream_st@@W4cudaStreamAttrID@@PEBTcudaStreamAttrValue@@@Z 0000000180011150 f   cudart_static:cuda_runtime_api.obj
 0001:00010300       ?cudaApiStreamSetAttribute_ptsz@cudart@@YA?AW4cudaError@@PEAUCUstream_st@@W4cudaStreamAttrID@@PEBTcudaStreamAttrValue@@@Z 0000000180011300 f   cudart_static:cuda_runtime_api.obj
 0001:00010320       ?cudaApiStreamSynchronize@cudart@@YA?AW4cudaError@@PEAUCUstream_st@@@Z 0000000180011320 f   cudart_static:cuda_runtime_api.obj
 0001:00010390       ?cudaApiStreamSynchronize_ptsz@cudart@@YA?AW4cudaError@@PEAUCUstream_st@@@Z 0000000180011390 f   cudart_static:cuda_runtime_api.obj
 0001:00010400       ?cudaApiStreamWaitEvent@cudart@@YA?AW4cudaError@@PEAUCUstream_st@@PEAUCUevent_st@@I@Z 0000000180011400 f   cudart_static:cuda_runtime_api.obj
 0001:00010490       ?cudaApiStreamWaitEvent_ptsz@cudart@@YA?AW4cudaError@@PEAUCUstream_st@@PEAUCUevent_st@@I@Z 0000000180011490 f   cudart_static:cuda_runtime_api.obj
 0001:00010520       ?cudaApiThreadExchangeStreamCaptureMode@cudart@@YA?AW4cudaError@@PEAW4cudaStreamCaptureMode@@@Z 0000000180011520 f   cudart_static:cuda_runtime_api.obj
 0001:00010590       ?cudaApiThreadExit@cudart@@YA?AW4cudaError@@XZ 0000000180011590 f   cudart_static:cuda_runtime_api.obj
 0001:00010670       ?cudaApiThreadGetCacheConfig@cudart@@YA?AW4cudaError@@PEAW4cudaFuncCache@@@Z 0000000180011670 f   cudart_static:cuda_runtime_api.obj
 0001:000106e0       ?cudaApiThreadGetLimit@cudart@@YA?AW4cudaError@@PEA_KW4cudaLimit@@@Z 00000001800116e0 f   cudart_static:cuda_runtime_api.obj
 0001:00010770       ?cudaApiThreadSetCacheConfig@cudart@@YA?AW4cudaError@@W4cudaFuncCache@@@Z 0000000180011770 f   cudart_static:cuda_runtime_api.obj
 0001:000107e0       ?cudaApiThreadSetLimit@cudart@@YA?AW4cudaError@@W4cudaLimit@@_K@Z 00000001800117e0 f   cudart_static:cuda_runtime_api.obj
 0001:00010870       ?cudaApiThreadSynchronize@cudart@@YA?AW4cudaError@@XZ 0000000180011870 f   cudart_static:cuda_runtime_api.obj
 0001:000108d0       ?cudaApiUnbindTexture@cudart@@YA?AW4cudaError@@PEBUtextureReference@@@Z 00000001800118d0 f   cudart_static:cuda_runtime_api.obj
 0001:00010950       ?cudaApiWGLGetDevice@cudart@@YA?AW4cudaError@@PEAHPEAX@Z 0000000180011950 f   cudart_static:cuda_runtime_api.obj
 0001:000109a0       ?cudaApiWaitExternalSemaphoresAsync@cudart@@YA?AW4cudaError@@PEBQEAUCUexternalSemaphore_st@@PEBUcudaExternalSemaphoreWaitParams_v1@@IPEAUCUstream_st@@@Z 00000001800119a0 f   cudart_static:cuda_runtime_api.obj
 0001:00010be0       ?cudaApiWaitExternalSemaphoresAsync_ptsz@cudart@@YA?AW4cudaError@@PEBQEAUCUexternalSemaphore_st@@PEBUcudaExternalSemaphoreWaitParams_v1@@IPEAUCUstream_st@@@Z 0000000180011be0 f   cudart_static:cuda_runtime_api.obj
 0001:00010c00       ?cudaApiWaitExternalSemaphoresAsync_v2@cudart@@YA?AW4cudaError@@PEBQEAUCUexternalSemaphore_st@@PEBUcudaExternalSemaphoreWaitParams@@IPEAUCUstream_st@@@Z 0000000180011c00 f   cudart_static:cuda_runtime_api.obj
 0001:00010ca0       ?cudaApiWaitExternalSemaphoresAsync_v2_ptsz@cudart@@YA?AW4cudaError@@PEBQEAUCUexternalSemaphore_st@@PEBUcudaExternalSemaphoreWaitParams@@IPEAUCUstream_st@@@Z 0000000180011ca0 f   cudart_static:cuda_runtime_api.obj
 0001:00010da0       ?getContextStateManager@globalState@cudart@@QEAAPEAVcontextStateManager@2@XZ 0000000180011da0 f i cudart_static:cuda_runtime_api.obj
 0001:00010db0       ?getCtxStateMgr@cudart@@YAPEAVcontextStateManager@1@XZ 0000000180011db0 f i cudart_static:cuda_runtime_api.obj
 0001:00010dd0       ?getCudaVersion@globalState@cudart@@QEAAHXZ 0000000180011dd0 f i cudart_static:cuda_runtime_api.obj
 0001:00010de0       ?getCudartError@cudart@@YA?AW4cudaError@@W4cudaError_enum@@@Z 0000000180011de0 f   cudart_static:cuda_runtime_api.obj
 0001:00010df0       ?getCudartEtbl@globalState@cudart@@QEAAPEAUCUetblCudartInterface_st@@XZ 0000000180011df0 f i cudart_static:cuda_runtime_api.obj
 0001:00010e00       ?getDeviceCount@deviceMgr@cudart@@QEBAHXZ 0000000180011e00 f i cudart_static:cuda_runtime_api.obj
 0001:00010e10       ?getDeviceMgr@cudart@@YAPEAVdeviceMgr@1@XZ 0000000180011e10 f i cudart_static:cuda_runtime_api.obj
 0001:00010e30       ?getDeviceMgr@globalState@cudart@@QEAAPEAVdeviceMgr@2@XZ 0000000180011e30 f i cudart_static:cuda_runtime_api.obj
 0001:00010e40       ?getDriverContext@contextState@cudart@@QEAAPEAUCUctx_st@@XZ 0000000180011e40 f i cudart_static:cuda_runtime_api.obj
 0001:00010e50       ?getLaunchState@threadState@cudart@@QEAAPEAUthreadLaunchState@2@XZ 0000000180011e50 f i cudart_static:cuda_runtime_api.obj
 0001:00010e60       ?getRequestedDevice@threadState@cudart@@QEAAHXZ 0000000180011e60 f i cudart_static:cuda_runtime_api.obj
 0001:00010e70       ?hasInitializedDriver@globalState@cudart@@QEAA_NXZ 0000000180011e70 f i cudart_static:cuda_runtime_api.obj
 0001:00010e80       ?init@contextStateAuto@cudart@@QEAA?AW4cudaError@@XZ 0000000180011e80 f i cudart_static:cuda_runtime_api.obj
 0001:00010eb0       ?setRequestedDevice@threadState@cudart@@QEAAXH@Z 0000000180011eb0 f i cudart_static:cuda_runtime_api.obj
 0001:00010ec0       ?toCudartGraphExecUpdateResult@cudart@@YAXW4CUgraphExecUpdateResult_enum@@PEAW4cudaGraphExecUpdateResult@@@Z 0000000180011ec0 f   cudart_static:cuda_runtime_api.obj
 0001:00010f40       ?toCudartGraphNodeType@cudart@@YA?AW4cudaError@@W4CUgraphNodeType_enum@@PEAW4cudaGraphNodeType@@@Z 0000000180011f40 f   cudart_static:cuda_runtime_api.obj
 0001:00010fd0       ?toDriverHostNodeParams@cudart@@YAXPEBUcudaHostNodeParams@@PEAUCUDA_HOST_NODE_PARAMS_st@@@Z 0000000180011fd0 f   cudart_static:cuda_runtime_api.obj
 0001:00010fe0       ?toDriverKernelNodeParams@cudart@@YA?AW4cudaError@@PEBUcudaKernelNodeParams@@PEAUCUDA_KERNEL_NODE_PARAMS_st@@@Z 0000000180011fe0 f   cudart_static:cuda_runtime_api.obj
 0001:00011070       ?toDriverMemsetNodeParams@cudart@@YAXPEBUcudaMemsetParams@@PEAUCUDA_MEMSET_NODE_PARAMS_st@@@Z 0000000180012070 f   cudart_static:cuda_runtime_api.obj
 0001:000110a0       ?toRuntimeHostNodeParams@cudart@@YAXPEBUCUDA_HOST_NODE_PARAMS_st@@PEAUcudaHostNodeParams@@@Z 00000001800120a0 f   cudart_static:cuda_runtime_api.obj
 0001:000110b0       ?toRuntimeKernelNodeParams@cudart@@YA?AW4cudaError@@PEBUCUDA_KERNEL_NODE_PARAMS_st@@PEAUcudaKernelNodeParams@@@Z 00000001800120b0 f   cudart_static:cuda_runtime_api.obj
 0001:00011130       ?toRuntimeMemsetNodeParams@cudart@@YAXPEBUCUDA_MEMSET_NODE_PARAMS_st@@PEAUcudaMemsetParams@@@Z 0000000180012130 f   cudart_static:cuda_runtime_api.obj
 0001:00011160       ?toRuntimeStreamCaptureStatus@cudart@@YA?AW4cudaError@@W4CUstreamCaptureStatus_enum@@PEAW4cudaStreamCaptureStatus@@@Z 0000000180012160 f   cudart_static:cuda_runtime_api.obj
 0001:00011190       ?toolsInternalCallbackEnabled@globalState@cudart@@QEAAKK@Z 0000000180012190 f i cudart_static:cuda_runtime_api.obj
 0001:000111a0       ?toolsInternalIssueCallback@globalState@cudart@@QEAAXKPEBX@Z 00000001800121a0 f i cudart_static:cuda_runtime_api.obj
 0001:000111d0       __cudaInitModule           00000001800121d0 f   cudart_static:cuda_runtime_api.obj
 0001:000112a0       __cudaPopCallConfiguration 00000001800122a0 f   cudart_static:cuda_runtime_api.obj
 0001:00011380       __cudaPushCallConfiguration 0000000180012380 f   cudart_static:cuda_runtime_api.obj
 0001:00011450       __cudaRegisterFatBinary    0000000180012450 f   cudart_static:cuda_runtime_api.obj
 0001:000114a0       __cudaRegisterFatBinaryEnd 00000001800124a0 f   cudart_static:cuda_runtime_api.obj
 0001:000114e0       __cudaRegisterFunction     00000001800124e0 f   cudart_static:cuda_runtime_api.obj
 0001:00011590       __cudaRegisterHostVar      0000000180012590 f   cudart_static:cuda_runtime_api.obj
 0001:000115f0       __cudaRegisterManagedVar   00000001800125f0 f   cudart_static:cuda_runtime_api.obj
 0001:000116a0       __cudaRegisterSurface      00000001800126a0 f   cudart_static:cuda_runtime_api.obj
 0001:00011720       __cudaRegisterTexture      0000000180012720 f   cudart_static:cuda_runtime_api.obj
 0001:000117b0       __cudaRegisterVar          00000001800127b0 f   cudart_static:cuda_runtime_api.obj
 0001:00011860       __cudaUnregisterFatBinary  0000000180012860 f   cudart_static:cuda_runtime_api.obj
 0001:000118a0       cudaGetExportTable         00000001800128a0 f   cudart_static:cuda_runtime_api.obj
 0001:000118f0       ??0cudaLaunchCooperativeKernel_ptsz_v9000_params_st@@QEAA@XZ 00000001800128f0 f i cudart_static:generated_cuda_runtime_api.obj
 0001:00011920       ??0cudaLaunchCooperativeKernel_v9000_params_st@@QEAA@XZ 0000000180012920 f i cudart_static:generated_cuda_runtime_api.obj
 0001:00011950       ??0cudaLaunchKernel_ptsz_v7000_params_st@@QEAA@XZ 0000000180012950 f i cudart_static:generated_cuda_runtime_api.obj
 0001:00011980       ??0cudaLaunchKernel_v7000_params_st@@QEAA@XZ 0000000180012980 f i cudart_static:generated_cuda_runtime_api.obj
 0001:000119b0       ?toolsCallbackEnabled@globalState@cudart@@QEAAKK@Z 00000001800129b0 f i cudart_static:generated_cuda_runtime_api.obj
 0001:000119c0       ?toolsGetContextId@globalState@cudart@@QEAA?AW4cudaError_enum@@PEAUCUctx_st@@PEA_K@Z 00000001800129c0 f i cudart_static:generated_cuda_runtime_api.obj
 0001:000119f0       ?toolsGetCurrentContext@globalState@cudart@@QEAAXPEAPEAUCUctx_st@@@Z 00000001800129f0 f i cudart_static:generated_cuda_runtime_api.obj
 0001:00011a10       ?toolsGetStreamId@globalState@cudart@@QEAA?AW4cudaError_enum@@PEAUCUctx_st@@PEAUCUstream_st@@PEA_K@Z 0000000180012a10 f i cudart_static:generated_cuda_runtime_api.obj
 0001:00011a40       ?toolsIssueCallback@globalState@cudart@@QEAAXKPEBX@Z 0000000180012a40 f i cudart_static:generated_cuda_runtime_api.obj
 0001:00011a70       cudaArrayGetInfo           0000000180012a70 f   cudart_static:generated_cuda_runtime_api.obj
 0001:00011bf0       cudaArrayGetPlane          0000000180012bf0 f   cudart_static:generated_cuda_runtime_api.obj
 0001:00011d60       cudaArrayGetSparseProperties 0000000180012d60 f   cudart_static:generated_cuda_runtime_api.obj
 0001:00011eb0       cudaBindSurfaceToArray     0000000180012eb0 f   cudart_static:generated_cuda_runtime_api.obj
 0001:00012020       cudaBindTexture            0000000180013020 f   cudart_static:generated_cuda_runtime_api.obj
 0001:000121c0       cudaBindTexture2D          00000001800131c0 f   cudart_static:generated_cuda_runtime_api.obj
 0001:000123a0       cudaBindTextureToArray     00000001800133a0 f   cudart_static:generated_cuda_runtime_api.obj
 0001:00012510       cudaBindTextureToMipmappedArray 0000000180013510 f   cudart_static:generated_cuda_runtime_api.obj
 0001:00012680       cudaChooseDevice           0000000180013680 f   cudart_static:generated_cuda_runtime_api.obj
 0001:000127d0       cudaCreateChannelDesc      00000001800137d0 f   cudart_static:generated_cuda_runtime_api.obj
 0001:000129a0       cudaCreateSurfaceObject    00000001800139a0 f   cudart_static:generated_cuda_runtime_api.obj
 0001:00012af0       cudaCreateTextureObject    0000000180013af0 f   cudart_static:generated_cuda_runtime_api.obj
 0001:00012c70       cudaCtxResetPersistingL2Cache 0000000180013c70 f   cudart_static:generated_cuda_runtime_api.obj
 0001:00012da0       cudaDestroyExternalMemory  0000000180013da0 f   cudart_static:generated_cuda_runtime_api.obj
 0001:00012ee0       cudaDestroyExternalSemaphore 0000000180013ee0 f   cudart_static:generated_cuda_runtime_api.obj
 0001:00013020       cudaDestroySurfaceObject   0000000180014020 f   cudart_static:generated_cuda_runtime_api.obj
 0001:00013160       cudaDestroyTextureObject   0000000180014160 f   cudart_static:generated_cuda_runtime_api.obj
 0001:000132a0       cudaDeviceCanAccessPeer    00000001800142a0 f   cudart_static:generated_cuda_runtime_api.obj
 0001:00013400       cudaDeviceDisablePeerAccess 0000000180014400 f   cudart_static:generated_cuda_runtime_api.obj
 0001:00013530       cudaDeviceEnablePeerAccess 0000000180014530 f   cudart_static:generated_cuda_runtime_api.obj
 0001:00013680       cudaDeviceGetAttribute     0000000180014680 f   cudart_static:generated_cuda_runtime_api.obj
 0001:000137e0       cudaDeviceGetByPCIBusId    00000001800147e0 f   cudart_static:generated_cuda_runtime_api.obj
 0001:00013930       cudaDeviceGetCacheConfig   0000000180014930 f   cudart_static:generated_cuda_runtime_api.obj
 0001:00013a70       cudaDeviceGetDefaultMemPool 0000000180014a70 f   cudart_static:generated_cuda_runtime_api.obj
 0001:00013bc0       cudaDeviceGetLimit         0000000180014bc0 f   cudart_static:generated_cuda_runtime_api.obj
 0001:00013d10       cudaDeviceGetMemPool       0000000180014d10 f   cudart_static:generated_cuda_runtime_api.obj
 0001:00013e60       cudaDeviceGetNvSciSyncAttributes 0000000180014e60 f   cudart_static:generated_cuda_runtime_api.obj
 0001:00013fc0       cudaDeviceGetP2PAttribute  0000000180014fc0 f   cudart_static:generated_cuda_runtime_api.obj
 0001:00014140       cudaDeviceGetPCIBusId      0000000180015140 f   cudart_static:generated_cuda_runtime_api.obj
 0001:000142a0       cudaDeviceGetSharedMemConfig 00000001800152a0 f   cudart_static:generated_cuda_runtime_api.obj
 0001:000143e0       cudaDeviceGetStreamPriorityRange 00000001800153e0 f   cudart_static:generated_cuda_runtime_api.obj
 0001:00014530       cudaDeviceGetTexture1DLinearMaxWidth 0000000180015530 f   cudart_static:generated_cuda_runtime_api.obj
 0001:000146a0       cudaDeviceReset            00000001800156a0 f   cudart_static:generated_cuda_runtime_api.obj
 0001:000147d0       cudaDeviceSetCacheConfig   00000001800157d0 f   cudart_static:generated_cuda_runtime_api.obj
 0001:00014900       cudaDeviceSetLimit         0000000180015900 f   cudart_static:generated_cuda_runtime_api.obj
 0001:00014a70       cudaDeviceSetMemPool       0000000180015a70 f   cudart_static:generated_cuda_runtime_api.obj
 0001:00014bc0       cudaDeviceSetSharedMemConfig 0000000180015bc0 f   cudart_static:generated_cuda_runtime_api.obj
 0001:00014cf0       cudaDeviceSynchronize      0000000180015cf0 f   cudart_static:generated_cuda_runtime_api.obj
 0001:00014e20       cudaDriverGetVersion       0000000180015e20 f   cudart_static:generated_cuda_runtime_api.obj
 0001:00014f50       cudaEventCreate            0000000180015f50 f   cudart_static:generated_cuda_runtime_api.obj
 0001:00015090       cudaEventCreateWithFlags   0000000180016090 f   cudart_static:generated_cuda_runtime_api.obj
 0001:000151e0       cudaEventDestroy           00000001800161e0 f   cudart_static:generated_cuda_runtime_api.obj
 0001:00015320       cudaEventElapsedTime       0000000180016320 f   cudart_static:generated_cuda_runtime_api.obj
 0001:00015490       cudaEventQuery             0000000180016490 f   cudart_static:generated_cuda_runtime_api.obj
 0001:000155d0       cudaEventRecord            00000001800165d0 f   cudart_static:generated_cuda_runtime_api.obj
 0001:00015740       cudaEventRecordWithFlags   0000000180016740 f   cudart_static:generated_cuda_runtime_api.obj
 0001:000158d0       cudaEventRecordWithFlags_ptsz 00000001800168d0 f   cudart_static:generated_cuda_runtime_api.obj
 0001:00015a60       cudaEventRecord_ptsz       0000000180016a60 f   cudart_static:generated_cuda_runtime_api.obj
 0001:00015bd0       cudaEventSynchronize       0000000180016bd0 f   cudart_static:generated_cuda_runtime_api.obj
 0001:00015d10       cudaExternalMemoryGetMappedBuffer 0000000180016d10 f   cudart_static:generated_cuda_runtime_api.obj
 0001:00015e80       cudaExternalMemoryGetMappedMipmappedArray 0000000180016e80 f   cudart_static:generated_cuda_runtime_api.obj
 0001:00015ff0       cudaFree                   0000000180016ff0 f   cudart_static:generated_cuda_runtime_api.obj
 0001:00016120       cudaFreeArray              0000000180017120 f   cudart_static:generated_cuda_runtime_api.obj
 0001:00016250       cudaFreeAsync              0000000180017250 f   cudart_static:generated_cuda_runtime_api.obj
 0001:000163a0       cudaFreeAsync_ptsz         00000001800173a0 f   cudart_static:generated_cuda_runtime_api.obj
 0001:000164f0       cudaFreeHost               00000001800174f0 f   cudart_static:generated_cuda_runtime_api.obj
 0001:00016620       cudaFreeMipmappedArray     0000000180017620 f   cudart_static:generated_cuda_runtime_api.obj
 0001:00016760       cudaFuncGetAttributes      0000000180017760 f   cudart_static:generated_cuda_runtime_api.obj
 0001:000168b0       cudaFuncSetAttribute       00000001800178b0 f   cudart_static:generated_cuda_runtime_api.obj
 0001:00016a10       cudaFuncSetCacheConfig     0000000180017a10 f   cudart_static:generated_cuda_runtime_api.obj
 0001:00016b60       cudaFuncSetSharedMemConfig 0000000180017b60 f   cudart_static:generated_cuda_runtime_api.obj
 0001:00016cb0       cudaGetChannelDesc         0000000180017cb0 f   cudart_static:generated_cuda_runtime_api.obj
 0001:00016e00       cudaGetDevice              0000000180017e00 f   cudart_static:generated_cuda_runtime_api.obj
 0001:00016f30       cudaGetDeviceCount         0000000180017f30 f   cudart_static:generated_cuda_runtime_api.obj
 0001:00017060       cudaGetDeviceFlags         0000000180018060 f   cudart_static:generated_cuda_runtime_api.obj
 0001:000171a0       cudaGetDeviceProperties    00000001800181a0 f   cudart_static:generated_cuda_runtime_api.obj
 0001:000172f0       cudaGetErrorName           00000001800182f0 f   cudart_static:generated_cuda_runtime_api.obj
 0001:00017420       cudaGetErrorString         0000000180018420 f   cudart_static:generated_cuda_runtime_api.obj
 0001:00017550       cudaGetFuncBySymbol        0000000180018550 f   cudart_static:generated_cuda_runtime_api.obj
 0001:000176a0       cudaGetLastError           00000001800186a0 f   cudart_static:generated_cuda_runtime_api.obj
 0001:000177c0       cudaGetMipmappedArrayLevel 00000001800187c0 f   cudart_static:generated_cuda_runtime_api.obj
 0001:00017930       cudaGetSurfaceObjectResourceDesc 0000000180018930 f   cudart_static:generated_cuda_runtime_api.obj
 0001:00017a80       cudaGetSurfaceReference    0000000180018a80 f   cudart_static:generated_cuda_runtime_api.obj
 0001:00017bd0       cudaGetSymbolAddress       0000000180018bd0 f   cudart_static:generated_cuda_runtime_api.obj
 0001:00017d20       cudaGetSymbolSize          0000000180018d20 f   cudart_static:generated_cuda_runtime_api.obj
 0001:00017e70       cudaGetTextureAlignmentOffset 0000000180018e70 f   cudart_static:generated_cuda_runtime_api.obj
 0001:00017fc0       cudaGetTextureObjectResourceDesc 0000000180018fc0 f   cudart_static:generated_cuda_runtime_api.obj
 0001:00018110       cudaGetTextureObjectResourceViewDesc 0000000180019110 f   cudart_static:generated_cuda_runtime_api.obj
 0001:00018260       cudaGetTextureObjectTextureDesc 0000000180019260 f   cudart_static:generated_cuda_runtime_api.obj
 0001:000183b0       cudaGetTextureReference    00000001800193b0 f   cudart_static:generated_cuda_runtime_api.obj
 0001:00018500       cudaGraphAddChildGraphNode 0000000180019500 f   cudart_static:generated_cuda_runtime_api.obj
 0001:000186a0       cudaGraphAddDependencies   00000001800196a0 f   cudart_static:generated_cuda_runtime_api.obj
 0001:00018820       cudaGraphAddEmptyNode      0000000180019820 f   cudart_static:generated_cuda_runtime_api.obj
 0001:000189a0       cudaGraphAddEventRecordNode 00000001800199a0 f   cudart_static:generated_cuda_runtime_api.obj
 0001:00018b40       cudaGraphAddEventWaitNode  0000000180019b40 f   cudart_static:generated_cuda_runtime_api.obj
 0001:00018ce0       cudaGraphAddExternalSemaphoresSignalNode 0000000180019ce0 f   cudart_static:generated_cuda_runtime_api.obj
 0001:00018e80       cudaGraphAddExternalSemaphoresWaitNode 0000000180019e80 f   cudart_static:generated_cuda_runtime_api.obj
 0001:00019020       cudaGraphAddHostNode       000000018001a020 f   cudart_static:generated_cuda_runtime_api.obj
 0001:000191c0       cudaGraphAddKernelNode     000000018001a1c0 f   cudart_static:generated_cuda_runtime_api.obj
 0001:00019360       cudaGraphAddMemcpyNode     000000018001a360 f   cudart_static:generated_cuda_runtime_api.obj
 0001:00019500       cudaGraphAddMemcpyNode1D   000000018001a500 f   cudart_static:generated_cuda_runtime_api.obj
 0001:00019720       cudaGraphAddMemcpyNodeFromSymbol 000000018001a720 f   cudart_static:generated_cuda_runtime_api.obj
 0001:00019960       cudaGraphAddMemcpyNodeToSymbol 000000018001a960 f   cudart_static:generated_cuda_runtime_api.obj
 0001:00019ba0       cudaGraphAddMemsetNode     000000018001aba0 f   cudart_static:generated_cuda_runtime_api.obj
 0001:00019d40       cudaGraphChildGraphNodeGetGraph 000000018001ad40 f   cudart_static:generated_cuda_runtime_api.obj
 0001:00019e90       cudaGraphClone             000000018001ae90 f   cudart_static:generated_cuda_runtime_api.obj
 0001:00019fe0       cudaGraphCreate            000000018001afe0 f   cudart_static:generated_cuda_runtime_api.obj
 0001:0001a130       cudaGraphDestroy           000000018001b130 f   cudart_static:generated_cuda_runtime_api.obj
 0001:0001a270       cudaGraphDestroyNode       000000018001b270 f   cudart_static:generated_cuda_runtime_api.obj
 0001:0001a3b0       cudaGraphEventRecordNodeGetEvent 000000018001b3b0 f   cudart_static:generated_cuda_runtime_api.obj
 0001:0001a500       cudaGraphEventRecordNodeSetEvent 000000018001b500 f   cudart_static:generated_cuda_runtime_api.obj
 0001:0001a650       cudaGraphEventWaitNodeGetEvent 000000018001b650 f   cudart_static:generated_cuda_runtime_api.obj
 0001:0001a7a0       cudaGraphEventWaitNodeSetEvent 000000018001b7a0 f   cudart_static:generated_cuda_runtime_api.obj
 0001:0001a8f0       cudaGraphExecChildGraphNodeSetParams 000000018001b8f0 f   cudart_static:generated_cuda_runtime_api.obj
 0001:0001aa60       cudaGraphExecDestroy       000000018001ba60 f   cudart_static:generated_cuda_runtime_api.obj
 0001:0001aba0       cudaGraphExecEventRecordNodeSetEvent 000000018001bba0 f   cudart_static:generated_cuda_runtime_api.obj
 0001:0001ad10       cudaGraphExecEventWaitNodeSetEvent 000000018001bd10 f   cudart_static:generated_cuda_runtime_api.obj
 0001:0001ae80       cudaGraphExecExternalSemaphoresSignalNodeSetParams 000000018001be80 f   cudart_static:generated_cuda_runtime_api.obj
 0001:0001aff0       cudaGraphExecExternalSemaphoresWaitNodeSetParams 000000018001bff0 f   cudart_static:generated_cuda_runtime_api.obj
 0001:0001b160       cudaGraphExecHostNodeSetParams 000000018001c160 f   cudart_static:generated_cuda_runtime_api.obj
 0001:0001b2d0       cudaGraphExecKernelNodeSetParams 000000018001c2d0 f   cudart_static:generated_cuda_runtime_api.obj
 0001:0001b440       cudaGraphExecMemcpyNodeSetParams 000000018001c440 f   cudart_static:generated_cuda_runtime_api.obj
 0001:0001b5b0       cudaGraphExecMemcpyNodeSetParams1D 000000018001c5b0 f   cudart_static:generated_cuda_runtime_api.obj
 0001:0001b770       cudaGraphExecMemcpyNodeSetParamsFromSymbol 000000018001c770 f   cudart_static:generated_cuda_runtime_api.obj
 0001:0001b950       cudaGraphExecMemcpyNodeSetParamsToSymbol 000000018001c950 f   cudart_static:generated_cuda_runtime_api.obj
 0001:0001bb30       cudaGraphExecMemsetNodeSetParams 000000018001cb30 f   cudart_static:generated_cuda_runtime_api.obj
 0001:0001bca0       cudaGraphExecUpdate        000000018001cca0 f   cudart_static:generated_cuda_runtime_api.obj
 0001:0001be20       cudaGraphExternalSemaphoresSignalNodeGetParams 000000018001ce20 f   cudart_static:generated_cuda_runtime_api.obj
 0001:0001bf70       cudaGraphExternalSemaphoresSignalNodeSetParams 000000018001cf70 f   cudart_static:generated_cuda_runtime_api.obj
 0001:0001c0c0       cudaGraphExternalSemaphoresWaitNodeGetParams 000000018001d0c0 f   cudart_static:generated_cuda_runtime_api.obj
 0001:0001c210       cudaGraphExternalSemaphoresWaitNodeSetParams 000000018001d210 f   cudart_static:generated_cuda_runtime_api.obj
 0001:0001c360       cudaGraphGetEdges          000000018001d360 f   cudart_static:generated_cuda_runtime_api.obj
 0001:0001c4e0       cudaGraphGetNodes          000000018001d4e0 f   cudart_static:generated_cuda_runtime_api.obj
 0001:0001c650       cudaGraphGetRootNodes      000000018001d650 f   cudart_static:generated_cuda_runtime_api.obj
 0001:0001c7c0       cudaGraphHostNodeGetParams 000000018001d7c0 f   cudart_static:generated_cuda_runtime_api.obj
 0001:0001c910       cudaGraphHostNodeSetParams 000000018001d910 f   cudart_static:generated_cuda_runtime_api.obj
 0001:0001ca60       cudaGraphInstantiate       000000018001da60 f   cudart_static:generated_cuda_runtime_api.obj
 0001:0001cc00       cudaGraphKernelNodeCopyAttributes 000000018001dc00 f   cudart_static:generated_cuda_runtime_api.obj
 0001:0001cd50       cudaGraphKernelNodeGetAttribute 000000018001dd50 f   cudart_static:generated_cuda_runtime_api.obj
 0001:0001cec0       cudaGraphKernelNodeGetParams 000000018001dec0 f   cudart_static:generated_cuda_runtime_api.obj
 0001:0001d010       cudaGraphKernelNodeSetAttribute 000000018001e010 f   cudart_static:generated_cuda_runtime_api.obj
 0001:0001d180       cudaGraphKernelNodeSetParams 000000018001e180 f   cudart_static:generated_cuda_runtime_api.obj
 0001:0001d2d0       cudaGraphLaunch            000000018001e2d0 f   cudart_static:generated_cuda_runtime_api.obj
 0001:0001d440       cudaGraphLaunch_ptsz       000000018001e440 f   cudart_static:generated_cuda_runtime_api.obj
 0001:0001d5b0       cudaGraphMemcpyNodeGetParams 000000018001e5b0 f   cudart_static:generated_cuda_runtime_api.obj
 0001:0001d700       cudaGraphMemcpyNodeSetParams 000000018001e700 f   cudart_static:generated_cuda_runtime_api.obj
 0001:0001d850       cudaGraphMemcpyNodeSetParams1D 000000018001e850 f   cudart_static:generated_cuda_runtime_api.obj
 0001:0001d9f0       cudaGraphMemcpyNodeSetParamsFromSymbol 000000018001e9f0 f   cudart_static:generated_cuda_runtime_api.obj
 0001:0001dbb0       cudaGraphMemcpyNodeSetParamsToSymbol 000000018001ebb0 f   cudart_static:generated_cuda_runtime_api.obj
 0001:0001dd70       cudaGraphMemsetNodeGetParams 000000018001ed70 f   cudart_static:generated_cuda_runtime_api.obj
 0001:0001dec0       cudaGraphMemsetNodeSetParams 000000018001eec0 f   cudart_static:generated_cuda_runtime_api.obj
 0001:0001e010       cudaGraphNodeFindInClone   000000018001f010 f   cudart_static:generated_cuda_runtime_api.obj
 0001:0001e180       cudaGraphNodeGetDependencies 000000018001f180 f   cudart_static:generated_cuda_runtime_api.obj
 0001:0001e2f0       cudaGraphNodeGetDependentNodes 000000018001f2f0 f   cudart_static:generated_cuda_runtime_api.obj
 0001:0001e460       cudaGraphNodeGetType       000000018001f460 f   cudart_static:generated_cuda_runtime_api.obj
 0001:0001e5b0       cudaGraphRemoveDependencies 000000018001f5b0 f   cudart_static:generated_cuda_runtime_api.obj
 0001:0001e730       cudaGraphUpload            000000018001f730 f   cudart_static:generated_cuda_runtime_api.obj
 0001:0001e8a0       cudaGraphUpload_ptsz       000000018001f8a0 f   cudart_static:generated_cuda_runtime_api.obj
 0001:0001ea10       cudaGraphicsMapResources   000000018001fa10 f   cudart_static:generated_cuda_runtime_api.obj
 0001:0001eba0       cudaGraphicsResourceGetMappedMipmappedArray 000000018001fba0 f   cudart_static:generated_cuda_runtime_api.obj
 0001:0001ecf0       cudaGraphicsResourceGetMappedPointer 000000018001fcf0 f   cudart_static:generated_cuda_runtime_api.obj
 0001:0001ee60       cudaGraphicsResourceSetMapFlags 000000018001fe60 f   cudart_static:generated_cuda_runtime_api.obj
 0001:0001efb0       cudaGraphicsSubResourceGetMappedArray 000000018001ffb0 f   cudart_static:generated_cuda_runtime_api.obj
 0001:0001f130       cudaGraphicsUnmapResources 0000000180020130 f   cudart_static:generated_cuda_runtime_api.obj
 0001:0001f2c0       cudaGraphicsUnregisterResource 00000001800202c0 f   cudart_static:generated_cuda_runtime_api.obj
 0001:0001f3f0       cudaHostAlloc              00000001800203f0 f   cudart_static:generated_cuda_runtime_api.obj
 0001:0001f550       cudaHostGetDevicePointer   0000000180020550 f   cudart_static:generated_cuda_runtime_api.obj
 0001:0001f6b0       cudaHostGetFlags           00000001800206b0 f   cudart_static:generated_cuda_runtime_api.obj
 0001:0001f800       cudaHostRegister           0000000180020800 f   cudart_static:generated_cuda_runtime_api.obj
 0001:0001f970       cudaHostUnregister         0000000180020970 f   cudart_static:generated_cuda_runtime_api.obj
 0001:0001fab0       cudaImportExternalMemory   0000000180020ab0 f   cudart_static:generated_cuda_runtime_api.obj
 0001:0001fc00       cudaImportExternalSemaphore 0000000180020c00 f   cudart_static:generated_cuda_runtime_api.obj
 0001:0001fd50       cudaIpcCloseMemHandle      0000000180020d50 f   cudart_static:generated_cuda_runtime_api.obj
 0001:0001fe90       cudaIpcGetEventHandle      0000000180020e90 f   cudart_static:generated_cuda_runtime_api.obj
 0001:0001ffe0       cudaIpcGetMemHandle        0000000180020fe0 f   cudart_static:generated_cuda_runtime_api.obj
 0001:00020130       cudaIpcOpenEventHandle     0000000180021130 f   cudart_static:generated_cuda_runtime_api.obj
 0001:00020330       cudaIpcOpenMemHandle       0000000180021330 f   cudart_static:generated_cuda_runtime_api.obj
 0001:00020540       cudaLaunchCooperativeKernel 0000000180021540 f   cudart_static:generated_cuda_runtime_api.obj
 0001:000207d0       cudaLaunchCooperativeKernelMultiDevice 00000001800217d0 f   cudart_static:generated_cuda_runtime_api.obj
 0001:00020930       cudaLaunchCooperativeKernel_ptsz 0000000180021930 f   cudart_static:generated_cuda_runtime_api.obj
 0001:00020bc0       cudaLaunchHostFunc         0000000180021bc0 f   cudart_static:generated_cuda_runtime_api.obj
 0001:00020d50       cudaLaunchHostFunc_ptsz    0000000180021d50 f   cudart_static:generated_cuda_runtime_api.obj
 0001:00020ee0       cudaLaunchKernel           0000000180021ee0 f   cudart_static:generated_cuda_runtime_api.obj
 0001:00021170       cudaLaunchKernel_ptsz      0000000180022170 f   cudart_static:generated_cuda_runtime_api.obj
 0001:00021400       cudaMalloc                 0000000180022400 f   cudart_static:generated_cuda_runtime_api.obj
 0001:00021550       cudaMalloc3D               0000000180022550 f   cudart_static:generated_cuda_runtime_api.obj
 0001:00021710       cudaMalloc3DArray          0000000180022710 f   cudart_static:generated_cuda_runtime_api.obj
 0001:000218e0       cudaMallocArray            00000001800228e0 f   cudart_static:generated_cuda_runtime_api.obj
 0001:00021a80       cudaMallocAsync            0000000180022a80 f   cudart_static:generated_cuda_runtime_api.obj
 0001:00021bf0       cudaMallocAsync_ptsz       0000000180022bf0 f   cudart_static:generated_cuda_runtime_api.obj
 0001:00021d60       cudaMallocFromPoolAsync    0000000180022d60 f   cudart_static:generated_cuda_runtime_api.obj
 0001:00021f00       cudaMallocFromPoolAsync_ptsz 0000000180022f00 f   cudart_static:generated_cuda_runtime_api.obj
 0001:000220a0       cudaMallocHost             00000001800230a0 f   cudart_static:generated_cuda_runtime_api.obj
 0001:000221f0       cudaMallocManaged          00000001800231f0 f   cudart_static:generated_cuda_runtime_api.obj
 0001:00022360       cudaMallocMipmappedArray   0000000180023360 f   cudart_static:generated_cuda_runtime_api.obj
 0001:00022550       cudaMallocPitch            0000000180023550 f   cudart_static:generated_cuda_runtime_api.obj
 0001:000226d0       cudaMemAdvise              00000001800236d0 f   cudart_static:generated_cuda_runtime_api.obj
 0001:00022850       cudaMemGetInfo             0000000180023850 f   cudart_static:generated_cuda_runtime_api.obj
 0001:000229a0       cudaMemPoolCreate          00000001800239a0 f   cudart_static:generated_cuda_runtime_api.obj
 0001:00022af0       cudaMemPoolDestroy         0000000180023af0 f   cudart_static:generated_cuda_runtime_api.obj
 0001:00022c30       cudaMemPoolExportPointer   0000000180023c30 f   cudart_static:generated_cuda_runtime_api.obj
 0001:00022d80       cudaMemPoolExportToShareableHandle 0000000180023d80 f   cudart_static:generated_cuda_runtime_api.obj
 0001:00022f00       cudaMemPoolGetAccess       0000000180023f00 f   cudart_static:generated_cuda_runtime_api.obj
 0001:00023070       cudaMemPoolGetAttribute    0000000180024070 f   cudart_static:generated_cuda_runtime_api.obj
 0001:000231e0       cudaMemPoolImportFromShareableHandle 00000001800241e0 f   cudart_static:generated_cuda_runtime_api.obj
 0001:00023360       cudaMemPoolImportPointer   0000000180024360 f   cudart_static:generated_cuda_runtime_api.obj
 0001:000234d0       cudaMemPoolSetAccess       00000001800244d0 f   cudart_static:generated_cuda_runtime_api.obj
 0001:00023640       cudaMemPoolSetAttribute    0000000180024640 f   cudart_static:generated_cuda_runtime_api.obj
 0001:000237b0       cudaMemPoolTrimTo          00000001800247b0 f   cudart_static:generated_cuda_runtime_api.obj
 0001:00023900       cudaMemPrefetchAsync       0000000180024900 f   cudart_static:generated_cuda_runtime_api.obj
 0001:00023aa0       cudaMemPrefetchAsync_ptsz  0000000180024aa0 f   cudart_static:generated_cuda_runtime_api.obj
 0001:00023c40       cudaMemRangeGetAttribute   0000000180024c40 f   cudart_static:generated_cuda_runtime_api.obj
 0001:00023de0       cudaMemRangeGetAttributes  0000000180024de0 f   cudart_static:generated_cuda_runtime_api.obj
 0001:00023fa0       cudaMemcpy                 0000000180024fa0 f   cudart_static:generated_cuda_runtime_api.obj
 0001:00024120       cudaMemcpy2D               0000000180025120 f   cudart_static:generated_cuda_runtime_api.obj
 0001:00024300       cudaMemcpy2DArrayToArray   0000000180025300 f   cudart_static:generated_cuda_runtime_api.obj
 0001:00024540       cudaMemcpy2DArrayToArray_ptds 0000000180025540 f   cudart_static:generated_cuda_runtime_api.obj
 0001:00024780       cudaMemcpy2DAsync          0000000180025780 f   cudart_static:generated_cuda_runtime_api.obj
 0001:00024990       cudaMemcpy2DAsync_ptsz     0000000180025990 f   cudart_static:generated_cuda_runtime_api.obj
 0001:00024ba0       cudaMemcpy2DFromArray      0000000180025ba0 f   cudart_static:generated_cuda_runtime_api.obj
 0001:00024dc0       cudaMemcpy2DFromArrayAsync 0000000180025dc0 f   cudart_static:generated_cuda_runtime_api.obj
 0001:00025010       cudaMemcpy2DFromArrayAsync_ptsz 0000000180026010 f   cudart_static:generated_cuda_runtime_api.obj
 0001:00025260       cudaMemcpy2DFromArray_ptds 0000000180026260 f   cudart_static:generated_cuda_runtime_api.obj
 0001:00025480       cudaMemcpy2DToArray        0000000180026480 f   cudart_static:generated_cuda_runtime_api.obj
 0001:000256a0       cudaMemcpy2DToArrayAsync   00000001800266a0 f   cudart_static:generated_cuda_runtime_api.obj
 0001:000258f0       cudaMemcpy2DToArrayAsync_ptsz 00000001800268f0 f   cudart_static:generated_cuda_runtime_api.obj
 0001:00025b40       cudaMemcpy2DToArray_ptds   0000000180026b40 f   cudart_static:generated_cuda_runtime_api.obj
 0001:00025d60       cudaMemcpy2D_ptds          0000000180026d60 f   cudart_static:generated_cuda_runtime_api.obj
 0001:00025f40       cudaMemcpy3D               0000000180026f40 f   cudart_static:generated_cuda_runtime_api.obj
 0001:00026080       cudaMemcpy3DAsync          0000000180027080 f   cudart_static:generated_cuda_runtime_api.obj
 0001:000261f0       cudaMemcpy3DAsync_ptsz     00000001800271f0 f   cudart_static:generated_cuda_runtime_api.obj
 0001:00026360       cudaMemcpy3DPeer           0000000180027360 f   cudart_static:generated_cuda_runtime_api.obj
 0001:000264a0       cudaMemcpy3DPeerAsync      00000001800274a0 f   cudart_static:generated_cuda_runtime_api.obj
 0001:00026610       cudaMemcpy3DPeerAsync_ptsz 0000000180027610 f   cudart_static:generated_cuda_runtime_api.obj
 0001:00026780       cudaMemcpy3DPeer_ptds      0000000180027780 f   cudart_static:generated_cuda_runtime_api.obj
 0001:000268c0       cudaMemcpy3D_ptds          00000001800278c0 f   cudart_static:generated_cuda_runtime_api.obj
 0001:00026a00       cudaMemcpyArrayToArray     0000000180027a00 f   cudart_static:generated_cuda_runtime_api.obj
 0001:00026c20       cudaMemcpyArrayToArray_ptds 0000000180027c20 f   cudart_static:generated_cuda_runtime_api.obj
 0001:00026e40       cudaMemcpyAsync            0000000180027e40 f   cudart_static:generated_cuda_runtime_api.obj
 0001:00027000       cudaMemcpyAsync_ptsz       0000000180028000 f   cudart_static:generated_cuda_runtime_api.obj
 0001:000271c0       cudaMemcpyFromArray        00000001800281c0 f   cudart_static:generated_cuda_runtime_api.obj
 0001:00027380       cudaMemcpyFromArrayAsync   0000000180028380 f   cudart_static:generated_cuda_runtime_api.obj
 0001:00027580       cudaMemcpyFromArrayAsync_ptsz 0000000180028580 f   cudart_static:generated_cuda_runtime_api.obj
 0001:00027780       cudaMemcpyFromArray_ptds   0000000180028780 f   cudart_static:generated_cuda_runtime_api.obj
 0001:00027940       cudaMemcpyFromSymbol       0000000180028940 f   cudart_static:generated_cuda_runtime_api.obj
 0001:00027ae0       cudaMemcpyFromSymbolAsync  0000000180028ae0 f   cudart_static:generated_cuda_runtime_api.obj
 0001:00027cc0       cudaMemcpyFromSymbolAsync_ptsz 0000000180028cc0 f   cudart_static:generated_cuda_runtime_api.obj
 0001:00027ea0       cudaMemcpyFromSymbol_ptds  0000000180028ea0 f   cudart_static:generated_cuda_runtime_api.obj
 0001:00028040       cudaMemcpyPeer             0000000180029040 f   cudart_static:generated_cuda_runtime_api.obj
 0001:000281e0       cudaMemcpyPeerAsync        00000001800291e0 f   cudart_static:generated_cuda_runtime_api.obj
 0001:000283c0       cudaMemcpyToArray          00000001800293c0 f   cudart_static:generated_cuda_runtime_api.obj
 0001:00028580       cudaMemcpyToArrayAsync     0000000180029580 f   cudart_static:generated_cuda_runtime_api.obj
 0001:00028780       cudaMemcpyToArrayAsync_ptsz 0000000180029780 f   cudart_static:generated_cuda_runtime_api.obj
 0001:00028980       cudaMemcpyToArray_ptds     0000000180029980 f   cudart_static:generated_cuda_runtime_api.obj
 0001:00028b40       cudaMemcpyToSymbol         0000000180029b40 f   cudart_static:generated_cuda_runtime_api.obj
 0001:00028ce0       cudaMemcpyToSymbolAsync    0000000180029ce0 f   cudart_static:generated_cuda_runtime_api.obj
 0001:00028ec0       cudaMemcpyToSymbolAsync_ptsz 0000000180029ec0 f   cudart_static:generated_cuda_runtime_api.obj
 0001:000290a0       cudaMemcpyToSymbol_ptds    000000018002a0a0 f   cudart_static:generated_cuda_runtime_api.obj
 0001:00029240       cudaMemcpy_ptds            000000018002a240 f   cudart_static:generated_cuda_runtime_api.obj
 0001:000293c0       cudaMemset                 000000018002a3c0 f   cudart_static:generated_cuda_runtime_api.obj
 0001:00029520       cudaMemset2D               000000018002a520 f   cudart_static:generated_cuda_runtime_api.obj
 0001:000296c0       cudaMemset2DAsync          000000018002a6c0 f   cudart_static:generated_cuda_runtime_api.obj
 0001:000298a0       cudaMemset2DAsync_ptsz     000000018002a8a0 f   cudart_static:generated_cuda_runtime_api.obj
 0001:00029a80       cudaMemset2D_ptds          000000018002aa80 f   cudart_static:generated_cuda_runtime_api.obj
 0001:00029c20       cudaMemset3D               000000018002ac20 f   cudart_static:generated_cuda_runtime_api.obj
 0001:00029e10       cudaMemset3DAsync          000000018002ae10 f   cudart_static:generated_cuda_runtime_api.obj
 0001:0002a030       cudaMemset3DAsync_ptsz     000000018002b030 f   cudart_static:generated_cuda_runtime_api.obj
 0001:0002a250       cudaMemset3D_ptds          000000018002b250 f   cudart_static:generated_cuda_runtime_api.obj
 0001:0002a440       cudaMemsetAsync            000000018002b440 f   cudart_static:generated_cuda_runtime_api.obj
 0001:0002a5e0       cudaMemsetAsync_ptsz       000000018002b5e0 f   cudart_static:generated_cuda_runtime_api.obj
 0001:0002a780       cudaMemset_ptds            000000018002b780 f   cudart_static:generated_cuda_runtime_api.obj
 0001:0002a8f0       cudaMipmappedArrayGetSparseProperties 000000018002b8f0 f   cudart_static:generated_cuda_runtime_api.obj
 0001:0002aa40       cudaOccupancyAvailableDynamicSMemPerBlock 000000018002ba40 f   cudart_static:generated_cuda_runtime_api.obj
 0001:0002abc0       cudaOccupancyMaxActiveBlocksPerMultiprocessor 000000018002bbc0 f   cudart_static:generated_cuda_runtime_api.obj
 0001:0002ad40       cudaOccupancyMaxActiveBlocksPerMultiprocessorWithFlags 000000018002bd40 f   cudart_static:generated_cuda_runtime_api.obj
 0001:0002aee0       cudaPeekAtLastError        000000018002bee0 f   cudart_static:generated_cuda_runtime_api.obj
 0001:0002b000       cudaPointerGetAttributes   000000018002c000 f   cudart_static:generated_cuda_runtime_api.obj
 0001:0002b150       cudaRuntimeGetVersion      000000018002c150 f   cudart_static:generated_cuda_runtime_api.obj
 0001:0002b280       cudaSetDevice              000000018002c280 f   cudart_static:generated_cuda_runtime_api.obj
 0001:0002b3b0       cudaSetDeviceFlags         000000018002c3b0 f   cudart_static:generated_cuda_runtime_api.obj
 0001:0002b4e0       cudaSetDoubleForDevice     000000018002c4e0 f   cudart_static:generated_cuda_runtime_api.obj
 0001:0002b610       cudaSetDoubleForHost       000000018002c610 f   cudart_static:generated_cuda_runtime_api.obj
 0001:0002b740       cudaSetValidDevices        000000018002c740 f   cudart_static:generated_cuda_runtime_api.obj
 0001:0002b890       cudaSignalExternalSemaphoresAsync 000000018002c890 f   cudart_static:generated_cuda_runtime_api.obj
 0001:0002ba30       cudaSignalExternalSemaphoresAsync_ptsz 000000018002ca30 f   cudart_static:generated_cuda_runtime_api.obj
 0001:0002bbd0       cudaSignalExternalSemaphoresAsync_v2 000000018002cbd0 f   cudart_static:generated_cuda_runtime_api.obj
 0001:0002bd70       cudaSignalExternalSemaphoresAsync_v2_ptsz 000000018002cd70 f   cudart_static:generated_cuda_runtime_api.obj
 0001:0002bf10       cudaStreamAddCallback      000000018002cf10 f   cudart_static:generated_cuda_runtime_api.obj
 0001:0002c0b0       cudaStreamAddCallback_ptsz 000000018002d0b0 f   cudart_static:generated_cuda_runtime_api.obj
 0001:0002c250       cudaStreamAttachMemAsync   000000018002d250 f   cudart_static:generated_cuda_runtime_api.obj
 0001:0002c3f0       cudaStreamAttachMemAsync_ptsz 000000018002d3f0 f   cudart_static:generated_cuda_runtime_api.obj
 0001:0002c590       cudaStreamBeginCapture     000000018002d590 f   cudart_static:generated_cuda_runtime_api.obj
 0001:0002c700       cudaStreamBeginCapture_ptsz 000000018002d700 f   cudart_static:generated_cuda_runtime_api.obj
 0001:0002c870       cudaStreamCopyAttributes   000000018002d870 f   cudart_static:generated_cuda_runtime_api.obj
 0001:0002c9c0       cudaStreamCopyAttributes_ptsz 000000018002d9c0 f   cudart_static:generated_cuda_runtime_api.obj
 0001:0002cb10       cudaStreamCreate           000000018002db10 f   cudart_static:generated_cuda_runtime_api.obj
 0001:0002cc50       cudaStreamCreateWithFlags  000000018002dc50 f   cudart_static:generated_cuda_runtime_api.obj
 0001:0002cda0       cudaStreamCreateWithPriority 000000018002dda0 f   cudart_static:generated_cuda_runtime_api.obj
 0001:0002cf00       cudaStreamDestroy          000000018002df00 f   cudart_static:generated_cuda_runtime_api.obj
 0001:0002d060       cudaStreamEndCapture       000000018002e060 f   cudart_static:generated_cuda_runtime_api.obj
 0001:0002d1d0       cudaStreamEndCapture_ptsz  000000018002e1d0 f   cudart_static:generated_cuda_runtime_api.obj
 0001:0002d340       cudaStreamGetAttribute     000000018002e340 f   cudart_static:generated_cuda_runtime_api.obj
 0001:0002d4d0       cudaStreamGetAttribute_ptsz 000000018002e4d0 f   cudart_static:generated_cuda_runtime_api.obj
 0001:0002d640       cudaStreamGetCaptureInfo   000000018002e640 f   cudart_static:generated_cuda_runtime_api.obj
 0001:0002d7b0       cudaStreamGetCaptureInfo_ptsz 000000018002e7b0 f   cudart_static:generated_cuda_runtime_api.obj
 0001:0002d940       cudaStreamGetFlags         000000018002e940 f   cudart_static:generated_cuda_runtime_api.obj
 0001:0002da90       cudaStreamGetFlags_ptsz    000000018002ea90 f   cudart_static:generated_cuda_runtime_api.obj
 0001:0002dbe0       cudaStreamGetPriority      000000018002ebe0 f   cudart_static:generated_cuda_runtime_api.obj
 0001:0002dd30       cudaStreamGetPriority_ptsz 000000018002ed30 f   cudart_static:generated_cuda_runtime_api.obj
 0001:0002de80       cudaStreamIsCapturing      000000018002ee80 f   cudart_static:generated_cuda_runtime_api.obj
 0001:0002dff0       cudaStreamIsCapturing_ptsz 000000018002eff0 f   cudart_static:generated_cuda_runtime_api.obj
 0001:0002e160       cudaStreamQuery            000000018002f160 f   cudart_static:generated_cuda_runtime_api.obj
 0001:0002e2c0       cudaStreamQuery_ptsz       000000018002f2c0 f   cudart_static:generated_cuda_runtime_api.obj
 0001:0002e420       cudaStreamSetAttribute     000000018002f420 f   cudart_static:generated_cuda_runtime_api.obj
 0001:0002e5b0       cudaStreamSetAttribute_ptsz 000000018002f5b0 f   cudart_static:generated_cuda_runtime_api.obj
 0001:0002e720       cudaStreamSynchronize      000000018002f720 f   cudart_static:generated_cuda_runtime_api.obj
 0001:0002e880       cudaStreamSynchronize_ptsz 000000018002f880 f   cudart_static:generated_cuda_runtime_api.obj
 0001:0002e9e0       cudaStreamWaitEvent        000000018002f9e0 f   cudart_static:generated_cuda_runtime_api.obj
 0001:0002eb70       cudaStreamWaitEvent_ptsz   000000018002fb70 f   cudart_static:generated_cuda_runtime_api.obj
 0001:0002ed00       cudaThreadExchangeStreamCaptureMode 000000018002fd00 f   cudart_static:generated_cuda_runtime_api.obj
 0001:0002ee40       cudaThreadExit             000000018002fe40 f   cudart_static:generated_cuda_runtime_api.obj
 0001:0002ef70       cudaThreadGetCacheConfig   000000018002ff70 f   cudart_static:generated_cuda_runtime_api.obj
 0001:0002f0b0       cudaThreadGetLimit         00000001800300b0 f   cudart_static:generated_cuda_runtime_api.obj
 0001:0002f200       cudaThreadSetCacheConfig   0000000180030200 f   cudart_static:generated_cuda_runtime_api.obj
 0001:0002f330       cudaThreadSetLimit         0000000180030330 f   cudart_static:generated_cuda_runtime_api.obj
 0001:0002f4a0       cudaThreadSynchronize      00000001800304a0 f   cudart_static:generated_cuda_runtime_api.obj
 0001:0002f5d0       cudaUnbindTexture          00000001800305d0 f   cudart_static:generated_cuda_runtime_api.obj
 0001:0002f700       cudaWaitExternalSemaphoresAsync 0000000180030700 f   cudart_static:generated_cuda_runtime_api.obj
 0001:0002f8a0       cudaWaitExternalSemaphoresAsync_ptsz 00000001800308a0 f   cudart_static:generated_cuda_runtime_api.obj
 0001:0002fa40       cudaWaitExternalSemaphoresAsync_v2 0000000180030a40 f   cudart_static:generated_cuda_runtime_api.obj
 0001:0002fbe0       cudaWaitExternalSemaphoresAsync_v2_ptsz 0000000180030be0 f   cudart_static:generated_cuda_runtime_api.obj
 0001:0002fe00       ?StringCbCopyA@@YAJPEAD_KPEBD@Z 0000000180030e00 f i cudart_static:cuoswin32.obj
 0001:0002fe90       ?StringCchCatA@@YAJPEAD_KPEBD@Z 0000000180030e90 f i cudart_static:cuoswin32.obj
 0001:000300c0       ?cuosAcquireReaderLock@cudart@@YAXPEAU_RTL_SRWLOCK@@@Z 00000001800310c0 f   cudart_static:cuoswin32.obj
 0001:000300e0       ?cuosAcquireWriterLock@cudart@@YAXPEAU_RTL_SRWLOCK@@@Z 00000001800310e0 f   cudart_static:cuoswin32.obj
 0001:00030100       ?cuosAtFork@cudart@@YAHP6AXXZ00@Z 0000000180031100 f   cudart_static:cuoswin32.obj
 0001:00030110       ?cuosCPUID@cudart@@YAXQEAHH@Z 0000000180031110 f   cudart_static:cuoswin32.obj
 0001:00030140       ?cuosCalloc@cudart@@YAPEAX_K0@Z 0000000180031140 f   cudart_static:cuoswin32.obj
 0001:000301c0       ?cuosCondBroadcast@cudart@@YAHPEAUcuosCV_st@1@@Z 00000001800311c0 f   cudart_static:cuoswin32.obj
 0001:000301e0       ?cuosCondCreate@cudart@@YAHPEAUcuosCV_st@1@@Z 00000001800311e0 f   cudart_static:cuoswin32.obj
 0001:00030200       ?cuosCondDestroy@cudart@@YAHPEAUcuosCV_st@1@@Z 0000000180031200 f   cudart_static:cuoswin32.obj
 0001:00030210       ?cuosCondSignal@cudart@@YAHPEAUcuosCV_st@1@@Z 0000000180031210 f   cudart_static:cuoswin32.obj
 0001:00030230       ?cuosCondWait@cudart@@YAHPEAUcuosCV_st@1@PEAU_RTL_CRITICAL_SECTION@@I@Z 0000000180031230 f   cudart_static:cuoswin32.obj
 0001:00030290       ?cuosDeleteCriticalSection@cudart@@YAXPEAU_RTL_CRITICAL_SECTION@@@Z 0000000180031290 f   cudart_static:cuoswin32.obj
 0001:000302b0       ?cuosDestroyRWLock@cudart@@YAXPEAU_RTL_SRWLOCK@@@Z 00000001800312b0 f   cudart_static:cuoswin32.obj
 0001:000302c0       ?cuosDestroyRWLockEx@cudart@@YAXPEAU_RTL_SRWLOCK@@@Z 00000001800312c0 f   cudart_static:cuoswin32.obj
 0001:000302d0       ?cuosEnterCriticalSection@cudart@@YAXPEAU_RTL_CRITICAL_SECTION@@@Z 00000001800312d0 f   cudart_static:cuoswin32.obj
 0001:000302f0       ?cuosEventClear@cudart@@YAHPEAUcuosEvent@1@@Z 00000001800312f0 f   cudart_static:cuoswin32.obj
 0001:00030320       ?cuosEventCreate@cudart@@YAHPEAUcuosEvent@1@@Z 0000000180031320 f   cudart_static:cuoswin32.obj
 0001:00030370       ?cuosEventCreateWithFlags@cudart@@YAHPEAUcuosEvent@1@I@Z 0000000180031370 f   cudart_static:cuoswin32.obj
 0001:000303d0       ?cuosEventDestroy@cudart@@YAHPEAUcuosEvent@1@@Z 00000001800313d0 f   cudart_static:cuoswin32.obj
 0001:00030410       ?cuosEventGetOsPtr@cudart@@YAPEAXPEAUcuosEvent@1@II@Z 0000000180031410 f   cudart_static:cuoswin32.obj
 0001:00030420       ?cuosEventIpcCreate@cudart@@YAHPEAUcuosEvent@1@PEADW4cuosEventMode_t@1@@Z 0000000180031420 f   cudart_static:cuoswin32.obj
 0001:00030470       ?cuosEventIpcCreateWithFlags@cudart@@YAHPEAUcuosEvent@1@PEADW4cuosEventMode_t@1@I@Z 0000000180031470 f   cudart_static:cuoswin32.obj
 0001:000304e0       ?cuosEventIsSafeToSignal@cudart@@YAHPEAUcuosEvent@1@@Z 00000001800314e0 f   cudart_static:cuoswin32.obj
 0001:000304f0       ?cuosEventPoll@cudart@@YAHPEAUcuosEvent@1@PEAI@Z 00000001800314f0 f   cudart_static:cuoswin32.obj
 0001:00030500       ?cuosEventSignal@cudart@@YAHPEAUcuosEvent@1@@Z 0000000180031500 f   cudart_static:cuoswin32.obj
 0001:00030530       ?cuosEventWaitMultiple@cudart@@YAHPEAPEAUcuosEvent@1@HPEAHII@Z 0000000180031530 f   cudart_static:cuoswin32.obj
 0001:00030630       ?cuosFclose@cudart@@YAXPEAU_iobuf@@@Z 0000000180031630 f   cudart_static:cuoswin32.obj
 0001:00030650       ?cuosFflush_internal@cudart@@YAHPEAU_iobuf@@@Z 0000000180031650 f   cudart_static:cuoswin32.obj
 0001:00030670       ?cuosFgetc@cudart@@YAHPEAU_iobuf@@PEAD@Z 0000000180031670 f   cudart_static:cuoswin32.obj
 0001:000306e0       ?cuosFopen@cudart@@YAHPEBDKPEAPEAU_iobuf@@@Z 00000001800316e0 f   cudart_static:cuoswin32.obj
 0001:00030900       ?cuosFread@cudart@@YAHPEAU_iobuf@@PEAX_KPEA_K@Z 0000000180031900 f   cudart_static:cuoswin32.obj
 0001:00030980       ?cuosFree@cudart@@YAXPEAX@Z 0000000180031980 f   cudart_static:cuoswin32.obj
 0001:000309e0       ?cuosFreeLibrary@cudart@@YAHPEAUHINSTANCE__@@@Z 00000001800319e0 f   cudart_static:cuoswin32.obj
 0001:00030a00       ?cuosFreePhysicalMemory@cudart@@YA_KXZ 0000000180031a00 f   cudart_static:cuoswin32.obj
 0001:00030a80       ?cuosFreeSwapMemory@cudart@@YA_KXZ 0000000180031a80 f   cudart_static:cuoswin32.obj
 0001:00030b00       ?cuosFseek@cudart@@YAHPEAU_iobuf@@_KW4cuosSeekEnum@1@@Z 0000000180031b00 f   cudart_static:cuoswin32.obj
 0001:00030b90       ?cuosFtell@cudart@@YAHPEAU_iobuf@@PEA_K@Z 0000000180031b90 f   cudart_static:cuoswin32.obj
 0001:00030bd0       ?cuosFwrite@cudart@@YAHPEAU_iobuf@@PEBX_K@Z 0000000180031bd0 f   cudart_static:cuoswin32.obj
 0001:00030c10       ?cuosGetCpuTime@cudart@@YA_KXZ 0000000180031c10 f   cudart_static:cuoswin32.obj
 0001:00030c70       ?cuosGetCurrentProcessExecPath@cudart@@YAHPEAPEAD@Z 0000000180031c70 f   cudart_static:cuoswin32.obj
 0001:00030d10       ?cuosGetCurrentProcessor@cudart@@YAIXZ 0000000180031d10 f   cudart_static:cuoswin32.obj
 0001:00030d60       ?cuosGetCurrentThreadId@cudart@@YAKXZ 0000000180031d60 f   cudart_static:cuoswin32.obj
 0001:00030d80       ?cuosGetDefaultHugePageSize@cudart@@YA_KXZ 0000000180031d80 f   cudart_static:cuoswin32.obj
 0001:00030d90       ?cuosGetEnv@cudart@@YAHPEBDPEAD_K@Z 0000000180031d90 f   cudart_static:cuoswin32.obj
 0001:00030dd0       ?cuosGetFileSize@cudart@@YA_JPEBD@Z 0000000180031dd0 f   cudart_static:cuoswin32.obj
 0001:00030e40       ?cuosGetHostname@cudart@@YAHPEAD_K@Z 0000000180031e40 f   cudart_static:cuoswin32.obj
 0001:00030e90       ?cuosGetLocalTime@cudart@@YAXPEAUcuosLocalTime_s@1@@Z 0000000180031e90 f   cudart_static:cuoswin32.obj
 0001:00030f10       ?cuosGetPageSize@cudart@@YAIXZ 0000000180031f10 f   cudart_static:cuoswin32.obj
 0001:00030f40       ?cuosGetProcAddress@cudart@@YAP6AXXZPEAUHINSTANCE__@@PEBD@Z 0000000180031f40 f   cudart_static:cuoswin32.obj
 0001:00030f60       ?cuosGetProcCoreCount@cudart@@YAIXZ 0000000180031f60 f   cudart_static:cuoswin32.obj
 0001:00030f90       ?cuosGetProcessorCount@cudart@@YAIXZ 0000000180031f90 f   cudart_static:cuoswin32.obj
 0001:00030fc0       ?cuosGetThreadAffinity@cudart@@YAXPEAUCUOSthread_st@1@PEA_K@Z 0000000180031fc0 f   cudart_static:cuoswin32.obj
 0001:00031050       ?cuosGetTimer@cudart@@YAMPEAUcuostimer@1@@Z 0000000180032050 f   cudart_static:cuoswin32.obj
 0001:00031090       ?cuosGetUserDataNVPath@cudart@@YAHPEAD_K@Z 0000000180032090 f   cudart_static:cuoswin32.obj
 0001:00031220       ?cuosGetcwd@cudart@@YAHPEAD_K@Z 0000000180032220 f   cudart_static:cuoswin32.obj
 0001:00031260       ?cuosHasThreadExited@cudart@@YAHPEAUCUOSthread_st@1@@Z 0000000180032260 f   cudart_static:cuoswin32.obj
 0001:00031290       ?cuosInit@cudart@@YAXXZ    0000000180032290 f   cudart_static:cuoswin32.obj
 0001:00031300       ?cuosInitRWLock@cudart@@YAXPEAU_RTL_SRWLOCK@@@Z 0000000180032300 f   cudart_static:cuoswin32.obj
 0001:00031320       ?cuosInitRWLockEx@cudart@@YAHPEAU_RTL_SRWLOCK@@PEAX_KW4cuosLockProcessSharedFlags@1@@Z 0000000180032320 f   cudart_static:cuoswin32.obj
 0001:00031340       ?cuosInitializeCriticalSection@cudart@@YAXPEAU_RTL_CRITICAL_SECTION@@@Z 0000000180032340 f   cudart_static:cuoswin32.obj
 0001:00031360       ?cuosInterlockedAnd64@cudart@@YA_KPEC_K_K@Z 0000000180032360 f   cudart_static:cuoswin32.obj
 0001:00031380       ?cuosInterlockedAnd@cudart@@YAIPECII@Z 0000000180032380 f   cudart_static:cuoswin32.obj
 0001:000313a0       ?cuosInterlockedCompareExchange64@cudart@@YA_KPEC_K_K1@Z 00000001800323a0 f   cudart_static:cuoswin32.obj
 0001:000313b0       ?cuosInterlockedCompareExchange@cudart@@YAIPECIII@Z 00000001800323b0 f   cudart_static:cuoswin32.obj
 0001:000313c0       ?cuosInterlockedCompareExchangePointer@cudart@@YAPEAXPECREAXPEAX1@Z 00000001800323c0 f   cudart_static:cuoswin32.obj
 0001:000313d0       ?cuosInterlockedDecrement64@cudart@@YA_KPEC_K@Z 00000001800323d0 f   cudart_static:cuoswin32.obj
 0001:000313e0       ?cuosInterlockedDecrement@cudart@@YAIPECI@Z 00000001800323e0 f   cudart_static:cuoswin32.obj
 0001:000313f0       ?cuosInterlockedExchange@cudart@@YAIPECII@Z 00000001800323f0 f   cudart_static:cuoswin32.obj
 0001:00031400       ?cuosInterlockedIncrement64@cudart@@YA_KPEC_K@Z 0000000180032400 f   cudart_static:cuoswin32.obj
 0001:00031410       ?cuosInterlockedIncrement@cudart@@YAIPECI@Z 0000000180032410 f   cudart_static:cuoswin32.obj
 0001:00031420       ?cuosInterlockedOr64@cudart@@YA_KPEC_K_K@Z 0000000180032420 f   cudart_static:cuoswin32.obj
 0001:00031440       ?cuosInterlockedOr@cudart@@YAIPECII@Z 0000000180032440 f   cudart_static:cuoswin32.obj
 0001:000314b0       ?cuosIpcCreate@cudart@@YAHPEAD@Z 00000001800324b0 f   cudart_static:cuoswin32.obj
 0001:000314c0       ?cuosIpcDestroy@cudart@@YAHPEAD@Z 00000001800324c0 f   cudart_static:cuoswin32.obj
 0001:000314d0       ?cuosIsWindows10Plus@cudart@@YAHXZ 00000001800324d0 f   cudart_static:cuoswin32.obj
 0001:00031510       ?cuosIsWindows10RS2Plus@cudart@@YAHXZ 0000000180032510 f   cudart_static:cuoswin32.obj
 0001:00031550       ?cuosIsWindows10RS4Plus@cudart@@YAHXZ 0000000180032550 f   cudart_static:cuoswin32.obj
 0001:00031590       ?cuosIsWindows7Plus@cudart@@YAHXZ 0000000180032590 f   cudart_static:cuoswin32.obj
 0001:000315d0       ?cuosIsWindows8Plus@cudart@@YAHXZ 00000001800325d0 f   cudart_static:cuoswin32.obj
 0001:00031610       ?cuosIsWindows8Point1Plus@cudart@@YAHXZ 0000000180032610 f   cudart_static:cuoswin32.obj
 0001:00031680       ?cuosIsWindowsVistaPlus@cudart@@YAHXZ 0000000180032680 f   cudart_static:cuoswin32.obj
 0001:000316c0       ?cuosIsWindowsXp@cudart@@YAHXZ 00000001800326c0 f   cudart_static:cuoswin32.obj
 0001:000316d0       ?cuosKernelIs64Bit@cudart@@YAHXZ 00000001800326d0 f   cudart_static:cuoswin32.obj
 0001:00031710       ?cuosLeaveCriticalSection@cudart@@YAXPEAU_RTL_CRITICAL_SECTION@@@Z 0000000180032710 f   cudart_static:cuoswin32.obj
 0001:00031730       ?cuosLoadLibrary@cudart@@YAPEAUHINSTANCE__@@PEBD@Z 0000000180032730 f   cudart_static:cuoswin32.obj
 0001:00031750       ?cuosLoadLibraryUnsafe@cudart@@YAPEAUHINSTANCE__@@PEBD@Z 0000000180032750 f   cudart_static:cuoswin32.obj
 0001:00031770       ?cuosLockFile@cudart@@YAHPEAU_iobuf@@I@Z 0000000180032770 f   cudart_static:cuoswin32.obj
 0001:00031790       ?cuosLockFileInternal@cudart@@YAHPEAU_iobuf@@I_N@Z 0000000180032790 f   cudart_static:cuoswin32.obj
 0001:00031920       ?cuosMadvise@cudart@@YAHPEAX_KI@Z 0000000180032920 f   cudart_static:cuoswin32.obj
 0001:00031930       ?cuosMalloc@cudart@@YAPEAX_K@Z 0000000180032930 f   cudart_static:cuoswin32.obj
 0001:00031990       ?cuosMemoryRelease@cudart@@YAXXZ 0000000180032990 f   cudart_static:cuoswin32.obj
 0001:000319d0       ?cuosMemoryRetain@cudart@@YAXXZ 00000001800329d0 f   cudart_static:cuoswin32.obj
 0001:000319e0       ?cuosMemoryStartTeardown@cudart@@YAHXZ 00000001800329e0 f   cudart_static:cuoswin32.obj
 0001:00031a20       ?cuosMkdir@cudart@@YAHPEBD@Z 0000000180032a20 f   cudart_static:cuoswin32.obj
 0001:00031a60       ?cuosNumaGetAllowedNodeMask@cudart@@YAPEBKXZ 0000000180032a60 f   cudart_static:cuoswin32.obj
 0001:00031a70       ?cuosNumaGetNodeIdForProcessor@cudart@@YAKI@Z 0000000180032a70 f   cudart_static:cuoswin32.obj
 0001:00031a80       ?cuosNumaGetNumPossibleNodes@cudart@@YAKXZ 0000000180032a80 f   cudart_static:cuoswin32.obj
 0001:00031a90       ?cuosNumaGetThreadMemPolicy@cudart@@YAHPEAHPEAK@Z 0000000180032a90 f   cudart_static:cuoswin32.obj
 0001:00031aa0       ?cuosNumaIsSupported@cudart@@YAHXZ 0000000180032aa0 f   cudart_static:cuoswin32.obj
 0001:00031ab0       ?cuosNumaMovePages@cudart@@YAHKPEAPEAXPEBHPEAH@Z 0000000180032ab0 f   cudart_static:cuoswin32.obj
 0001:00031ac0       ?cuosNumaSetThreadMemPolicy@cudart@@YAHHPEBK@Z 0000000180032ac0 f   cudart_static:cuoswin32.obj
 0001:00031ad0       ?cuosOnce@cudart@@YAHPEAIP6AXXZ@Z 0000000180032ad0 f   cudart_static:cuoswin32.obj
 0001:00031b30       ?cuosPipeAcceptClient@cudart@@YAHPEAUCUOSpipe_st@1@0@Z 0000000180032b30 f   cudart_static:cuoswin32.obj
 0001:00031b40       ?cuosPipeClose@cudart@@YAXPEAUCUOSpipe_st@1@@Z 0000000180032b40 f   cudart_static:cuoswin32.obj
 0001:00031b50       ?cuosPipeGetDataArrivedEvent@cudart@@YAXPEAUCUOSpipe_st@1@PEAUcuosEvent@1@@Z 0000000180032b50 f   cudart_static:cuoswin32.obj
 0001:00031b60       ?cuosPipeGetReadStream@cudart@@YAPEAU_iobuf@@PEAUCUOSpipe_st@1@@Z 0000000180032b60 f   cudart_static:cuoswin32.obj
 0001:00031b70       ?cuosPipeGetWriteStream@cudart@@YAPEAU_iobuf@@PEAUCUOSpipe_st@1@@Z 0000000180032b70 f   cudart_static:cuoswin32.obj
 0001:00031b80       ?cuosPipeOpenAsClient@cudart@@YAHPEBD0PEAUCUOSpipe_st@1@@Z 0000000180032b80 f   cudart_static:cuoswin32.obj
 0001:00031b90       ?cuosPipeOpenAsServer@cudart@@YAHPEBDPEAXPEAUCUOSpipe_st@1@@Z 0000000180032b90 f   cudart_static:cuoswin32.obj
 0001:00031ba0       ?cuosPipeRead@cudart@@YAHPEAUCUOSpipe_st@1@PEAX_K@Z 0000000180032ba0 f   cudart_static:cuoswin32.obj
 0001:00031bb0       ?cuosPipeWrite@cudart@@YAHPEAUCUOSpipe_st@1@PEBX_K@Z 0000000180032bb0 f   cudart_static:cuoswin32.obj
 0001:00031bc0       ?cuosProcessHasExited@cudart@@YAHK@Z 0000000180032bc0 f   cudart_static:cuoswin32.obj
 0001:00031bd0       ?cuosProcessId@cudart@@YAKXZ 0000000180032bd0 f   cudart_static:cuoswin32.obj
 0001:00031bf0       ?cuosReadLockFile@cudart@@YAHPEAU_iobuf@@I@Z 0000000180032bf0 f   cudart_static:cuoswin32.obj
 0001:00031c10       ?cuosRealloc@cudart@@YAPEAXPEAX_K@Z 0000000180032c10 f   cudart_static:cuoswin32.obj
 0001:00031c90       ?cuosRecursiveDelete@cudart@@YAHPEBD@Z 0000000180032c90 f   cudart_static:cuoswin32.obj
 0001:00031cf0       ?cuosRecursiveDeleteIterator@cudart@@YAXPEBDPEAU_WIN32_FIND_DATAA@@@Z 0000000180032cf0 f   cudart_static:cuoswin32.obj
 0001:00031df0       ?cuosReleaseReaderLock@cudart@@YAXPEAU_RTL_SRWLOCK@@@Z 0000000180032df0 f   cudart_static:cuoswin32.obj
 0001:00031e10       ?cuosReleaseWriterLock@cudart@@YAXPEAU_RTL_SRWLOCK@@@Z 0000000180032e10 f   cudart_static:cuoswin32.obj
 0001:00031e30       ?cuosResetTimer@cudart@@YAXPEAUcuostimer@1@@Z 0000000180032e30 f   cudart_static:cuoswin32.obj
 0001:00031e50       ?cuosRm@cudart@@YAHPEBD@Z  0000000180032e50 f   cudart_static:cuoswin32.obj
 0001:00031e70       ?cuosRmdir@cudart@@YAHPEBD@Z 0000000180032e70 f   cudart_static:cuoswin32.obj
 0001:00031e90       ?cuosRmdirRecursive@cudart@@YAHPEBD@Z 0000000180032e90 f   cudart_static:cuoswin32.obj
 0001:00031ef0       ?cuosSemaphoreCreate@cudart@@YAHPEAPEAXH@Z 0000000180032ef0 f   cudart_static:cuoswin32.obj
 0001:00031f30       ?cuosSemaphoreDestroy@cudart@@YAHPEAPEAX@Z 0000000180032f30 f   cudart_static:cuoswin32.obj
 0001:00031f60       ?cuosSemaphoreSignal@cudart@@YAHPEAPEAX@Z 0000000180032f60 f   cudart_static:cuoswin32.obj
 0001:00031f90       ?cuosSemaphoreWait@cudart@@YAHPEAPEAXI@Z 0000000180032f90 f   cudart_static:cuoswin32.obj
 0001:00031fe0       ?cuosServerSocketClose@cudart@@YAXPEAUCUOSserverSocket@1@@Z 0000000180032fe0 f   cudart_static:cuoswin32.obj
 0001:00031ff0       ?cuosServerSocketGetDataArrivedEvent@cudart@@YAXPEAUCUOSserverSocket@1@PEAUcuosEvent@1@@Z 0000000180032ff0 f   cudart_static:cuoswin32.obj
 0001:00032000       ?cuosSetEnv@cudart@@YAHPEBD0@Z 0000000180033000 f   cudart_static:cuoswin32.obj
 0001:00032030       ?cuosSetThreadAffinity@cudart@@YAXPEAUCUOSthread_st@1@PEB_K@Z 0000000180033030 f   cudart_static:cuoswin32.obj
 0001:00032080       ?cuosSetThreadName@cudart@@YAHPEAUCUOSthread_st@1@PEBD@Z 0000000180033080 f   cudart_static:cuoswin32.obj
 0001:00032090       ?cuosSleep@cudart@@YAXI@Z  0000000180033090 f   cudart_static:cuoswin32.obj
 0001:000320b0       ?cuosSocketAcceptClient@cudart@@YAHPEAUCUOSserverSocket@1@PEAUCUOSsocket@1@@Z 00000001800330b0 f   cudart_static:cuoswin32.obj
 0001:000320c0       ?cuosSocketClose@cudart@@YAXPEAUCUOSsocket@1@@Z 00000001800330c0 f   cudart_static:cuoswin32.obj
 0001:000320d0       ?cuosSocketCreateConnectedPair@cudart@@YAHPEAUCUOSsocket@1@0@Z 00000001800330d0 f   cudart_static:cuoswin32.obj
 0001:000320e0       ?cuosSocketOpenAsClient@cudart@@YAHPEBX_KPEAUCUOSsocket@1@@Z 00000001800330e0 f   cudart_static:cuoswin32.obj
 0001:000320f0       ?cuosSocketOpenAsServer@cudart@@YAHPEBX_KPEAUCUOSsocket@1@@Z 00000001800330f0 f   cudart_static:cuoswin32.obj
 0001:00032100       ?cuosSocketRead@cudart@@YAHPEAUCUOSsocket@1@PEAX_K@Z 0000000180033100 f   cudart_static:cuoswin32.obj
 0001:00032110       ?cuosSocketRecv@cudart@@YAHPEAUCUOSsocket@1@PEAUCUOSsocketMsg@1@@Z 0000000180033110 f   cudart_static:cuoswin32.obj
 0001:00032120       ?cuosSocketSend@cudart@@YAHPEAUCUOSsocket@1@PEAUCUOSsocketMsg@1@@Z 0000000180033120 f   cudart_static:cuoswin32.obj
 0001:00032130       ?cuosSocketWrite@cudart@@YAHPEAUCUOSsocket@1@PEBX_K@Z 0000000180033130 f   cudart_static:cuoswin32.obj
 0001:00032140       ?cuosThreadCreate@cudart@@YAHPEAPEAUCUOSthread_st@1@P6AHPEAX@Z1@Z 0000000180033140 f   cudart_static:cuoswin32.obj
 0001:000322a0       ?cuosThreadDetach@cudart@@YAXPEAUCUOSthread_st@1@@Z 00000001800332a0 f   cudart_static:cuoswin32.obj
 0001:00032310       ?cuosThreadIdEqual@cudart@@YAHKK@Z 0000000180033310 f   cudart_static:cuoswin32.obj
 0001:00032320       ?cuosThreadIsCurrent@cudart@@YAHPEAUCUOSthread_st@1@@Z 0000000180033320 f   cudart_static:cuoswin32.obj
 0001:00032350       ?cuosThreadJoin@cudart@@YAXPEAUCUOSthread_st@1@PEAH@Z 0000000180033350 f   cudart_static:cuoswin32.obj
 0001:00032460       ?cuosThreadYield@cudart@@YAXXZ 0000000180033460 f   cudart_static:cuoswin32.obj
 0001:00032480       ?cuosThreadYieldHeavy@cudart@@YAXXZ 0000000180033480 f   cudart_static:cuoswin32.obj
 0001:000324a0       ?cuosTlsAlloc@cudart@@YAKP6AXPEAX@Z@Z 00000001800334a0 f   cudart_static:cuoswin32.obj
 0001:000324c0       ?cuosTlsFree@cudart@@YAXK@Z 00000001800334c0 f   cudart_static:cuoswin32.obj
 0001:000324e0       ?cuosTlsGetValue@cudart@@YAPEAXK@Z 00000001800334e0 f   cudart_static:cuoswin32.obj
 0001:00032500       ?cuosTlsSetValue@cudart@@YAHKPEAX@Z 0000000180033500 f   cudart_static:cuoswin32.obj
 0001:00032520       ?cuosTotalPhysicalMemory@cudart@@YA_KXZ 0000000180033520 f   cudart_static:cuoswin32.obj
 0001:000325a0       ?cuosTotalSwapMemory@cudart@@YA_KXZ 00000001800335a0 f   cudart_static:cuoswin32.obj
 0001:00032620       ?cuosTryAcquireReaderLock@cudart@@YAHPEAU_RTL_SRWLOCK@@@Z 0000000180033620 f   cudart_static:cuoswin32.obj
 0001:00032650       ?cuosTryAcquireWriterLock@cudart@@YAHPEAU_RTL_SRWLOCK@@@Z 0000000180033650 f   cudart_static:cuoswin32.obj
 0001:00032680       ?cuosTryEnterCriticalSection@cudart@@YAHPEAU_RTL_CRITICAL_SECTION@@@Z 0000000180033680 f   cudart_static:cuoswin32.obj
 0001:000326b0       ?cuosUnlockFile@cudart@@YAHPEAU_iobuf@@@Z 00000001800336b0 f   cudart_static:cuoswin32.obj
 0001:00032720       ?cuosVirtualAlloc@cudart@@YAPEAXPEAX_KII@Z 0000000180033720 f   cudart_static:cuoswin32.obj
 0001:000327b0       ?cuosVirtualFindFreeVaInRange@cudart@@YAPEAX_KPEAX10@Z 00000001800337b0 f   cudart_static:cuoswin32.obj
 0001:000328c0       ?cuosVirtualFree@cudart@@YAXPEAX_KI@Z 00000001800338c0 f   cudart_static:cuoswin32.obj
 0001:00032900       ?cuosVirtualProtect@cudart@@YAHPEAX_KI@Z 0000000180033900 f   cudart_static:cuoswin32.obj
 0001:00032960       ?cuosVirtualReserveInRange@cudart@@YAPEAX_KPEAX10@Z 0000000180033960 f   cudart_static:cuoswin32.obj
 0001:00032ae0       ?cuosWriteLockFile@cudart@@YAHPEAU_iobuf@@I@Z 0000000180033ae0 f   cudart_static:cuoswin32.obj
 0001:00032b40       ??$?0PEAUglobalModule@cudart@@@hash@cudart@@QEAA@AEBQEAUglobalModule@1@@Z 0000000180033b40 f i cudart_static:cudart_context.obj
 0001:00032bf0       ??$?0PEAUmodule@cudart@@@hash@cudart@@QEAA@AEBQEAUmodule@1@@Z 0000000180033bf0 f i cudart_static:cudart_context.obj
 0001:00032ca0       ??$?0PEAX@hash@cudart@@QEAA@AEBQEAX@Z 0000000180033ca0 f i cudart_static:cudart_context.obj
 0001:00032d50       ??$?0PEBUsurfaceReference@@@hash@cudart@@QEAA@AEBQEBUsurfaceReference@@@Z 0000000180033d50 f i cudart_static:cudart_context.obj
 0001:00032e00       ??$?0PEBUtextureReference@@@hash@cudart@@QEAA@AEBQEBUtextureReference@@@Z 0000000180033e00 f i cudart_static:cudart_context.obj
 0001:00032eb0       ??$?0PEBX@hash@cudart@@QEAA@AEBQEBX@Z 0000000180033eb0 f i cudart_static:cudart_context.obj
 0001:00032f60       ??$?0Uentry@?$map@PEAUglobalModule@cudart@@PEAUmodule@2@@cudart@@@hash@cudart@@QEAA@AEBUentry@?$map@PEAUglobalModule@cudart@@PEAUmodule@2@@1@@Z 0000000180033f60 f i cudart_static:cudart_context.obj
 0001:00033010       ??$?0Uentry@?$map@PEBUsurfaceReference@@PEAUcudaSurface@cudart@@@cudart@@@hash@cudart@@QEAA@AEBUentry@?$map@PEBUsurfaceReference@@PEAUcudaSurface@cudart@@@1@@Z 0000000180034010 f i cudart_static:cudart_context.obj
 0001:000330c0       ??$?0Uentry@?$map@PEBUtextureReference@@PEAUcudaTexture@cudart@@@cudart@@@hash@cudart@@QEAA@AEBUentry@?$map@PEBUtextureReference@@PEAUcudaTexture@cudart@@@1@@Z 00000001800340c0 f i cudart_static:cudart_context.obj
 0001:00033170       ??$?0Uentry@?$map@PEBXPEAUcudaEntryFunction@cudart@@@cudart@@@hash@cudart@@QEAA@AEBUentry@?$map@PEBXPEAUcudaEntryFunction@cudart@@@1@@Z 0000000180034170 f i cudart_static:cudart_context.obj
 0001:00033220       ??$?0Uentry@?$map@PEBXPEAUcudaVariable@cudart@@@cudart@@@hash@cudart@@QEAA@AEBUentry@?$map@PEBXPEAUcudaVariable@cudart@@@1@@Z 0000000180034220 f i cudart_static:cudart_context.obj
 0001:000332d0       ??$?6$07@hash@cudart@@QEAAAEAU01@AEAY07$$CBE@Z 00000001800342d0 f i cudart_static:cudart_context.obj
 0001:00033360       ??$?6UglobalModule@cudart@@@hash@cudart@@QEAAAEAU01@AEBQEBUglobalModule@1@@Z 0000000180034360 f i cudart_static:cudart_context.obj
 0001:00033410       ??$?6Umodule@cudart@@@hash@cudart@@QEAAAEAU01@AEBQEBUmodule@1@@Z 0000000180034410 f i cudart_static:cudart_context.obj
 0001:000334c0       ??$?6UsurfaceReference@@@hash@cudart@@QEAAAEAU01@AEBQEBUsurfaceReference@@@Z 00000001800344c0 f i cudart_static:cudart_context.obj
 0001:00033570       ??$?6UtextureReference@@@hash@cudart@@QEAAAEAU01@AEBQEBUtextureReference@@@Z 0000000180034570 f i cudart_static:cudart_context.obj
 0001:00033620       ??$?6X@hash@cudart@@QEAAAEAU01@AEBQEBX@Z 0000000180034620 f i cudart_static:cudart_context.obj
 0001:000336d0       ??$?9PEAUglobalModule@cudart@@@entry@?$map@PEAUglobalModule@cudart@@PEAUmodule@2@@cudart@@QEBA_NAEBQEAUglobalModule@2@@Z 00000001800346d0 f i cudart_static:cudart_context.obj
 0001:000336e0       ??$?9PEAX@entry@?$map@PEBXPEAUcudaEntryFunction@cudart@@@cudart@@QEBA_NAEBQEAX@Z 00000001800346e0 f i cudart_static:cudart_context.obj
 0001:000336f0       ??$?9PEAX@entry@?$map@PEBXPEAUcudaVariable@cudart@@@cudart@@QEBA_NAEBQEAX@Z 00000001800346f0 f i cudart_static:cudart_context.obj
 0001:00033700       ??$?9PEBUsurfaceReference@@@entry@?$map@PEBUsurfaceReference@@PEAUcudaSurface@cudart@@@cudart@@QEBA_NAEBQEBUsurfaceReference@@@Z 0000000180034700 f i cudart_static:cudart_context.obj
 0001:00033710       ??$?9PEBUtextureReference@@@entry@?$map@PEBUtextureReference@@PEAUcudaTexture@cudart@@@cudart@@QEBA_NAEBQEBUtextureReference@@@Z 0000000180034710 f i cudart_static:cudart_context.obj
 0001:00033720       ??$?9PEBX@entry@?$map@PEBXPEAUcudaEntryFunction@cudart@@@cudart@@QEBA_NAEBQEBX@Z 0000000180034720 f i cudart_static:cudart_context.obj
 0001:00033730       ??$?9PEBX@entry@?$map@PEBXPEAUcudaVariable@cudart@@@cudart@@QEBA_NAEBQEBX@Z 0000000180034730 f i cudart_static:cudart_context.obj
 0001:00033740       ??$?APEAUglobalModule@cudart@@@?$map@PEAUglobalModule@cudart@@PEAUmodule@2@@cudart@@QEAAAEAPEAUmodule@1@AEBQEAUglobalModule@1@@Z 0000000180034740 f i cudart_static:cudart_context.obj
 0001:00033860       ??$erase@PEAUglobalModule@cudart@@@?$map@PEAUglobalModule@cudart@@PEAUmodule@2@@cudart@@QEAA_KAEBQEAUglobalModule@1@@Z 0000000180034860 f i cudart_static:cudart_context.obj
 0001:000338c0       ??$erase@PEAUglobalModule@cudart@@@?$set@PEAUglobalModule@cudart@@@cudart@@QEAA_KAEBQEAUglobalModule@1@@Z 00000001800348c0 f i cudart_static:cudart_context.obj
 0001:00033920       ??$erase@PEAUglobalModule@cudart@@@?$set@Uentry@?$map@PEAUglobalModule@cudart@@PEAUmodule@2@@cudart@@@cudart@@QEAA_KAEBQEAUglobalModule@1@@Z 0000000180034920 f i cudart_static:cudart_context.obj
 0001:00033980       ??$erase@PEBUsurfaceReference@@@?$map@PEBUsurfaceReference@@PEAUcudaSurface@cudart@@@cudart@@QEAA_KAEBQEBUsurfaceReference@@@Z 0000000180034980 f i cudart_static:cudart_context.obj
 0001:000339e0       ??$erase@PEBUsurfaceReference@@@?$set@Uentry@?$map@PEBUsurfaceReference@@PEAUcudaSurface@cudart@@@cudart@@@cudart@@QEAA_KAEBQEBUsurfaceReference@@@Z 00000001800349e0 f i cudart_static:cudart_context.obj
 0001:00033a40       ??$erase@PEBUtextureReference@@@?$map@PEBUtextureReference@@PEAUcudaTexture@cudart@@@cudart@@QEAA_KAEBQEBUtextureReference@@@Z 0000000180034a40 f i cudart_static:cudart_context.obj
 0001:00033aa0       ??$erase@PEBUtextureReference@@@?$set@Uentry@?$map@PEBUtextureReference@@PEAUcudaTexture@cudart@@@cudart@@@cudart@@QEAA_KAEBQEBUtextureReference@@@Z 0000000180034aa0 f i cudart_static:cudart_context.obj
 0001:00033b00       ??$erase@PEBX@?$map@PEBXPEAUcudaEntryFunction@cudart@@@cudart@@QEAA_KAEBQEBX@Z 0000000180034b00 f i cudart_static:cudart_context.obj
 0001:00033b60       ??$erase@PEBX@?$map@PEBXPEAUcudaVariable@cudart@@@cudart@@QEAA_KAEBQEBX@Z 0000000180034b60 f i cudart_static:cudart_context.obj
 0001:00033bc0       ??$erase@PEBX@?$set@Uentry@?$map@PEBXPEAUcudaEntryFunction@cudart@@@cudart@@@cudart@@QEAA_KAEBQEBX@Z 0000000180034bc0 f i cudart_static:cudart_context.obj
 0001:00033c20       ??$erase@PEBX@?$set@Uentry@?$map@PEBXPEAUcudaVariable@cudart@@@cudart@@@cudart@@QEAA_KAEBQEBX@Z 0000000180034c20 f i cudart_static:cudart_context.obj
 0001:00033c80       ??$find@PEAUglobalModule@cudart@@@?$set@Uentry@?$map@PEAUglobalModule@cudart@@PEAUmodule@2@@cudart@@@cudart@@QEAA?AV?$base_iterator@$0A@@01@AEBQEAUglobalModule@1@@Z 0000000180034c80 f i cudart_static:cudart_context.obj
 0001:00033d30       ??$find@PEAX@?$map@PEBXPEAUcudaEntryFunction@cudart@@@cudart@@QEAA?AV?$base_iterator@$0A@@?$set@Uentry@?$map@PEBXPEAUcudaEntryFunction@cudart@@@cudart@@@1@AEBQEAX@Z 0000000180034d30 f i cudart_static:cudart_context.obj
 0001:00033d50       ??$find@PEAX@?$map@PEBXPEAUcudaVariable@cudart@@@cudart@@QEAA?AV?$base_iterator@$0A@@?$set@Uentry@?$map@PEBXPEAUcudaVariable@cudart@@@cudart@@@1@AEBQEAX@Z 0000000180034d50 f i cudart_static:cudart_context.obj
 0001:00033d70       ??$find@PEAX@?$set@Uentry@?$map@PEBXPEAUcudaEntryFunction@cudart@@@cudart@@@cudart@@QEAA?AV?$base_iterator@$0A@@01@AEBQEAX@Z 0000000180034d70 f i cudart_static:cudart_context.obj
 0001:00033e20       ??$find@PEAX@?$set@Uentry@?$map@PEBXPEAUcudaVariable@cudart@@@cudart@@@cudart@@QEAA?AV?$base_iterator@$0A@@01@AEBQEAX@Z 0000000180034e20 f i cudart_static:cudart_context.obj
 0001:00033ed0       ??$find@PEBUsurfaceReference@@@?$map@PEBUsurfaceReference@@PEAUcudaSurface@cudart@@@cudart@@QEAA?AV?$base_iterator@$0A@@?$set@Uentry@?$map@PEBUsurfaceReference@@PEAUcudaSurface@cudart@@@cudart@@@1@AEBQEBUsurfaceReference@@@Z 0000000180034ed0 f i cudart_static:cudart_context.obj
 0001:00033ef0       ??$find@PEBUsurfaceReference@@@?$set@Uentry@?$map@PEBUsurfaceReference@@PEAUcudaSurface@cudart@@@cudart@@@cudart@@QEAA?AV?$base_iterator@$0A@@01@AEBQEBUsurfaceReference@@@Z 0000000180034ef0 f i cudart_static:cudart_context.obj
 0001:00033fa0       ??$find@PEBUtextureReference@@@?$map@PEBUtextureReference@@PEAUcudaTexture@cudart@@@cudart@@QEAA?AV?$base_iterator@$0A@@?$set@Uentry@?$map@PEBUtextureReference@@PEAUcudaTexture@cudart@@@cudart@@@1@AEBQEBUtextureReference@@@Z 0000000180034fa0 f i cudart_static:cudart_context.obj
 0001:00033fc0       ??$find@PEBUtextureReference@@@?$set@Uentry@?$map@PEBUtextureReference@@PEAUcudaTexture@cudart@@@cudart@@@cudart@@QEAA?AV?$base_iterator@$0A@@01@AEBQEBUtextureReference@@@Z 0000000180034fc0 f i cudart_static:cudart_context.obj
 0001:00034070       ??$find@PEBX@?$map@PEBXPEAUcudaEntryFunction@cudart@@@cudart@@QEAA?AV?$base_iterator@$0A@@?$set@Uentry@?$map@PEBXPEAUcudaEntryFunction@cudart@@@cudart@@@1@AEBQEBX@Z 0000000180035070 f i cudart_static:cudart_context.obj
 0001:00034090       ??$find@PEBX@?$map@PEBXPEAUcudaVariable@cudart@@@cudart@@QEAA?AV?$base_iterator@$0A@@?$set@Uentry@?$map@PEBXPEAUcudaVariable@cudart@@@cudart@@@1@AEBQEBX@Z 0000000180035090 f i cudart_static:cudart_context.obj
 0001:000340b0       ??$find@PEBX@?$set@Uentry@?$map@PEBXPEAUcudaEntryFunction@cudart@@@cudart@@@cudart@@QEAA?AV?$base_iterator@$0A@@01@AEBQEBX@Z 00000001800350b0 f i cudart_static:cudart_context.obj
 0001:00034160       ??$find@PEBX@?$set@Uentry@?$map@PEBXPEAUcudaVariable@cudart@@@cudart@@@cudart@@QEAA?AV?$base_iterator@$0A@@01@AEBQEBX@Z 0000000180035160 f i cudart_static:cudart_context.obj
 0001:00034210       ??$find_place@PEAUglobalModule@cudart@@@?$set@PEAUglobalModule@cudart@@@cudart@@AEAAPEAPEAVnode@01@AEBQEAUglobalModule@1@PEAK@Z 0000000180035210 f i cudart_static:cudart_context.obj
 0001:00034240       ??$find_place@PEAUglobalModule@cudart@@@?$set@PEAUglobalModule@cudart@@@cudart@@AEBAPEBQEBVnode@01@AEBQEAUglobalModule@1@PEAK@Z 0000000180035240 f i cudart_static:cudart_context.obj
 0001:00034270       ??$find_place@PEAUglobalModule@cudart@@@?$set@PEAUglobalModule@cudart@@@cudart@@CAPEAPEAVnode@01@PEAPEAV201@HAEBQEAUglobalModule@1@PEAK@Z 0000000180035270 f i cudart_static:cudart_context.obj
 0001:00034290       ??$find_place@PEAUglobalModule@cudart@@@?$set@PEAUglobalModule@cudart@@@cudart@@CAPEBQEBVnode@01@PEBQEBV201@HAEBQEAUglobalModule@1@PEAK@Z 0000000180035290 f i cudart_static:cudart_context.obj
 0001:00034390       ??$find_place@PEAUglobalModule@cudart@@@?$set@Uentry@?$map@PEAUglobalModule@cudart@@PEAUmodule@2@@cudart@@@cudart@@AEAAPEAPEAVnode@01@AEBQEAUglobalModule@1@PEAK@Z 0000000180035390 f i cudart_static:cudart_context.obj
 0001:000343c0       ??$find_place@PEAUglobalModule@cudart@@@?$set@Uentry@?$map@PEAUglobalModule@cudart@@PEAUmodule@2@@cudart@@@cudart@@CAPEAPEAVnode@01@PEAPEAV201@HAEBQEAUglobalModule@1@PEAK@Z 00000001800353c0 f i cudart_static:cudart_context.obj
 0001:000343e0       ??$find_place@PEAUglobalModule@cudart@@@?$set@Uentry@?$map@PEAUglobalModule@cudart@@PEAUmodule@2@@cudart@@@cudart@@CAPEBQEBVnode@01@PEBQEBV201@HAEBQEAUglobalModule@1@PEAK@Z 00000001800353e0 f i cudart_static:cudart_context.obj
 0001:000344e0       ??$find_place@PEAUmodule@cudart@@@?$set@PEAUmodule@cudart@@@cudart@@AEAAPEAPEAVnode@01@AEBQEAUmodule@1@PEAK@Z 00000001800354e0 f i cudart_static:cudart_context.obj
 0001:00034510       ??$find_place@PEAUmodule@cudart@@@?$set@PEAUmodule@cudart@@@cudart@@CAPEAPEAVnode@01@PEAPEAV201@HAEBQEAUmodule@1@PEAK@Z 0000000180035510 f i cudart_static:cudart_context.obj
 0001:00034530       ??$find_place@PEAUmodule@cudart@@@?$set@PEAUmodule@cudart@@@cudart@@CAPEBQEBVnode@01@PEBQEBV201@HAEBQEAUmodule@1@PEAK@Z 0000000180035530 f i cudart_static:cudart_context.obj
 0001:00034630       ??$find_place@PEAX@?$set@Uentry@?$map@PEBXPEAUcudaEntryFunction@cudart@@@cudart@@@cudart@@AEAAPEAPEAVnode@01@AEBQEAXPEAK@Z 0000000180035630 f i cudart_static:cudart_context.obj
 0001:00034660       ??$find_place@PEAX@?$set@Uentry@?$map@PEBXPEAUcudaEntryFunction@cudart@@@cudart@@@cudart@@CAPEAPEAVnode@01@PEAPEAV201@HAEBQEAXPEAK@Z 0000000180035660 f i cudart_static:cudart_context.obj
 0001:00034680       ??$find_place@PEAX@?$set@Uentry@?$map@PEBXPEAUcudaEntryFunction@cudart@@@cudart@@@cudart@@CAPEBQEBVnode@01@PEBQEBV201@HAEBQEAXPEAK@Z 0000000180035680 f i cudart_static:cudart_context.obj
 0001:00034780       ??$find_place@PEAX@?$set@Uentry@?$map@PEBXPEAUcudaVariable@cudart@@@cudart@@@cudart@@AEAAPEAPEAVnode@01@AEBQEAXPEAK@Z 0000000180035780 f i cudart_static:cudart_context.obj
 0001:000347b0       ??$find_place@PEAX@?$set@Uentry@?$map@PEBXPEAUcudaVariable@cudart@@@cudart@@@cudart@@CAPEAPEAVnode@01@PEAPEAV201@HAEBQEAXPEAK@Z 00000001800357b0 f i cudart_static:cudart_context.obj
 0001:000347d0       ??$find_place@PEAX@?$set@Uentry@?$map@PEBXPEAUcudaVariable@cudart@@@cudart@@@cudart@@CAPEBQEBVnode@01@PEBQEBV201@HAEBQEAXPEAK@Z 00000001800357d0 f i cudart_static:cudart_context.obj
 0001:000348d0       ??$find_place@PEBUsurfaceReference@@@?$set@PEBUsurfaceReference@@@cudart@@AEAAPEAPEAVnode@01@AEBQEBUsurfaceReference@@PEAK@Z 00000001800358d0 f i cudart_static:cudart_context.obj
 0001:00034900       ??$find_place@PEBUsurfaceReference@@@?$set@PEBUsurfaceReference@@@cudart@@CAPEAPEAVnode@01@PEAPEAV201@HAEBQEBUsurfaceReference@@PEAK@Z 0000000180035900 f i cudart_static:cudart_context.obj
 0001:00034920       ??$find_place@PEBUsurfaceReference@@@?$set@PEBUsurfaceReference@@@cudart@@CAPEBQEBVnode@01@PEBQEBV201@HAEBQEBUsurfaceReference@@PEAK@Z 0000000180035920 f i cudart_static:cudart_context.obj
 0001:00034a20       ??$find_place@PEBUsurfaceReference@@@?$set@Uentry@?$map@PEBUsurfaceReference@@PEAUcudaSurface@cudart@@@cudart@@@cudart@@AEAAPEAPEAVnode@01@AEBQEBUsurfaceReference@@PEAK@Z 0000000180035a20 f i cudart_static:cudart_context.obj
 0001:00034a50       ??$find_place@PEBUsurfaceReference@@@?$set@Uentry@?$map@PEBUsurfaceReference@@PEAUcudaSurface@cudart@@@cudart@@@cudart@@CAPEAPEAVnode@01@PEAPEAV201@HAEBQEBUsurfaceReference@@PEAK@Z 0000000180035a50 f i cudart_static:cudart_context.obj
 0001:00034a70       ??$find_place@PEBUsurfaceReference@@@?$set@Uentry@?$map@PEBUsurfaceReference@@PEAUcudaSurface@cudart@@@cudart@@@cudart@@CAPEBQEBVnode@01@PEBQEBV201@HAEBQEBUsurfaceReference@@PEAK@Z 0000000180035a70 f i cudart_static:cudart_context.obj
 0001:00034b70       ??$find_place@PEBUtextureReference@@@?$set@PEBUtextureReference@@@cudart@@AEAAPEAPEAVnode@01@AEBQEBUtextureReference@@PEAK@Z 0000000180035b70 f i cudart_static:cudart_context.obj
 0001:00034ba0       ??$find_place@PEBUtextureReference@@@?$set@PEBUtextureReference@@@cudart@@CAPEAPEAVnode@01@PEAPEAV201@HAEBQEBUtextureReference@@PEAK@Z 0000000180035ba0 f i cudart_static:cudart_context.obj
 0001:00034bc0       ??$find_place@PEBUtextureReference@@@?$set@PEBUtextureReference@@@cudart@@CAPEBQEBVnode@01@PEBQEBV201@HAEBQEBUtextureReference@@PEAK@Z 0000000180035bc0 f i cudart_static:cudart_context.obj
 0001:00034cc0       ??$find_place@PEBUtextureReference@@@?$set@Uentry@?$map@PEBUtextureReference@@PEAUcudaTexture@cudart@@@cudart@@@cudart@@AEAAPEAPEAVnode@01@AEBQEBUtextureReference@@PEAK@Z 0000000180035cc0 f i cudart_static:cudart_context.obj
 0001:00034cf0       ??$find_place@PEBUtextureReference@@@?$set@Uentry@?$map@PEBUtextureReference@@PEAUcudaTexture@cudart@@@cudart@@@cudart@@CAPEAPEAVnode@01@PEAPEAV201@HAEBQEBUtextureReference@@PEAK@Z 0000000180035cf0 f i cudart_static:cudart_context.obj
 0001:00034d10       ??$find_place@PEBUtextureReference@@@?$set@Uentry@?$map@PEBUtextureReference@@PEAUcudaTexture@cudart@@@cudart@@@cudart@@CAPEBQEBVnode@01@PEBQEBV201@HAEBQEBUtextureReference@@PEAK@Z 0000000180035d10 f i cudart_static:cudart_context.obj
 0001:00034e10       ??$find_place@PEBX@?$set@PEBX@cudart@@AEAAPEAPEAVnode@01@AEBQEBXPEAK@Z 0000000180035e10 f i cudart_static:cudart_context.obj
 0001:00034e40       ??$find_place@PEBX@?$set@PEBX@cudart@@CAPEAPEAVnode@01@PEAPEAV201@HAEBQEBXPEAK@Z 0000000180035e40 f i cudart_static:cudart_context.obj
 0001:00034e60       ??$find_place@PEBX@?$set@PEBX@cudart@@CAPEBQEBVnode@01@PEBQEBV201@HAEBQEBXPEAK@Z 0000000180035e60 f i cudart_static:cudart_context.obj
 0001:00034f60       ??$find_place@PEBX@?$set@Uentry@?$map@PEBXPEAUcudaEntryFunction@cudart@@@cudart@@@cudart@@AEAAPEAPEAVnode@01@AEBQEBXPEAK@Z 0000000180035f60 f i cudart_static:cudart_context.obj
 0001:00034f90       ??$find_place@PEBX@?$set@Uentry@?$map@PEBXPEAUcudaEntryFunction@cudart@@@cudart@@@cudart@@CAPEAPEAVnode@01@PEAPEAV201@HAEBQEBXPEAK@Z 0000000180035f90 f i cudart_static:cudart_context.obj
 0001:00034fb0       ??$find_place@PEBX@?$set@Uentry@?$map@PEBXPEAUcudaEntryFunction@cudart@@@cudart@@@cudart@@CAPEBQEBVnode@01@PEBQEBV201@HAEBQEBXPEAK@Z 0000000180035fb0 f i cudart_static:cudart_context.obj
 0001:000350b0       ??$find_place@PEBX@?$set@Uentry@?$map@PEBXPEAUcudaVariable@cudart@@@cudart@@@cudart@@AEAAPEAPEAVnode@01@AEBQEBXPEAK@Z 00000001800360b0 f i cudart_static:cudart_context.obj
 0001:000350e0       ??$find_place@PEBX@?$set@Uentry@?$map@PEBXPEAUcudaVariable@cudart@@@cudart@@@cudart@@CAPEAPEAVnode@01@PEAPEAV201@HAEBQEBXPEAK@Z 00000001800360e0 f i cudart_static:cudart_context.obj
 0001:00035100       ??$find_place@PEBX@?$set@Uentry@?$map@PEBXPEAUcudaVariable@cudart@@@cudart@@@cudart@@CAPEBQEBVnode@01@PEBQEBV201@HAEBQEBXPEAK@Z 0000000180036100 f i cudart_static:cudart_context.obj
 0001:00035200       ??$find_place@Uentry@?$map@PEAUglobalModule@cudart@@PEAUmodule@2@@cudart@@@?$set@Uentry@?$map@PEAUglobalModule@cudart@@PEAUmodule@2@@cudart@@@cudart@@AEAAPEAPEAVnode@01@AEBUentry@?$map@PEAUglobalModule@cudart@@PEAUmodule@2@@1@PEAK@Z 0000000180036200 f i cudart_static:cudart_context.obj
 0001:00035230       ??$find_place@Uentry@?$map@PEAUglobalModule@cudart@@PEAUmodule@2@@cudart@@@?$set@Uentry@?$map@PEAUglobalModule@cudart@@PEAUmodule@2@@cudart@@@cudart@@CAPEAPEAVnode@01@PEAPEAV201@HAEBUentry@?$map@PEAUglobalModule@cudart@@PEAUmodule@2@@1@PEAK@Z 0000000180036230 f i cudart_static:cudart_context.obj
 0001:00035250       ??$find_place@Uentry@?$map@PEAUglobalModule@cudart@@PEAUmodule@2@@cudart@@@?$set@Uentry@?$map@PEAUglobalModule@cudart@@PEAUmodule@2@@cudart@@@cudart@@CAPEBQEBVnode@01@PEBQEBV201@HAEBUentry@?$map@PEAUglobalModule@cudart@@PEAUmodule@2@@1@PEAK@Z 0000000180036250 f i cudart_static:cudart_context.obj
 0001:00035350       ??$find_place@Uentry@?$map@PEBUsurfaceReference@@PEAUcudaSurface@cudart@@@cudart@@@?$set@Uentry@?$map@PEBUsurfaceReference@@PEAUcudaSurface@cudart@@@cudart@@@cudart@@AEAAPEAPEAVnode@01@AEBUentry@?$map@PEBUsurfaceReference@@PEAUcudaSurface@cudart@@@1@PEAK@Z 0000000180036350 f i cudart_static:cudart_context.obj
 0001:00035380       ??$find_place@Uentry@?$map@PEBUsurfaceReference@@PEAUcudaSurface@cudart@@@cudart@@@?$set@Uentry@?$map@PEBUsurfaceReference@@PEAUcudaSurface@cudart@@@cudart@@@cudart@@CAPEAPEAVnode@01@PEAPEAV201@HAEBUentry@?$map@PEBUsurfaceReference@@PEAUcudaSurface@cudart@@@1@PEAK@Z 0000000180036380 f i cudart_static:cudart_context.obj
 0001:000353a0       ??$find_place@Uentry@?$map@PEBUsurfaceReference@@PEAUcudaSurface@cudart@@@cudart@@@?$set@Uentry@?$map@PEBUsurfaceReference@@PEAUcudaSurface@cudart@@@cudart@@@cudart@@CAPEBQEBVnode@01@PEBQEBV201@HAEBUentry@?$map@PEBUsurfaceReference@@PEAUcudaSurface@cudart@@@1@PEAK@Z 00000001800363a0 f i cudart_static:cudart_context.obj
 0001:000354a0       ??$find_place@Uentry@?$map@PEBUtextureReference@@PEAUcudaTexture@cudart@@@cudart@@@?$set@Uentry@?$map@PEBUtextureReference@@PEAUcudaTexture@cudart@@@cudart@@@cudart@@AEAAPEAPEAVnode@01@AEBUentry@?$map@PEBUtextureReference@@PEAUcudaTexture@cudart@@@1@PEAK@Z 00000001800364a0 f i cudart_static:cudart_context.obj
 0001:000354d0       ??$find_place@Uentry@?$map@PEBUtextureReference@@PEAUcudaTexture@cudart@@@cudart@@@?$set@Uentry@?$map@PEBUtextureReference@@PEAUcudaTexture@cudart@@@cudart@@@cudart@@CAPEAPEAVnode@01@PEAPEAV201@HAEBUentry@?$map@PEBUtextureReference@@PEAUcudaTexture@cudart@@@1@PEAK@Z 00000001800364d0 f i cudart_static:cudart_context.obj
 0001:000354f0       ??$find_place@Uentry@?$map@PEBUtextureReference@@PEAUcudaTexture@cudart@@@cudart@@@?$set@Uentry@?$map@PEBUtextureReference@@PEAUcudaTexture@cudart@@@cudart@@@cudart@@CAPEBQEBVnode@01@PEBQEBV201@HAEBUentry@?$map@PEBUtextureReference@@PEAUcudaTexture@cudart@@@1@PEAK@Z 00000001800364f0 f i cudart_static:cudart_context.obj
 0001:000355f0       ??$find_place@Uentry@?$map@PEBXPEAUcudaEntryFunction@cudart@@@cudart@@@?$set@Uentry@?$map@PEBXPEAUcudaEntryFunction@cudart@@@cudart@@@cudart@@AEAAPEAPEAVnode@01@AEBUentry@?$map@PEBXPEAUcudaEntryFunction@cudart@@@1@PEAK@Z 00000001800365f0 f i cudart_static:cudart_context.obj
 0001:00035620       ??$find_place@Uentry@?$map@PEBXPEAUcudaEntryFunction@cudart@@@cudart@@@?$set@Uentry@?$map@PEBXPEAUcudaEntryFunction@cudart@@@cudart@@@cudart@@CAPEAPEAVnode@01@PEAPEAV201@HAEBUentry@?$map@PEBXPEAUcudaEntryFunction@cudart@@@1@PEAK@Z 0000000180036620 f i cudart_static:cudart_context.obj
 0001:00035640       ??$find_place@Uentry@?$map@PEBXPEAUcudaEntryFunction@cudart@@@cudart@@@?$set@Uentry@?$map@PEBXPEAUcudaEntryFunction@cudart@@@cudart@@@cudart@@CAPEBQEBVnode@01@PEBQEBV201@HAEBUentry@?$map@PEBXPEAUcudaEntryFunction@cudart@@@1@PEAK@Z 0000000180036640 f i cudart_static:cudart_context.obj
 0001:00035740       ??$find_place@Uentry@?$map@PEBXPEAUcudaVariable@cudart@@@cudart@@@?$set@Uentry@?$map@PEBXPEAUcudaVariable@cudart@@@cudart@@@cudart@@AEAAPEAPEAVnode@01@AEBUentry@?$map@PEBXPEAUcudaVariable@cudart@@@1@PEAK@Z 0000000180036740 f i cudart_static:cudart_context.obj
 0001:00035770       ??$find_place@Uentry@?$map@PEBXPEAUcudaVariable@cudart@@@cudart@@@?$set@Uentry@?$map@PEBXPEAUcudaVariable@cudart@@@cudart@@@cudart@@CAPEAPEAVnode@01@PEAPEAV201@HAEBUentry@?$map@PEBXPEAUcudaVariable@cudart@@@1@PEAK@Z 0000000180036770 f i cudart_static:cudart_context.obj
 0001:00035790       ??$find_place@Uentry@?$map@PEBXPEAUcudaVariable@cudart@@@cudart@@@?$set@Uentry@?$map@PEBXPEAUcudaVariable@cudart@@@cudart@@@cudart@@CAPEBQEBVnode@01@PEBQEBV201@HAEBUentry@?$map@PEBXPEAUcudaVariable@cudart@@@1@PEAK@Z 0000000180036790 f i cudart_static:cudart_context.obj
 0001:00035890       ??0?$base_iterator@$00@?$list@PEAUcudaTexture@cudart@@@cudart@@QEAA@AEBV012@@Z 0000000180036890 f i cudart_static:cudart_context.obj
 0001:000358a0       ??0?$base_iterator@$00@?$list@PEAUcudaTexture@cudart@@@cudart@@QEAA@AEBV?$base_iterator@$0A@@12@@Z 00000001800368a0 f i cudart_static:cudart_context.obj
 0001:000358b0       ??0?$base_iterator@$00@?$list@PEAUcudaTexture@cudart@@@cudart@@QEAA@PEAVnode@12@@Z 00000001800368b0 f i cudart_static:cudart_context.obj
 0001:000358c0       ??0?$base_iterator@$0A@@?$list@PEAUcudaTexture@cudart@@@cudart@@QEAA@PEAVnode@12@@Z 00000001800368c0 f i cudart_static:cudart_context.obj
 0001:000358d0       ??0?$base_iterator@$0A@@?$list@UvariableTemp@cudart@@@cudart@@QEAA@AEBV012@@Z 00000001800368d0 f i cudart_static:cudart_context.obj
 0001:000358e0       ??0?$base_iterator@$0A@@?$list@UvariableTemp@cudart@@@cudart@@QEAA@PEAVnode@12@@Z 00000001800368e0 f i cudart_static:cudart_context.obj
 0001:000358f0       ??0?$base_iterator@$0A@@?$set@PEAUglobalModule@cudart@@@cudart@@QEAA@PEAPEAVnode@12@I@Z 00000001800368f0 f i cudart_static:cudart_context.obj
 0001:00035940       ??0?$base_iterator@$0A@@?$set@PEAUmodule@cudart@@@cudart@@QEAA@PEAPEAVnode@12@I@Z 0000000180036940 f i cudart_static:cudart_context.obj
 0001:00035990       ??0?$base_iterator@$0A@@?$set@PEBUsurfaceReference@@@cudart@@QEAA@AEBV012@@Z 0000000180036990 f i cudart_static:cudart_context.obj
 0001:000359b0       ??0?$base_iterator@$0A@@?$set@PEBUsurfaceReference@@@cudart@@QEAA@PEAPEAVnode@12@I@Z 00000001800369b0 f i cudart_static:cudart_context.obj
 0001:00035a00       ??0?$base_iterator@$0A@@?$set@PEBUtextureReference@@@cudart@@QEAA@AEBV012@@Z 0000000180036a00 f i cudart_static:cudart_context.obj
 0001:00035a20       ??0?$base_iterator@$0A@@?$set@PEBUtextureReference@@@cudart@@QEAA@PEAPEAVnode@12@I@Z 0000000180036a20 f i cudart_static:cudart_context.obj
 0001:00035a70       ??0?$base_iterator@$0A@@?$set@PEBX@cudart@@QEAA@AEBV012@@Z 0000000180036a70 f i cudart_static:cudart_context.obj
 0001:00035a90       ??0?$base_iterator@$0A@@?$set@PEBX@cudart@@QEAA@PEAPEAVnode@12@I@Z 0000000180036a90 f i cudart_static:cudart_context.obj
 0001:00035ae0       ??0?$base_iterator@$0A@@?$set@Uentry@?$map@PEAUglobalModule@cudart@@PEAUmodule@2@@cudart@@@cudart@@QEAA@PEAPEAVnode@12@I@Z 0000000180036ae0 f i cudart_static:cudart_context.obj
 0001:00035b30       ??0?$base_iterator@$0A@@?$set@Uentry@?$map@PEAUglobalModule@cudart@@PEAUmodule@2@@cudart@@@cudart@@QEAA@PEAPEAVnode@12@IPEAV312@@Z 0000000180036b30 f i cudart_static:cudart_context.obj
 0001:00035b50       ??0?$base_iterator@$0A@@?$set@Uentry@?$map@PEBUsurfaceReference@@PEAUcudaSurface@cudart@@@cudart@@@cudart@@QEAA@PEAPEAVnode@12@I@Z 0000000180036b50 f i cudart_static:cudart_context.obj
 0001:00035ba0       ??0?$base_iterator@$0A@@?$set@Uentry@?$map@PEBUsurfaceReference@@PEAUcudaSurface@cudart@@@cudart@@@cudart@@QEAA@PEAPEAVnode@12@IPEAV312@@Z 0000000180036ba0 f i cudart_static:cudart_context.obj
 0001:00035bc0       ??0?$base_iterator@$0A@@?$set@Uentry@?$map@PEBUtextureReference@@PEAUcudaTexture@cudart@@@cudart@@@cudart@@QEAA@PEAPEAVnode@12@I@Z 0000000180036bc0 f i cudart_static:cudart_context.obj
 0001:00035c10       ??0?$base_iterator@$0A@@?$set@Uentry@?$map@PEBUtextureReference@@PEAUcudaTexture@cudart@@@cudart@@@cudart@@QEAA@PEAPEAVnode@12@IPEAV312@@Z 0000000180036c10 f i cudart_static:cudart_context.obj
 0001:00035c30       ??0?$base_iterator@$0A@@?$set@Uentry@?$map@PEBXPEAUcudaEntryFunction@cudart@@@cudart@@@cudart@@QEAA@PEAPEAVnode@12@I@Z 0000000180036c30 f i cudart_static:cudart_context.obj
 0001:00035c80       ??0?$base_iterator@$0A@@?$set@Uentry@?$map@PEBXPEAUcudaEntryFunction@cudart@@@cudart@@@cudart@@QEAA@PEAPEAVnode@12@IPEAV312@@Z 0000000180036c80 f i cudart_static:cudart_context.obj
 0001:00035ca0       ??0?$base_iterator@$0A@@?$set@Uentry@?$map@PEBXPEAUcudaVariable@cudart@@@cudart@@@cudart@@QEAA@PEAPEAVnode@12@I@Z 0000000180036ca0 f i cudart_static:cudart_context.obj
 0001:00035cf0       ??0?$base_iterator@$0A@@?$set@Uentry@?$map@PEBXPEAUcudaVariable@cudart@@@cudart@@@cudart@@QEAA@PEAPEAVnode@12@IPEAV312@@Z 0000000180036cf0 f i cudart_static:cudart_context.obj
 0001:00035d10       ??0?$base_smart_ptr@Umy_char@string@cudart@@$00@cudart@@QEAA@AEBV01@@Z 0000000180036d10 f i cudart_static:cudart_context.obj
 0001:00035d30       ??0?$base_smart_ptr@Umy_char@string@cudart@@$00@cudart@@QEAA@PEAUmy_char@string@1@PEAW4cudaError@@@Z 0000000180036d30 f i cudart_static:cudart_context.obj
 0001:00035dc0       ??0?$base_smart_ptr@Umy_char@string@cudart@@$00@cudart@@QEAA@XZ 0000000180036dc0 f i cudart_static:cudart_context.obj
 0001:00035dd0       ??0?$list@PEAUcudaTexture@cudart@@@cudart@@QEAA@XZ 0000000180036dd0 f i cudart_static:cudart_context.obj
 0001:00035de0       ??0?$map@PEAUglobalModule@cudart@@PEAUmodule@2@@cudart@@QEAA@XZ 0000000180036de0 f i cudart_static:cudart_context.obj
 0001:00035df0       ??0?$map@PEBUsurfaceReference@@PEAUcudaSurface@cudart@@@cudart@@QEAA@XZ 0000000180036df0 f i cudart_static:cudart_context.obj
 0001:00035e00       ??0?$map@PEBUtextureReference@@PEAUcudaTexture@cudart@@@cudart@@QEAA@XZ 0000000180036e00 f i cudart_static:cudart_context.obj
 0001:00035e10       ??0?$map@PEBXPEAUcudaEntryFunction@cudart@@@cudart@@QEAA@XZ 0000000180036e10 f i cudart_static:cudart_context.obj
 0001:00035e20       ??0?$map@PEBXPEAUcudaVariable@cudart@@@cudart@@QEAA@XZ 0000000180036e20 f i cudart_static:cudart_context.obj
 0001:00035e30       ??0?$set@PEAUglobalModule@cudart@@@cudart@@QEAA@XZ 0000000180036e30 f i cudart_static:cudart_context.obj
 0001:00035e40       ??0?$set@PEAUmodule@cudart@@@cudart@@QEAA@XZ 0000000180036e40 f i cudart_static:cudart_context.obj
 0001:00035e50       ??0?$set@PEBUsurfaceReference@@@cudart@@QEAA@XZ 0000000180036e50 f i cudart_static:cudart_context.obj
 0001:00035e60       ??0?$set@PEBUtextureReference@@@cudart@@QEAA@XZ 0000000180036e60 f i cudart_static:cudart_context.obj
 0001:00035e70       ??0?$set@PEBX@cudart@@QEAA@XZ 0000000180036e70 f i cudart_static:cudart_context.obj
 0001:00035e80       ??0?$set@Uentry@?$map@PEAUglobalModule@cudart@@PEAUmodule@2@@cudart@@@cudart@@QEAA@XZ 0000000180036e80 f i cudart_static:cudart_context.obj
 0001:00035e90       ??0?$set@Uentry@?$map@PEBUsurfaceReference@@PEAUcudaSurface@cudart@@@cudart@@@cudart@@QEAA@XZ 0000000180036e90 f i cudart_static:cudart_context.obj
 0001:00035ea0       ??0?$set@Uentry@?$map@PEBUtextureReference@@PEAUcudaTexture@cudart@@@cudart@@@cudart@@QEAA@XZ 0000000180036ea0 f i cudart_static:cudart_context.obj
 0001:00035eb0       ??0?$set@Uentry@?$map@PEBXPEAUcudaEntryFunction@cudart@@@cudart@@@cudart@@QEAA@XZ 0000000180036eb0 f i cudart_static:cudart_context.obj
 0001:00035ec0       ??0?$set@Uentry@?$map@PEBXPEAUcudaVariable@cudart@@@cudart@@@cudart@@QEAA@XZ 0000000180036ec0 f i cudart_static:cudart_context.obj
 0001:00035ed0       ??0?$shared_array@Umy_char@string@cudart@@@cudart@@QEAA@AEBV01@@Z 0000000180036ed0 f i cudart_static:cudart_context.obj
 0001:00035ef0       ??0?$shared_array@Umy_char@string@cudart@@@cudart@@QEAA@PEAUmy_char@string@1@PEAW4cudaError@@@Z 0000000180036ef0 f i cudart_static:cudart_context.obj
 0001:00035f10       ??0?$shared_array@Umy_char@string@cudart@@@cudart@@QEAA@XZ 0000000180036f10 f i cudart_static:cudart_context.obj
 0001:00035f20       ??0BoundTexturesLock@contextState@cudart@@QEAA@AEAU_RTL_CRITICAL_SECTION@@@Z 0000000180036f20 f i cudart_static:cudart_context.obj
 0001:00035f50       ??0contextState@cudart@@QEAA@PEAUdevice@1@PEAUCUctx_st@@@Z 0000000180036f50 f   cudart_static:cudart_context.obj
 0001:00035ff0       ??0cudaEntryFunction@cudart@@QEAA@PEAUCUfunc_st@@PEBDHPEBX@Z 0000000180036ff0 f i cudart_static:cudart_context.obj
 0001:00036010       ??0cudaSurface@cudart@@QEAA@PEBUsurfaceReference@@H_NPEAUCUsurfref_st@@@Z 0000000180037010 f   cudart_static:cudart_context.obj
 0001:00036030       ??0cudaTexture@cudart@@QEAA@PEBUtextureReference@@H_N1PEAUCUtexref_st@@PEAVcontextState@1@@Z 0000000180037030 f   cudart_static:cudart_context.obj
 0001:00036070       ??0cudaVariable@cudart@@QEAA@PEAXPEAUCUmod_st@@PEBD_N@Z 0000000180037070 f   cudart_static:cudart_context.obj
 0001:00036090       ??0entry@?$map@PEAUglobalModule@cudart@@PEAUmodule@2@@cudart@@QEAA@AEBQEAUglobalModule@2@AEBQEAUmodule@2@@Z 0000000180037090 f i cudart_static:cudart_context.obj
 0001:000360b0       ??0entry@?$map@PEAUglobalModule@cudart@@PEAUmodule@2@@cudart@@QEAA@AEBU012@@Z 00000001800370b0 f i cudart_static:cudart_context.obj
 0001:000360d0       ??0entry@?$map@PEBUsurfaceReference@@PEAUcudaSurface@cudart@@@cudart@@QEAA@AEBQEBUsurfaceReference@@AEBQEAUcudaSurface@2@@Z 00000001800370d0 f i cudart_static:cudart_context.obj
 0001:000360f0       ??0entry@?$map@PEBUsurfaceReference@@PEAUcudaSurface@cudart@@@cudart@@QEAA@AEBU012@@Z 00000001800370f0 f i cudart_static:cudart_context.obj
 0001:00036110       ??0entry@?$map@PEBUtextureReference@@PEAUcudaTexture@cudart@@@cudart@@QEAA@AEBQEBUtextureReference@@AEBQEAUcudaTexture@2@@Z 0000000180037110 f i cudart_static:cudart_context.obj
 0001:00036130       ??0entry@?$map@PEBUtextureReference@@PEAUcudaTexture@cudart@@@cudart@@QEAA@AEBU012@@Z 0000000180037130 f i cudart_static:cudart_context.obj
 0001:00036150       ??0entry@?$map@PEBXPEAUcudaEntryFunction@cudart@@@cudart@@QEAA@AEBQEBXAEBQEAUcudaEntryFunction@2@@Z 0000000180037150 f i cudart_static:cudart_context.obj
 0001:00036170       ??0entry@?$map@PEBXPEAUcudaEntryFunction@cudart@@@cudart@@QEAA@AEBU012@@Z 0000000180037170 f i cudart_static:cudart_context.obj
 0001:00036190       ??0entry@?$map@PEBXPEAUcudaVariable@cudart@@@cudart@@QEAA@AEBQEBXAEBQEAUcudaVariable@2@@Z 0000000180037190 f i cudart_static:cudart_context.obj
 0001:000361b0       ??0entry@?$map@PEBXPEAUcudaVariable@cudart@@@cudart@@QEAA@AEBU012@@Z 00000001800371b0 f i cudart_static:cudart_context.obj
 0001:000361d0       ??0module@cudart@@QEAA@PEAVcontextState@1@PEAUCUmod_st@@W4cudaError_enum@@@Z 00000001800371d0 f   cudart_static:cudart_context.obj
 0001:00036210       ??0node@?$list@PEAUcudaTexture@cudart@@@cudart@@AEAA@AEBQEAUcudaTexture@2@PEAV012@1@Z 0000000180037210 f i cudart_static:cudart_context.obj
 0001:00036230       ??0node@?$set@PEAUglobalModule@cudart@@@cudart@@AEAA@KAEBQEAUglobalModule@2@@Z 0000000180037230 f i cudart_static:cudart_context.obj
 0001:00036250       ??0node@?$set@PEAUmodule@cudart@@@cudart@@AEAA@KAEBQEAUmodule@2@@Z 0000000180037250 f i cudart_static:cudart_context.obj
 0001:00036270       ??0node@?$set@PEBUsurfaceReference@@@cudart@@AEAA@KAEBQEBUsurfaceReference@@@Z 0000000180037270 f i cudart_static:cudart_context.obj
 0001:00036290       ??0node@?$set@PEBUtextureReference@@@cudart@@AEAA@KAEBQEBUtextureReference@@@Z 0000000180037290 f i cudart_static:cudart_context.obj
 0001:000362b0       ??0node@?$set@PEBX@cudart@@AEAA@KAEBQEBX@Z 00000001800372b0 f i cudart_static:cudart_context.obj
 0001:000362d0       ??0node@?$set@Uentry@?$map@PEAUglobalModule@cudart@@PEAUmodule@2@@cudart@@@cudart@@AEAA@KAEBUentry@?$map@PEAUglobalModule@cudart@@PEAUmodule@2@@2@@Z 00000001800372d0 f i cudart_static:cudart_context.obj
 0001:000362f0       ??0node@?$set@Uentry@?$map@PEBUsurfaceReference@@PEAUcudaSurface@cudart@@@cudart@@@cudart@@AEAA@KAEBUentry@?$map@PEBUsurfaceReference@@PEAUcudaSurface@cudart@@@2@@Z 00000001800372f0 f i cudart_static:cudart_context.obj
 0001:00036310       ??0node@?$set@Uentry@?$map@PEBUtextureReference@@PEAUcudaTexture@cudart@@@cudart@@@cudart@@AEAA@KAEBUentry@?$map@PEBUtextureReference@@PEAUcudaTexture@cudart@@@2@@Z 0000000180037310 f i cudart_static:cudart_context.obj
 0001:00036330       ??0node@?$set@Uentry@?$map@PEBXPEAUcudaEntryFunction@cudart@@@cudart@@@cudart@@AEAA@KAEBUentry@?$map@PEBXPEAUcudaEntryFunction@cudart@@@2@@Z 0000000180037330 f i cudart_static:cudart_context.obj
 0001:00036350       ??0node@?$set@Uentry@?$map@PEBXPEAUcudaVariable@cudart@@@cudart@@@cudart@@AEAA@KAEBUentry@?$map@PEBXPEAUcudaVariable@cudart@@@2@@Z 0000000180037350 f i cudart_static:cudart_context.obj
 0001:00036370       ??0reference@?$base_smart_ptr@Umy_char@string@cudart@@$00@cudart@@AEAA@PEAUmy_char@string@2@@Z 0000000180037370 f i cudart_static:cudart_context.obj
 0001:00036380       ??0string@cudart@@QEAA@PEBDPEAW4cudaError@@@Z 0000000180037380 f i cudart_static:cudart_context.obj
 0001:000363a0       ??1?$base_smart_ptr@Umy_char@string@cudart@@$00@cudart@@QEAA@XZ 00000001800373a0 f i cudart_static:cudart_context.obj
 0001:000363e0       ??1?$list@PEAUcudaTexture@cudart@@@cudart@@QEAA@XZ 00000001800373e0 f i cudart_static:cudart_context.obj
 0001:00036420       ??1?$map@PEAUglobalModule@cudart@@PEAUmodule@2@@cudart@@QEAA@XZ 0000000180037420 f i cudart_static:cudart_context.obj
 0001:00036440       ??1?$map@PEBUsurfaceReference@@PEAUcudaSurface@cudart@@@cudart@@QEAA@XZ 0000000180037440 f i cudart_static:cudart_context.obj
 0001:00036460       ??1?$map@PEBUtextureReference@@PEAUcudaTexture@cudart@@@cudart@@QEAA@XZ 0000000180037460 f i cudart_static:cudart_context.obj
 0001:00036480       ??1?$map@PEBXPEAUcudaEntryFunction@cudart@@@cudart@@QEAA@XZ 0000000180037480 f i cudart_static:cudart_context.obj
 0001:000364a0       ??1?$map@PEBXPEAUcudaVariable@cudart@@@cudart@@QEAA@XZ 00000001800374a0 f i cudart_static:cudart_context.obj
 0001:000364c0       ??1?$set@PEAUglobalModule@cudart@@@cudart@@QEAA@XZ 00000001800374c0 f i cudart_static:cudart_context.obj
 0001:000364e0       ??1?$set@PEAUmodule@cudart@@@cudart@@QEAA@XZ 00000001800374e0 f i cudart_static:cudart_context.obj
 0001:00036500       ??1?$set@PEBUsurfaceReference@@@cudart@@QEAA@XZ 0000000180037500 f i cudart_static:cudart_context.obj
 0001:00036520       ??1?$set@PEBUtextureReference@@@cudart@@QEAA@XZ 0000000180037520 f i cudart_static:cudart_context.obj
 0001:00036540       ??1?$set@PEBX@cudart@@QEAA@XZ 0000000180037540 f i cudart_static:cudart_context.obj
 0001:00036560       ??1?$set@Uentry@?$map@PEAUglobalModule@cudart@@PEAUmodule@2@@cudart@@@cudart@@QEAA@XZ 0000000180037560 f i cudart_static:cudart_context.obj
 0001:00036580       ??1?$set@Uentry@?$map@PEBUsurfaceReference@@PEAUcudaSurface@cudart@@@cudart@@@cudart@@QEAA@XZ 0000000180037580 f i cudart_static:cudart_context.obj
 0001:000365a0       ??1?$set@Uentry@?$map@PEBUtextureReference@@PEAUcudaTexture@cudart@@@cudart@@@cudart@@QEAA@XZ 00000001800375a0 f i cudart_static:cudart_context.obj
 0001:000365c0       ??1?$set@Uentry@?$map@PEBXPEAUcudaEntryFunction@cudart@@@cudart@@@cudart@@QEAA@XZ 00000001800375c0 f i cudart_static:cudart_context.obj
 0001:000365e0       ??1?$set@Uentry@?$map@PEBXPEAUcudaVariable@cudart@@@cudart@@@cudart@@QEAA@XZ 00000001800375e0 f i cudart_static:cudart_context.obj
 0001:00036600       ??1?$shared_array@Umy_char@string@cudart@@@cudart@@QEAA@XZ 0000000180037600 f i cudart_static:cudart_context.obj
 0001:00036640       ??1BoundTexturesLock@contextState@cudart@@QEAA@XZ 0000000180037640 f i cudart_static:cudart_context.obj
 0001:00036660       ??1contextState@cudart@@QEAA@XZ 0000000180037660 f   cudart_static:cudart_context.obj
 0001:00036720       ??1module@cudart@@QEAA@XZ  0000000180037720 f i cudart_static:cudart_context.obj
 0001:00036760       ??1reference@?$base_smart_ptr@Umy_char@string@cudart@@$00@cudart@@AEAA@XZ 0000000180037760 f i cudart_static:cudart_context.obj
 0001:00036780       ??1string@cudart@@QEAA@XZ  0000000180037780 f i cudart_static:cudart_context.obj
 0001:000367c0       ??2cudaEntryFunction@cudart@@SAPEAX_KAEBUnothrow_t@1@@Z 00000001800377c0 f i cudart_static:cudart_context.obj
 0001:000367e0       ??2cudaSurface@cudart@@SAPEAX_KAEBUnothrow_t@1@@Z 00000001800377e0 f i cudart_static:cudart_context.obj
 0001:00036800       ??2cudaTexture@cudart@@SAPEAX_KAEBUnothrow_t@1@@Z 0000000180037800 f i cudart_static:cudart_context.obj
 0001:00036820       ??2cudaVariable@cudart@@SAPEAX_KAEBUnothrow_t@1@@Z 0000000180037820 f i cudart_static:cudart_context.obj
 0001:00036840       ??2module@cudart@@SAPEAX_KAEBUnothrow_t@1@@Z 0000000180037840 f i cudart_static:cudart_context.obj
 0001:00036860       ??2node@?$list@PEAUcudaTexture@cudart@@@cudart@@SAPEAX_KAEBUnothrow_t@2@@Z 0000000180037860 f i cudart_static:cudart_context.obj
 0001:00036880       ??2node@?$set@PEAUglobalModule@cudart@@@cudart@@SAPEAX_KAEBUnothrow_t@2@@Z 0000000180037880 f i cudart_static:cudart_context.obj
 0001:000368a0       ??2node@?$set@PEAUmodule@cudart@@@cudart@@SAPEAX_KAEBUnothrow_t@2@@Z 00000001800378a0 f i cudart_static:cudart_context.obj
 0001:000368c0       ??2node@?$set@PEBUsurfaceReference@@@cudart@@SAPEAX_KAEBUnothrow_t@2@@Z 00000001800378c0 f i cudart_static:cudart_context.obj
 0001:000368e0       ??2node@?$set@PEBUtextureReference@@@cudart@@SAPEAX_KAEBUnothrow_t@2@@Z 00000001800378e0 f i cudart_static:cudart_context.obj
 0001:00036900       ??2node@?$set@PEBX@cudart@@SAPEAX_KAEBUnothrow_t@2@@Z 0000000180037900 f i cudart_static:cudart_context.obj
 0001:00036920       ??2node@?$set@Uentry@?$map@PEAUglobalModule@cudart@@PEAUmodule@2@@cudart@@@cudart@@SAPEAX_KAEBUnothrow_t@2@@Z 0000000180037920 f i cudart_static:cudart_context.obj
 0001:00036940       ??2node@?$set@Uentry@?$map@PEBUsurfaceReference@@PEAUcudaSurface@cudart@@@cudart@@@cudart@@SAPEAX_KAEBUnothrow_t@2@@Z 0000000180037940 f i cudart_static:cudart_context.obj
 0001:00036960       ??2node@?$set@Uentry@?$map@PEBUtextureReference@@PEAUcudaTexture@cudart@@@cudart@@@cudart@@SAPEAX_KAEBUnothrow_t@2@@Z 0000000180037960 f i cudart_static:cudart_context.obj
 0001:00036980       ??2node@?$set@Uentry@?$map@PEBXPEAUcudaEntryFunction@cudart@@@cudart@@@cudart@@SAPEAX_KAEBUnothrow_t@2@@Z 0000000180037980 f i cudart_static:cudart_context.obj
 0001:000369a0       ??2node@?$set@Uentry@?$map@PEBXPEAUcudaVariable@cudart@@@cudart@@@cudart@@SAPEAX_KAEBUnothrow_t@2@@Z 00000001800379a0 f i cudart_static:cudart_context.obj
 0001:000369c0       ??2reference@?$base_smart_ptr@Umy_char@string@cudart@@$00@cudart@@SAPEAX_KAEBUnothrow_t@2@@Z 00000001800379c0 f i cudart_static:cudart_context.obj
 0001:000369e0       ??3cudaEntryFunction@cudart@@SAXPEAX@Z 00000001800379e0 f i cudart_static:cudart_context.obj
 0001:00036a00       ??3cudaSurface@cudart@@SAXPEAX@Z 0000000180037a00 f i cudart_static:cudart_context.obj
 0001:00036a20       ??3cudaTexture@cudart@@SAXPEAX@Z 0000000180037a20 f i cudart_static:cudart_context.obj
 0001:00036a40       ??3cudaVariable@cudart@@SAXPEAX@Z 0000000180037a40 f i cudart_static:cudart_context.obj
 0001:00036a60       ??3module@cudart@@SAXPEAX@Z 0000000180037a60 f i cudart_static:cudart_context.obj
 0001:00036a80       ??3my_char@string@cudart@@SAXPEAX@Z 0000000180037a80 f i cudart_static:cudart_context.obj
 0001:00036aa0       ??3node@?$list@PEAUcudaTexture@cudart@@@cudart@@SAXPEAX@Z 0000000180037aa0 f i cudart_static:cudart_context.obj
 0001:00036ac0       ??3node@?$set@PEAUglobalModule@cudart@@@cudart@@SAXPEAX@Z 0000000180037ac0 f i cudart_static:cudart_context.obj
 0001:00036ae0       ??3node@?$set@PEAUmodule@cudart@@@cudart@@SAXPEAX@Z 0000000180037ae0 f i cudart_static:cudart_context.obj
 0001:00036b00       ??3node@?$set@PEBUsurfaceReference@@@cudart@@SAXPEAX@Z 0000000180037b00 f i cudart_static:cudart_context.obj
 0001:00036b20       ??3node@?$set@PEBUtextureReference@@@cudart@@SAXPEAX@Z 0000000180037b20 f i cudart_static:cudart_context.obj
 0001:00036b40       ??3node@?$set@PEBX@cudart@@SAXPEAX@Z 0000000180037b40 f i cudart_static:cudart_context.obj
 0001:00036b60       ??3node@?$set@Uentry@?$map@PEAUglobalModule@cudart@@PEAUmodule@2@@cudart@@@cudart@@SAXPEAX@Z 0000000180037b60 f i cudart_static:cudart_context.obj
 0001:00036b80       ??3node@?$set@Uentry@?$map@PEBUsurfaceReference@@PEAUcudaSurface@cudart@@@cudart@@@cudart@@SAXPEAX@Z 0000000180037b80 f i cudart_static:cudart_context.obj
 0001:00036ba0       ??3node@?$set@Uentry@?$map@PEBUtextureReference@@PEAUcudaTexture@cudart@@@cudart@@@cudart@@SAXPEAX@Z 0000000180037ba0 f i cudart_static:cudart_context.obj
 0001:00036bc0       ??3node@?$set@Uentry@?$map@PEBXPEAUcudaEntryFunction@cudart@@@cudart@@@cudart@@SAXPEAX@Z 0000000180037bc0 f i cudart_static:cudart_context.obj
 0001:00036be0       ??3node@?$set@Uentry@?$map@PEBXPEAUcudaVariable@cudart@@@cudart@@@cudart@@SAXPEAX@Z 0000000180037be0 f i cudart_static:cudart_context.obj
 0001:00036c00       ??3reference@?$base_smart_ptr@Umy_char@string@cudart@@$00@cudart@@SAXPEAX@Z 0000000180037c00 f i cudart_static:cudart_context.obj
 0001:00036c20       ??6cudart@@YAAEAUhash@0@AEAU10@AEBUentry@?$map@PEAUglobalModule@cudart@@PEAUmodule@2@@0@@Z 0000000180037c20 f i cudart_static:cudart_context.obj
 0001:00036cd0       ??6cudart@@YAAEAUhash@0@AEAU10@AEBUentry@?$map@PEBUsurfaceReference@@PEAUcudaSurface@cudart@@@0@@Z 0000000180037cd0 f i cudart_static:cudart_context.obj
 0001:00036d80       ??6cudart@@YAAEAUhash@0@AEAU10@AEBUentry@?$map@PEBUtextureReference@@PEAUcudaTexture@cudart@@@0@@Z 0000000180037d80 f i cudart_static:cudart_context.obj
 0001:00036e30       ??6cudart@@YAAEAUhash@0@AEAU10@AEBUentry@?$map@PEBXPEAUcudaEntryFunction@cudart@@@0@@Z 0000000180037e30 f i cudart_static:cudart_context.obj
 0001:00036ee0       ??6cudart@@YAAEAUhash@0@AEAU10@AEBUentry@?$map@PEBXPEAUcudaVariable@cudart@@@0@@Z 0000000180037ee0 f i cudart_static:cudart_context.obj
 0001:00036f90       ??8?$base_iterator@$0A@@?$set@Uentry@?$map@PEBUsurfaceReference@@PEAUcudaSurface@cudart@@@cudart@@@cudart@@QEBA_NAEBV012@@Z 0000000180037f90 f i cudart_static:cudart_context.obj
 0001:00036fa0       ??8?$base_iterator@$0A@@?$set@Uentry@?$map@PEBUtextureReference@@PEAUcudaTexture@cudart@@@cudart@@@cudart@@QEBA_NAEBV012@@Z 0000000180037fa0 f i cudart_static:cudart_context.obj
 0001:00036fb0       ??8?$base_iterator@$0A@@?$set@Uentry@?$map@PEBXPEAUcudaEntryFunction@cudart@@@cudart@@@cudart@@QEBA_NAEBV012@@Z 0000000180037fb0 f i cudart_static:cudart_context.obj
 0001:00036fc0       ??8?$base_iterator@$0A@@?$set@Uentry@?$map@PEBXPEAUcudaVariable@cudart@@@cudart@@@cudart@@QEBA_NAEBV012@@Z 0000000180037fc0 f i cudart_static:cudart_context.obj
 0001:00036fd0       ??9?$base_iterator@$00@?$list@PEAUcudaTexture@cudart@@@cudart@@QEBA_NAEBV012@@Z 0000000180037fd0 f i cudart_static:cudart_context.obj
 0001:00036fe0       ??9?$base_iterator@$0A@@?$list@UvariableTemp@cudart@@@cudart@@QEBA_NAEBV012@@Z 0000000180037fe0 f i cudart_static:cudart_context.obj
 0001:00036ff0       ??9?$base_iterator@$0A@@?$set@PEAUglobalModule@cudart@@@cudart@@QEBA_NAEBV012@@Z 0000000180037ff0 f i cudart_static:cudart_context.obj
 0001:00037000       ??9?$base_iterator@$0A@@?$set@PEAUmodule@cudart@@@cudart@@QEBA_NAEBV012@@Z 0000000180038000 f i cudart_static:cudart_context.obj
 0001:00037010       ??9?$base_iterator@$0A@@?$set@PEBUsurfaceReference@@@cudart@@QEBA_NAEBV012@@Z 0000000180038010 f i cudart_static:cudart_context.obj
 0001:00037020       ??9?$base_iterator@$0A@@?$set@PEBUtextureReference@@@cudart@@QEBA_NAEBV012@@Z 0000000180038020 f i cudart_static:cudart_context.obj
 0001:00037030       ??9?$base_iterator@$0A@@?$set@PEBX@cudart@@QEBA_NAEBV012@@Z 0000000180038030 f i cudart_static:cudart_context.obj
 0001:00037040       ??9?$base_iterator@$0A@@?$set@Uentry@?$map@PEAUglobalModule@cudart@@PEAUmodule@2@@cudart@@@cudart@@QEBA_NAEBV012@@Z 0000000180038040 f i cudart_static:cudart_context.obj
 0001:00037050       ??9?$base_iterator@$0A@@?$set@Uentry@?$map@PEBXPEAUcudaEntryFunction@cudart@@@cudart@@@cudart@@QEBA_NAEBV012@@Z 0000000180038050 f i cudart_static:cudart_context.obj
 0001:00037060       ??9?$base_iterator@$0A@@?$set@Uentry@?$map@PEBXPEAUcudaVariable@cudart@@@cudart@@@cudart@@QEBA_NAEBV012@@Z 0000000180038060 f i cudart_static:cudart_context.obj
 0001:00037070       ??9entry@?$map@PEAUglobalModule@cudart@@PEAUmodule@2@@cudart@@QEBA_NAEBU012@@Z 0000000180038070 f i cudart_static:cudart_context.obj
 0001:00037080       ??9entry@?$map@PEBUsurfaceReference@@PEAUcudaSurface@cudart@@@cudart@@QEBA_NAEBU012@@Z 0000000180038080 f i cudart_static:cudart_context.obj
 0001:00037090       ??9entry@?$map@PEBUtextureReference@@PEAUcudaTexture@cudart@@@cudart@@QEBA_NAEBU012@@Z 0000000180038090 f i cudart_static:cudart_context.obj
 0001:000370a0       ??9entry@?$map@PEBXPEAUcudaEntryFunction@cudart@@@cudart@@QEBA_NAEBU012@@Z 00000001800380a0 f i cudart_static:cudart_context.obj
 0001:000370b0       ??9entry@?$map@PEBXPEAUcudaVariable@cudart@@@cudart@@QEBA_NAEBU012@@Z 00000001800380b0 f i cudart_static:cudart_context.obj
 0001:000370c0       ??C?$base_iterator@$0A@@?$list@UvariableTemp@cudart@@@cudart@@QEBAPEAUvariableTemp@2@XZ 00000001800380c0 f i cudart_static:cudart_context.obj
 0001:000370d0       ??C?$base_iterator@$0A@@?$set@Uentry@?$map@PEAUglobalModule@cudart@@PEAUmodule@2@@cudart@@@cudart@@QEBAPEAUentry@?$map@PEAUglobalModule@cudart@@PEAUmodule@2@@2@XZ 00000001800380d0 f i cudart_static:cudart_context.obj
 0001:000370e0       ??C?$base_iterator@$0A@@?$set@Uentry@?$map@PEBUsurfaceReference@@PEAUcudaSurface@cudart@@@cudart@@@cudart@@QEBAPEAUentry@?$map@PEBUsurfaceReference@@PEAUcudaSurface@cudart@@@2@XZ 00000001800380e0 f i cudart_static:cudart_context.obj
 0001:000370f0       ??C?$base_iterator@$0A@@?$set@Uentry@?$map@PEBUtextureReference@@PEAUcudaTexture@cudart@@@cudart@@@cudart@@QEBAPEAUentry@?$map@PEBUtextureReference@@PEAUcudaTexture@cudart@@@2@XZ 00000001800380f0 f i cudart_static:cudart_context.obj
 0001:00037100       ??C?$base_iterator@$0A@@?$set@Uentry@?$map@PEBXPEAUcudaEntryFunction@cudart@@@cudart@@@cudart@@QEBAPEAUentry@?$map@PEBXPEAUcudaEntryFunction@cudart@@@2@XZ 0000000180038100 f i cudart_static:cudart_context.obj
 0001:00037110       ??C?$base_iterator@$0A@@?$set@Uentry@?$map@PEBXPEAUcudaVariable@cudart@@@cudart@@@cudart@@QEBAPEAUentry@?$map@PEBXPEAUcudaVariable@cudart@@@2@XZ 0000000180038110 f i cudart_static:cudart_context.obj
 0001:00037120       ??D?$base_iterator@$00@?$list@PEAUcudaTexture@cudart@@@cudart@@QEBAAEBQEAUcudaTexture@2@XZ 0000000180038120 f i cudart_static:cudart_context.obj
 0001:00037130       ??D?$base_iterator@$0A@@?$set@PEAUglobalModule@cudart@@@cudart@@QEBAAEAPEAUglobalModule@2@XZ 0000000180038130 f i cudart_static:cudart_context.obj
 0001:00037140       ??D?$base_iterator@$0A@@?$set@PEAUmodule@cudart@@@cudart@@QEBAAEAPEAUmodule@2@XZ 0000000180038140 f i cudart_static:cudart_context.obj
 0001:00037150       ??D?$base_iterator@$0A@@?$set@PEBUsurfaceReference@@@cudart@@QEBAAEAPEBUsurfaceReference@@XZ 0000000180038150 f i cudart_static:cudart_context.obj
 0001:00037160       ??D?$base_iterator@$0A@@?$set@PEBUtextureReference@@@cudart@@QEBAAEAPEBUtextureReference@@XZ 0000000180038160 f i cudart_static:cudart_context.obj
 0001:00037170       ??D?$base_iterator@$0A@@?$set@PEBX@cudart@@QEBAAEAPEBXXZ 0000000180038170 f i cudart_static:cudart_context.obj
 0001:00037180       ??E?$base_iterator@$00@?$list@PEAUcudaTexture@cudart@@@cudart@@QEAA?AV012@XZ 0000000180038180 f i cudart_static:cudart_context.obj
 0001:000371a0       ??E?$base_iterator@$0A@@?$list@UvariableTemp@cudart@@@cudart@@QEAA?AV012@XZ 00000001800381a0 f i cudart_static:cudart_context.obj
 0001:000371c0       ??E?$base_iterator@$0A@@?$set@PEAUglobalModule@cudart@@@cudart@@QEAAAEAV012@XZ 00000001800381c0 f i cudart_static:cudart_context.obj
 0001:000371f0       ??E?$base_iterator@$0A@@?$set@PEAUmodule@cudart@@@cudart@@QEAAAEAV012@XZ 00000001800381f0 f i cudart_static:cudart_context.obj
 0001:00037220       ??E?$base_iterator@$0A@@?$set@PEBUsurfaceReference@@@cudart@@QEAA?AV012@H@Z 0000000180038220 f i cudart_static:cudart_context.obj
 0001:00037260       ??E?$base_iterator@$0A@@?$set@PEBUsurfaceReference@@@cudart@@QEAAAEAV012@XZ 0000000180038260 f i cudart_static:cudart_context.obj
 0001:00037290       ??E?$base_iterator@$0A@@?$set@PEBUtextureReference@@@cudart@@QEAA?AV012@H@Z 0000000180038290 f i cudart_static:cudart_context.obj
 0001:000372d0       ??E?$base_iterator@$0A@@?$set@PEBUtextureReference@@@cudart@@QEAAAEAV012@XZ 00000001800382d0 f i cudart_static:cudart_context.obj
 0001:00037300       ??E?$base_iterator@$0A@@?$set@PEBX@cudart@@QEAA?AV012@H@Z 0000000180038300 f i cudart_static:cudart_context.obj
 0001:00037340       ??E?$base_iterator@$0A@@?$set@PEBX@cudart@@QEAAAEAV012@XZ 0000000180038340 f i cudart_static:cudart_context.obj
 0001:00037370       ??E?$base_iterator@$0A@@?$set@Uentry@?$map@PEAUglobalModule@cudart@@PEAUmodule@2@@cudart@@@cudart@@QEAAAEAV012@XZ 0000000180038370 f i cudart_static:cudart_context.obj
 0001:000373a0       ??Lhash@cudart@@QEAAKK@Z   00000001800383a0 f i cudart_static:cudart_context.obj
 0001:000373b0       ??Rhash@cudart@@QEAAKXZ    00000001800383b0 f i cudart_static:cudart_context.obj
 0001:000373c0       ??_Gmodule@cudart@@QEAAPEAXI@Z 00000001800383c0 f i cudart_static:cudart_context.obj
 0001:00037420       ??_Greference@?$base_smart_ptr@Umy_char@string@cudart@@$00@cudart@@AEAAPEAXI@Z 0000000180038420 f i cudart_static:cudart_context.obj
 0001:00037460       ??_Umy_char@string@cudart@@SAPEAX_KAEBUnothrow_t@2@@Z 0000000180038460 f i cudart_static:cudart_context.obj
 0001:00037480       ??_Vmy_char@string@cudart@@SAXPEAX@Z 0000000180038480 f i cudart_static:cudart_context.obj
 0001:000374a0       ?addBoundTexture@contextState@cudart@@AEAA?AW4cudaError@@PEAUcudaTexture@2@@Z 00000001800384a0 f   cudart_static:cudart_context.obj
 0001:00037550       ?applyChanges@contextState@cudart@@QEAA?AW4cudaError@@XZ 0000000180038550 f   cudart_static:cudart_context.obj
 0001:00037740       ?begin@?$list@PEAUcudaTexture@cudart@@@cudart@@QEAA?AV?$base_iterator@$0A@@12@XZ 0000000180038740 f i cudart_static:cudart_context.obj
 0001:00037750       ?begin@?$list@UvariableTemp@cudart@@@cudart@@QEAA?AV?$base_iterator@$0A@@12@XZ 0000000180038750 f i cudart_static:cudart_context.obj
 0001:00037760       ?begin@?$map@PEAUglobalModule@cudart@@PEAUmodule@2@@cudart@@QEAA?AV?$base_iterator@$0A@@?$set@Uentry@?$map@PEAUglobalModule@cudart@@PEAUmodule@2@@cudart@@@2@XZ 0000000180038760 f i cudart_static:cudart_context.obj
 0001:000377b0       ?begin@?$set@PEAUglobalModule@cudart@@@cudart@@QEAA?AV?$base_iterator@$0A@@12@XZ 00000001800387b0 f i cudart_static:cudart_context.obj
 0001:00037800       ?begin@?$set@PEAUmodule@cudart@@@cudart@@QEAA?AV?$base_iterator@$0A@@12@XZ 0000000180038800 f i cudart_static:cudart_context.obj
 0001:00037850       ?begin@?$set@PEBUsurfaceReference@@@cudart@@QEAA?AV?$base_iterator@$0A@@12@XZ 0000000180038850 f i cudart_static:cudart_context.obj
 0001:000378a0       ?begin@?$set@PEBUtextureReference@@@cudart@@QEAA?AV?$base_iterator@$0A@@12@XZ 00000001800388a0 f i cudart_static:cudart_context.obj
 0001:000378f0       ?begin@?$set@PEBX@cudart@@QEAA?AV?$base_iterator@$0A@@12@XZ 00000001800388f0 f i cudart_static:cudart_context.obj
 0001:00037940       ?begin@?$set@Uentry@?$map@PEAUglobalModule@cudart@@PEAUmodule@2@@cudart@@@cudart@@QEAA?AV?$base_iterator@$0A@@12@XZ 0000000180038940 f i cudart_static:cudart_context.obj
 0001:00037990       ?bind@cudaSurface@cudart@@QEAA?AW4cudaError@@PEBUcudaArray@@PEBUcudaChannelFormatDesc@@@Z 0000000180038990 f   cudart_static:cudart_context.obj
 0001:000379b0       ?bindSurface@contextState@cudart@@QEAA?AW4cudaError@@PEBUsurfaceReference@@PEBUcudaArray@@PEBUcudaChannelFormatDesc@@@Z 00000001800389b0 f   cudart_static:cudart_context.obj
 0001:00037a10       ?bindTexture2D@contextState@cudart@@QEAA?AW4cudaError@@PEA_KPEBUtextureReference@@PEBDPEBUcudaChannelFormatDesc@@_K44@Z 0000000180038a10 f   cudart_static:cudart_context.obj
 0001:00037c20       ?bindTexture@contextState@cudart@@QEAA?AW4cudaError@@PEA_KPEBUtextureReference@@PEBDPEBUcudaChannelFormatDesc@@_K@Z 0000000180038c20 f   cudart_static:cudart_context.obj
 0001:00037df0       ?bindTexture@contextState@cudart@@QEAA?AW4cudaError@@PEBUtextureReference@@PEBUcudaArray@@PEBUcudaChannelFormatDesc@@@Z 0000000180038df0 f   cudart_static:cudart_context.obj
 0001:00037f70       ?bindTexture@contextState@cudart@@QEAA?AW4cudaError@@PEBUtextureReference@@PEBUcudaMipmappedArray@@PEBUcudaChannelFormatDesc@@@Z 0000000180038f70 f   cudart_static:cudart_context.obj
 0001:00038170       ?clear@?$map@PEAUglobalModule@cudart@@PEAUmodule@2@@cudart@@QEAAXXZ 0000000180039170 f i cudart_static:cudart_context.obj
 0001:00038190       ?clear@?$set@PEAUglobalModule@cudart@@@cudart@@QEAAXXZ 0000000180039190 f i cudart_static:cudart_context.obj
 0001:00038210       ?clear@?$set@PEAUmodule@cudart@@@cudart@@QEAAXXZ 0000000180039210 f i cudart_static:cudart_context.obj
 0001:00038290       ?clear@?$set@PEBUsurfaceReference@@@cudart@@QEAAXXZ 0000000180039290 f i cudart_static:cudart_context.obj
 0001:00038310       ?clear@?$set@PEBUtextureReference@@@cudart@@QEAAXXZ 0000000180039310 f i cudart_static:cudart_context.obj
 0001:00038390       ?clear@?$set@PEBX@cudart@@QEAAXXZ 0000000180039390 f i cudart_static:cudart_context.obj
 0001:00038410       ?clear@?$set@Uentry@?$map@PEAUglobalModule@cudart@@PEAUmodule@2@@cudart@@@cudart@@QEAAXXZ 0000000180039410 f i cudart_static:cudart_context.obj
 0001:00038490       ?clear@?$set@Uentry@?$map@PEBUsurfaceReference@@PEAUcudaSurface@cudart@@@cudart@@@cudart@@QEAAXXZ 0000000180039490 f i cudart_static:cudart_context.obj
 0001:00038510       ?clear@?$set@Uentry@?$map@PEBUtextureReference@@PEAUcudaTexture@cudart@@@cudart@@@cudart@@QEAAXXZ 0000000180039510 f i cudart_static:cudart_context.obj
 0001:00038590       ?clear@?$set@Uentry@?$map@PEBXPEAUcudaEntryFunction@cudart@@@cudart@@@cudart@@QEAAXXZ 0000000180039590 f i cudart_static:cudart_context.obj
 0001:00038610       ?clear@?$set@Uentry@?$map@PEBXPEAUcudaVariable@cudart@@@cudart@@@cudart@@QEAAXXZ 0000000180039610 f i cudart_static:cudart_context.obj
 0001:00038690       ?count@?$set@PEAUglobalModule@cudart@@@cudart@@QEBA_KAEBQEAUglobalModule@2@@Z 0000000180039690 f i cudart_static:cudart_context.obj
 0001:000386d0       ?createEntryFunction@contextState@cudart@@QEAA?AW4cudaError@@AEBUentryFunctionTemp@2@PEAUglobalModule@2@@Z 00000001800396d0 f   cudart_static:cudart_context.obj
 0001:00038850       ?createSurface@contextState@cudart@@QEAA?AW4cudaError@@AEBUsurfaceTemp@2@PEAUglobalModule@2@@Z 0000000180039850 f   cudart_static:cudart_context.obj
 0001:00038a90       ?createTexture@contextState@cudart@@QEAA?AW4cudaError@@AEBUtextureTemp@2@PEAUglobalModule@2@@Z 0000000180039a90 f   cudart_static:cudart_context.obj
 0001:00038d20       ?createVariable@contextState@cudart@@QEAA?AW4cudaError@@AEBUvariableTemp@2@PEAUglobalModule@2@@Z 0000000180039d20 f   cudart_static:cudart_context.obj
 0001:00038fb0       ?deleteEntryFunction@contextState@cudart@@QEAA?AW4cudaError@@PEBX@Z 0000000180039fb0 f   cudart_static:cudart_context.obj
 0001:00039040       ?deleteSurface@contextState@cudart@@QEAA?AW4cudaError@@PEBUsurfaceReference@@@Z 000000018003a040 f   cudart_static:cudart_context.obj
 0001:000390e0       ?deleteTexture@contextState@cudart@@QEAA?AW4cudaError@@PEBUtextureReference@@@Z 000000018003a0e0 f   cudart_static:cudart_context.obj
 0001:00039180       ?deleteVariable@contextState@cudart@@QEAA?AW4cudaError@@PEBX@Z 000000018003a180 f   cudart_static:cudart_context.obj
 0001:00039220       ?dup_and_wrap@string@cudart@@CA?AV?$shared_array@Umy_char@string@cudart@@@2@PEBDPEAW4cudaError@@@Z 000000018003a220 f i cudart_static:cudart_context.obj
 0001:00039300       ?end@?$list@PEAUcudaTexture@cudart@@@cudart@@QEAA?AV?$base_iterator@$0A@@12@XZ 000000018003a300 f i cudart_static:cudart_context.obj
 0001:00039310       ?end@?$list@UvariableTemp@cudart@@@cudart@@QEAA?AV?$base_iterator@$0A@@12@XZ 000000018003a310 f i cudart_static:cudart_context.obj
 0001:00039320       ?end@?$map@PEAUglobalModule@cudart@@PEAUmodule@2@@cudart@@QEAA?AV?$base_iterator@$0A@@?$set@Uentry@?$map@PEAUglobalModule@cudart@@PEAUmodule@2@@cudart@@@2@XZ 000000018003a320 f i cudart_static:cudart_context.obj
 0001:00039340       ?end@?$map@PEBUsurfaceReference@@PEAUcudaSurface@cudart@@@cudart@@QEAA?AV?$base_iterator@$0A@@?$set@Uentry@?$map@PEBUsurfaceReference@@PEAUcudaSurface@cudart@@@cudart@@@2@XZ 000000018003a340 f i cudart_static:cudart_context.obj
 0001:00039360       ?end@?$map@PEBUtextureReference@@PEAUcudaTexture@cudart@@@cudart@@QEAA?AV?$base_iterator@$0A@@?$set@Uentry@?$map@PEBUtextureReference@@PEAUcudaTexture@cudart@@@cudart@@@2@XZ 000000018003a360 f i cudart_static:cudart_context.obj
 0001:00039380       ?end@?$map@PEBXPEAUcudaEntryFunction@cudart@@@cudart@@QEAA?AV?$base_iterator@$0A@@?$set@Uentry@?$map@PEBXPEAUcudaEntryFunction@cudart@@@cudart@@@2@XZ 000000018003a380 f i cudart_static:cudart_context.obj
 0001:000393a0       ?end@?$map@PEBXPEAUcudaVariable@cudart@@@cudart@@QEAA?AV?$base_iterator@$0A@@?$set@Uentry@?$map@PEBXPEAUcudaVariable@cudart@@@cudart@@@2@XZ 000000018003a3a0 f i cudart_static:cudart_context.obj
 0001:000393c0       ?end@?$set@PEAUglobalModule@cudart@@@cudart@@QEAA?AV?$base_iterator@$0A@@12@XZ 000000018003a3c0 f i cudart_static:cudart_context.obj
 0001:000393e0       ?end@?$set@PEAUmodule@cudart@@@cudart@@QEAA?AV?$base_iterator@$0A@@12@XZ 000000018003a3e0 f i cudart_static:cudart_context.obj
 0001:00039400       ?end@?$set@PEBUsurfaceReference@@@cudart@@QEAA?AV?$base_iterator@$0A@@12@XZ 000000018003a400 f i cudart_static:cudart_context.obj
 0001:00039420       ?end@?$set@PEBUtextureReference@@@cudart@@QEAA?AV?$base_iterator@$0A@@12@XZ 000000018003a420 f i cudart_static:cudart_context.obj
 0001:00039440       ?end@?$set@PEBX@cudart@@QEAA?AV?$base_iterator@$0A@@12@XZ 000000018003a440 f i cudart_static:cudart_context.obj
 0001:00039460       ?end@?$set@Uentry@?$map@PEAUglobalModule@cudart@@PEAUmodule@2@@cudart@@@cudart@@QEAA?AV?$base_iterator@$0A@@12@XZ 000000018003a460 f i cudart_static:cudart_context.obj
 0001:00039480       ?end@?$set@Uentry@?$map@PEBUsurfaceReference@@PEAUcudaSurface@cudart@@@cudart@@@cudart@@QEAA?AV?$base_iterator@$0A@@12@XZ 000000018003a480 f i cudart_static:cudart_context.obj
 0001:000394a0       ?end@?$set@Uentry@?$map@PEBUtextureReference@@PEAUcudaTexture@cudart@@@cudart@@@cudart@@QEAA?AV?$base_iterator@$0A@@12@XZ 000000018003a4a0 f i cudart_static:cudart_context.obj
 0001:000394c0       ?end@?$set@Uentry@?$map@PEBXPEAUcudaEntryFunction@cudart@@@cudart@@@cudart@@QEAA?AV?$base_iterator@$0A@@12@XZ 000000018003a4c0 f i cudart_static:cudart_context.obj
 0001:000394e0       ?end@?$set@Uentry@?$map@PEBXPEAUcudaVariable@cudart@@@cudart@@@cudart@@QEAA?AV?$base_iterator@$0A@@12@XZ 000000018003a4e0 f i cudart_static:cudart_context.obj
 0001:00039500       ?erase@?$list@PEAUcudaTexture@cudart@@@cudart@@QEAA?AV?$base_iterator@$00@12@V312@@Z 000000018003a500 f i cudart_static:cudart_context.obj
 0001:00039580       ?getDriverEntryFunction@contextState@cudart@@QEAA?AW4cudaError@@PEAPEAUCUfunc_st@@PEBX@Z 000000018003a580 f   cudart_static:cudart_context.obj
 0001:000395e0       ?getEntryFunction@contextState@cudart@@QEAA?AW4cudaError@@PEAPEAUcudaEntryFunction@2@PEBXW43@@Z 000000018003a5e0 f   cudart_static:cudart_context.obj
 0001:00039660       ?getSurface@contextState@cudart@@AEAA?AW4cudaError@@PEAPEAUcudaSurface@2@PEBUsurfaceReference@@W43@@Z 000000018003a660 f   cudart_static:cudart_context.obj
 0001:000396d0       ?getSurfaceReference@contextState@cudart@@QEAA?AW4cudaError@@PEAPEBUsurfaceReference@@PEBX@Z 000000018003a6d0 f   cudart_static:cudart_context.obj
 0001:00039730       ?getSymbolAddress@contextState@cudart@@QEAA?AW4cudaError@@PEAPEAXPEBX@Z 000000018003a730 f   cudart_static:cudart_context.obj
 0001:000397e0       ?getSymbolSize@contextState@cudart@@QEAA?AW4cudaError@@PEA_KPEBX@Z 000000018003a7e0 f   cudart_static:cudart_context.obj
 0001:000398e0       ?getTexture@contextState@cudart@@AEAA?AW4cudaError@@PEAPEAUcudaTexture@2@PEBUtextureReference@@W43@@Z 000000018003a8e0 f   cudart_static:cudart_context.obj
 0001:00039950       ?getTextureAlignmentOffset@contextState@cudart@@QEAA?AW4cudaError@@PEA_KPEBUtextureReference@@@Z 000000018003a950 f   cudart_static:cudart_context.obj
 0001:000399d0       ?getTextureAlignmentOffset@cudaTexture@cudart@@QEBA?AW4cudaError@@PEA_K@Z 000000018003a9d0 f   cudart_static:cudart_context.obj
 0001:00039a00       ?getTextureReference@contextState@cudart@@QEAA?AW4cudaError@@PEAPEBUtextureReference@@PEBX@Z 000000018003aa00 f   cudart_static:cudart_context.obj
 0001:00039a60       ?getUniqueHandle@variableTemp@cudart@@QEBAPEAXXZ 000000018003aa60 f i cudart_static:cudart_context.obj
 0001:00039a70       ?getVariable@contextState@cudart@@AEAA?AW4cudaError@@PEAPEAUcudaVariable@2@PEBXW43@@Z 000000018003aa70 f   cudart_static:cudart_context.obj
 0001:00039af0       ?get_size@?$set@PEAUglobalModule@cudart@@@cudart@@CA_KIPEA_K@Z 000000018003aaf0 f i cudart_static:cudart_context.obj
 0001:00039b10       ?get_size@?$set@PEAUmodule@cudart@@@cudart@@CA_KIPEA_K@Z 000000018003ab10 f i cudart_static:cudart_context.obj
 0001:00039b30       ?get_size@?$set@PEBUsurfaceReference@@@cudart@@CA_KIPEA_K@Z 000000018003ab30 f i cudart_static:cudart_context.obj
 0001:00039b50       ?get_size@?$set@PEBUtextureReference@@@cudart@@CA_KIPEA_K@Z 000000018003ab50 f i cudart_static:cudart_context.obj
 0001:00039b70       ?get_size@?$set@PEBX@cudart@@CA_KIPEA_K@Z 000000018003ab70 f i cudart_static:cudart_context.obj
 0001:00039b90       ?get_size@?$set@Uentry@?$map@PEAUglobalModule@cudart@@PEAUmodule@2@@cudart@@@cudart@@CA_KIPEA_K@Z 000000018003ab90 f i cudart_static:cudart_context.obj
 0001:00039bb0       ?get_size@?$set@Uentry@?$map@PEBUsurfaceReference@@PEAUcudaSurface@cudart@@@cudart@@@cudart@@CA_KIPEA_K@Z 000000018003abb0 f i cudart_static:cudart_context.obj
 0001:00039bd0       ?get_size@?$set@Uentry@?$map@PEBUtextureReference@@PEAUcudaTexture@cudart@@@cudart@@@cudart@@CA_KIPEA_K@Z 000000018003abd0 f i cudart_static:cudart_context.obj
 0001:00039bf0       ?get_size@?$set@Uentry@?$map@PEBXPEAUcudaEntryFunction@cudart@@@cudart@@@cudart@@CA_KIPEA_K@Z 000000018003abf0 f i cudart_static:cudart_context.obj
 0001:00039c10       ?get_size@?$set@Uentry@?$map@PEBXPEAUcudaVariable@cudart@@@cudart@@@cudart@@CA_KIPEA_K@Z 000000018003ac10 f i cudart_static:cudart_context.obj
 0001:00039c30       ?insert@?$map@PEAUglobalModule@cudart@@PEAUmodule@2@@cudart@@QEAA?AW4cudaError@@AEBUentry@12@@Z 000000018003ac30 f i cudart_static:cudart_context.obj
 0001:00039d00       ?insert@?$map@PEBUsurfaceReference@@PEAUcudaSurface@cudart@@@cudart@@QEAA?AW4cudaError@@AEBUentry@12@@Z 000000018003ad00 f i cudart_static:cudart_context.obj
 0001:00039dd0       ?insert@?$map@PEBUtextureReference@@PEAUcudaTexture@cudart@@@cudart@@QEAA?AW4cudaError@@AEBUentry@12@@Z 000000018003add0 f i cudart_static:cudart_context.obj
 0001:00039ea0       ?insert@?$map@PEBXPEAUcudaEntryFunction@cudart@@@cudart@@QEAA?AW4cudaError@@AEBUentry@12@@Z 000000018003aea0 f i cudart_static:cudart_context.obj
 0001:00039f70       ?insert@?$map@PEBXPEAUcudaVariable@cudart@@@cudart@@QEAA?AW4cudaError@@AEBUentry@12@@Z 000000018003af70 f i cudart_static:cudart_context.obj
 0001:0003a040       ?insert@?$set@PEAUglobalModule@cudart@@@cudart@@QEAA?AW4cudaError@@AEBQEAUglobalModule@2@PEA_N@Z 000000018003b040 f i cudart_static:cudart_context.obj
 0001:0003a120       ?insert@?$set@PEAUmodule@cudart@@@cudart@@QEAA?AW4cudaError@@AEBQEAUmodule@2@PEA_N@Z 000000018003b120 f i cudart_static:cudart_context.obj
 0001:0003a200       ?insert@?$set@PEBUsurfaceReference@@@cudart@@QEAA?AW4cudaError@@AEBQEBUsurfaceReference@@PEA_N@Z 000000018003b200 f i cudart_static:cudart_context.obj
 0001:0003a2e0       ?insert@?$set@PEBUtextureReference@@@cudart@@QEAA?AW4cudaError@@AEBQEBUtextureReference@@PEA_N@Z 000000018003b2e0 f i cudart_static:cudart_context.obj
 0001:0003a3c0       ?insert@?$set@PEBX@cudart@@QEAA?AW4cudaError@@AEBQEBXPEA_N@Z 000000018003b3c0 f i cudart_static:cudart_context.obj
 0001:0003a4a0       ?insert@?$set@Uentry@?$map@PEAUglobalModule@cudart@@PEAUmodule@2@@cudart@@@cudart@@QEAA?AW4cudaError@@AEBUentry@?$map@PEAUglobalModule@cudart@@PEAUmodule@2@@2@PEA_N@Z 000000018003b4a0 f i cudart_static:cudart_context.obj
 0001:0003a580       ?insert@?$set@Uentry@?$map@PEBUsurfaceReference@@PEAUcudaSurface@cudart@@@cudart@@@cudart@@QEAA?AW4cudaError@@AEBUentry@?$map@PEBUsurfaceReference@@PEAUcudaSurface@cudart@@@2@PEA_N@Z 000000018003b580 f i cudart_static:cudart_context.obj
 0001:0003a660       ?insert@?$set@Uentry@?$map@PEBUtextureReference@@PEAUcudaTexture@cudart@@@cudart@@@cudart@@QEAA?AW4cudaError@@AEBUentry@?$map@PEBUtextureReference@@PEAUcudaTexture@cudart@@@2@PEA_N@Z 000000018003b660 f i cudart_static:cudart_context.obj
 0001:0003a740       ?insert@?$set@Uentry@?$map@PEBXPEAUcudaEntryFunction@cudart@@@cudart@@@cudart@@QEAA?AW4cudaError@@AEBUentry@?$map@PEBXPEAUcudaEntryFunction@cudart@@@2@PEA_N@Z 000000018003b740 f i cudart_static:cudart_context.obj
 0001:0003a820       ?insert@?$set@Uentry@?$map@PEBXPEAUcudaVariable@cudart@@@cudart@@@cudart@@QEAA?AW4cudaError@@AEBUentry@?$map@PEBXPEAUcudaVariable@cudart@@@2@PEA_N@Z 000000018003b820 f i cudart_static:cudart_context.obj
 0001:0003a900       ?loadCubin@contextState@cudart@@QEAA?AW4cudaError@@PEA_NPEAUglobalModule@2@@Z 000000018003b900 f   cudart_static:cudart_context.obj
 0001:0003ab10       ?loadFatBinary@globalState@cudart@@QEAA?AW4cudaError_enum@@PEAPEAUCUmod_st@@PEBXPEAPEBDPEAPEAXI@Z 000000018003bb10 f i cudart_static:cudart_context.obj
 0001:0003ab60       ?markChangeModuleLoad@contextState@cudart@@QEAA?AW4cudaError@@PEAUglobalModule@2@@Z 000000018003bb60 f   cudart_static:cudart_context.obj
 0001:0003ac30       ?markChangeModuleUnload@contextState@cudart@@QEAA?AW4cudaError@@PEAUglobalModule@2@@Z 000000018003bc30 f   cudart_static:cudart_context.obj
 0001:0003ae40       ?prepareToLaunchFunction@contextState@cudart@@QEAA?AW4cudaError@@PEAPEAUCUfunc_st@@PEBUconfigData@2@PEBX@Z 000000018003be40 f   cudart_static:cudart_context.obj
 0001:0003af80       ?push_back@?$list@PEAUcudaTexture@cudart@@@cudart@@QEAA?AW4cudaError@@AEBQEAUcudaTexture@2@@Z 000000018003bf80 f i cudart_static:cudart_context.obj
 0001:0003b000       ?ref@reference@?$base_smart_ptr@Umy_char@string@cudart@@$00@cudart@@CAPEAV123@PEAV123@@Z 000000018003c000 f i cudart_static:cudart_context.obj
 0001:0003b010       ?rehash@?$set@PEAUglobalModule@cudart@@@cudart@@AEAAX_K@Z 000000018003c010 f i cudart_static:cudart_context.obj
 0001:0003b0e0       ?rehash@?$set@PEAUmodule@cudart@@@cudart@@AEAAX_K@Z 000000018003c0e0 f i cudart_static:cudart_context.obj
 0001:0003b1b0       ?rehash@?$set@PEBUsurfaceReference@@@cudart@@AEAAX_K@Z 000000018003c1b0 f i cudart_static:cudart_context.obj
 0001:0003b280       ?rehash@?$set@PEBUtextureReference@@@cudart@@AEAAX_K@Z 000000018003c280 f i cudart_static:cudart_context.obj
 0001:0003b350       ?rehash@?$set@PEBX@cudart@@AEAAX_K@Z 000000018003c350 f i cudart_static:cudart_context.obj
 0001:0003b420       ?rehash@?$set@Uentry@?$map@PEAUglobalModule@cudart@@PEAUmodule@2@@cudart@@@cudart@@AEAAX_K@Z 000000018003c420 f i cudart_static:cudart_context.obj
 0001:0003b4f0       ?rehash@?$set@Uentry@?$map@PEBUsurfaceReference@@PEAUcudaSurface@cudart@@@cudart@@@cudart@@AEAAX_K@Z 000000018003c4f0 f i cudart_static:cudart_context.obj
 0001:0003b5c0       ?rehash@?$set@Uentry@?$map@PEBUtextureReference@@PEAUcudaTexture@cudart@@@cudart@@@cudart@@AEAAX_K@Z 000000018003c5c0 f i cudart_static:cudart_context.obj
 0001:0003b690       ?rehash@?$set@Uentry@?$map@PEBXPEAUcudaEntryFunction@cudart@@@cudart@@@cudart@@AEAAX_K@Z 000000018003c690 f i cudart_static:cudart_context.obj
 0001:0003b760       ?rehash@?$set@Uentry@?$map@PEBXPEAUcudaVariable@cudart@@@cudart@@@cudart@@AEAAX_K@Z 000000018003c760 f i cudart_static:cudart_context.obj
 0001:0003b830       ?removeBoundTexture@contextState@cudart@@AEAAXPEAUcudaTexture@2@@Z 000000018003c830 f   cudart_static:cudart_context.obj
 0001:0003b8d0       ?set@configData@cudart@@QEAAXUdim3@@0_KPEAUCUstream_st@@@Z 000000018003c8d0 f   cudart_static:cudart_context.obj
 0001:0003b910       ?setStorage@cudaSurface@cudart@@QEAAX_N@Z 000000018003c910 f   cudart_static:cudart_context.obj
 0001:0003b930       ?setStorage@cudaTexture@cudart@@QEAAX_N@Z 000000018003c930 f   cudart_static:cudart_context.obj
 0001:0003b950       ?setStorage@cudaVariable@cudart@@QEAAX_N@Z 000000018003c950 f   cudart_static:cudart_context.obj
 0001:0003b970       ?setupBoundTextures@contextState@cudart@@AEAA?AW4cudaError@@XZ 000000018003c970 f   cudart_static:cudart_context.obj
 0001:0003ba00       ?setupTexture@cudaTexture@cudart@@QEBA?AW4cudaError@@XZ 000000018003ca00 f   cudart_static:cudart_context.obj
 0001:0003bce0       ?unbind@cudaTexture@cudart@@QEAAXXZ 000000018003cce0 f   cudart_static:cudart_context.obj
 0001:0003bd10       ?unbindTexture@contextState@cudart@@AEAAXPEAUcudaTexture@2@@Z 000000018003cd10 f   cudart_static:cudart_context.obj
 0001:0003bd60       ?unbindTextureReference@contextState@cudart@@QEAA?AW4cudaError@@PEBUtextureReference@@@Z 000000018003cd60 f   cudart_static:cudart_context.obj
 0001:0003bde0       ?unload@module@cudart@@QEAA?AW4cudaError@@_N@Z 000000018003cde0 f   cudart_static:cudart_context.obj
 0001:0003c360       ?unloadAllModules@contextState@cudart@@QEAA?AW4cudaError@@_N@Z 000000018003d360 f   cudart_static:cudart_context.obj
 0001:0003c520       ?unref@reference@?$base_smart_ptr@Umy_char@string@cudart@@$00@cudart@@CAXPEAV123@@Z 000000018003d520 f i cudart_static:cudart_context.obj
 0001:0003c560       ??$?0PEAUCUfunc_st@@@hash@cudart@@QEAA@AEBQEAUCUfunc_st@@@Z 000000018003d560 f i cudart_static:cudart_context_mgr.obj
 0001:0003c610       ??$?0PEAVcontextState@cudart@@@hash@cudart@@QEAA@AEBQEAVcontextState@1@@Z 000000018003d610 f i cudart_static:cudart_context_mgr.obj
 0001:0003c6c0       ??$?0Uentry@?$map@PEAUCUfunc_st@@PEAUcudaEntryFunction@cudart@@@cudart@@@hash@cudart@@QEAA@AEBUentry@?$map@PEAUCUfunc_st@@PEAUcudaEntryFunction@cudart@@@1@@Z 000000018003d6c0 f i cudart_static:cudart_context_mgr.obj
 0001:0003c770       ??$?6UCUfunc_st@@@hash@cudart@@QEAAAEAU01@AEBQEBUCUfunc_st@@@Z 000000018003d770 f i cudart_static:cudart_context_mgr.obj
 0001:0003c820       ??$?6VcontextState@cudart@@@hash@cudart@@QEAAAEAU01@AEBQEBVcontextState@1@@Z 000000018003d820 f i cudart_static:cudart_context_mgr.obj
 0001:0003c8d0       ??$?9PEAUCUfunc_st@@@entry@?$map@PEAUCUfunc_st@@PEAUcudaEntryFunction@cudart@@@cudart@@QEBA_NAEBQEAUCUfunc_st@@@Z 000000018003d8d0 f i cudart_static:cudart_context_mgr.obj
 0001:0003c8e0       ??$erase@PEAUCUfunc_st@@@?$map@PEAUCUfunc_st@@PEAUcudaEntryFunction@cudart@@@cudart@@QEAA_KAEBQEAUCUfunc_st@@@Z 000000018003d8e0 f i cudart_static:cudart_context_mgr.obj
 0001:0003c940       ??$erase@PEAUCUfunc_st@@@?$set@Uentry@?$map@PEAUCUfunc_st@@PEAUcudaEntryFunction@cudart@@@cudart@@@cudart@@QEAA_KAEBQEAUCUfunc_st@@@Z 000000018003d940 f i cudart_static:cudart_context_mgr.obj
 0001:0003c9a0       ??$erase@PEAVcontextState@cudart@@@?$set@PEAVcontextState@cudart@@@cudart@@QEAA_KAEBQEAVcontextState@1@@Z 000000018003d9a0 f i cudart_static:cudart_context_mgr.obj
 0001:0003ca00       ??$find@PEAUCUfunc_st@@@?$map@PEAUCUfunc_st@@PEAUcudaEntryFunction@cudart@@@cudart@@QEAA?AV?$base_iterator@$0A@@?$set@Uentry@?$map@PEAUCUfunc_st@@PEAUcudaEntryFunction@cudart@@@cudart@@@1@AEBQEAUCUfunc_st@@@Z 000000018003da00 f i cudart_static:cudart_context_mgr.obj
 0001:0003ca20       ??$find@PEAUCUfunc_st@@@?$set@Uentry@?$map@PEAUCUfunc_st@@PEAUcudaEntryFunction@cudart@@@cudart@@@cudart@@QEAA?AV?$base_iterator@$0A@@01@AEBQEAUCUfunc_st@@@Z 000000018003da20 f i cudart_static:cudart_context_mgr.obj
 0001:0003cad0       ??$find_place@PEAUCUfunc_st@@@?$set@Uentry@?$map@PEAUCUfunc_st@@PEAUcudaEntryFunction@cudart@@@cudart@@@cudart@@AEAAPEAPEAVnode@01@AEBQEAUCUfunc_st@@PEAK@Z 000000018003dad0 f i cudart_static:cudart_context_mgr.obj
 0001:0003cb00       ??$find_place@PEAUCUfunc_st@@@?$set@Uentry@?$map@PEAUCUfunc_st@@PEAUcudaEntryFunction@cudart@@@cudart@@@cudart@@CAPEAPEAVnode@01@PEAPEAV201@HAEBQEAUCUfunc_st@@PEAK@Z 000000018003db00 f i cudart_static:cudart_context_mgr.obj
 0001:0003cb20       ??$find_place@PEAUCUfunc_st@@@?$set@Uentry@?$map@PEAUCUfunc_st@@PEAUcudaEntryFunction@cudart@@@cudart@@@cudart@@CAPEBQEBVnode@01@PEBQEBV201@HAEBQEAUCUfunc_st@@PEAK@Z 000000018003db20 f i cudart_static:cudart_context_mgr.obj
 0001:0003cc20       ??$find_place@PEAVcontextState@cudart@@@?$set@PEAVcontextState@cudart@@@cudart@@AEAAPEAPEAVnode@01@AEBQEAVcontextState@1@PEAK@Z 000000018003dc20 f i cudart_static:cudart_context_mgr.obj
 0001:0003cc50       ??$find_place@PEAVcontextState@cudart@@@?$set@PEAVcontextState@cudart@@@cudart@@CAPEAPEAVnode@01@PEAPEAV201@HAEBQEAVcontextState@1@PEAK@Z 000000018003dc50 f i cudart_static:cudart_context_mgr.obj
 0001:0003cc70       ??$find_place@PEAVcontextState@cudart@@@?$set@PEAVcontextState@cudart@@@cudart@@CAPEBQEBVnode@01@PEBQEBV201@HAEBQEAVcontextState@1@PEAK@Z 000000018003dc70 f i cudart_static:cudart_context_mgr.obj
 0001:0003cd70       ??$find_place@Uentry@?$map@PEAUCUfunc_st@@PEAUcudaEntryFunction@cudart@@@cudart@@@?$set@Uentry@?$map@PEAUCUfunc_st@@PEAUcudaEntryFunction@cudart@@@cudart@@@cudart@@AEAAPEAPEAVnode@01@AEBUentry@?$map@PEAUCUfunc_st@@PEAUcudaEntryFunction@cudart@@@1@PEAK@Z 000000018003dd70 f i cudart_static:cudart_context_mgr.obj
 0001:0003cda0       ??$find_place@Uentry@?$map@PEAUCUfunc_st@@PEAUcudaEntryFunction@cudart@@@cudart@@@?$set@Uentry@?$map@PEAUCUfunc_st@@PEAUcudaEntryFunction@cudart@@@cudart@@@cudart@@CAPEAPEAVnode@01@PEAPEAV201@HAEBUentry@?$map@PEAUCUfunc_st@@PEAUcudaEntryFunction@cudart@@@1@PEAK@Z 000000018003dda0 f i cudart_static:cudart_context_mgr.obj
 0001:0003cdc0       ??$find_place@Uentry@?$map@PEAUCUfunc_st@@PEAUcudaEntryFunction@cudart@@@cudart@@@?$set@Uentry@?$map@PEAUCUfunc_st@@PEAUcudaEntryFunction@cudart@@@cudart@@@cudart@@CAPEBQEBVnode@01@PEBQEBV201@HAEBUentry@?$map@PEAUCUfunc_st@@PEAUcudaEntryFunction@cudart@@@1@PEAK@Z 000000018003ddc0 f i cudart_static:cudart_context_mgr.obj
 0001:0003cec0       ??0?$base_iterator@$0A@@?$list@UentryFunctionTemp@cudart@@@cudart@@QEAA@PEAVnode@12@@Z 000000018003dec0 f i cudart_static:cudart_context_mgr.obj
 0001:0003ced0       ??0?$base_iterator@$0A@@?$set@PEAUglobalModule@cudart@@@cudart@@QEAA@AEBV012@@Z 000000018003ded0 f i cudart_static:cudart_context_mgr.obj
 0001:0003cef0       ??0?$base_iterator@$0A@@?$set@PEAUmodule@cudart@@@cudart@@QEAA@AEBV012@@Z 000000018003def0 f i cudart_static:cudart_context_mgr.obj
 0001:0003cf10       ??0?$base_iterator@$0A@@?$set@PEAVcontextState@cudart@@@cudart@@QEAA@PEAPEAVnode@12@I@Z 000000018003df10 f i cudart_static:cudart_context_mgr.obj
 0001:0003cf60       ??0?$base_iterator@$0A@@?$set@Uentry@?$map@PEAUCUfunc_st@@PEAUcudaEntryFunction@cudart@@@cudart@@@cudart@@QEAA@PEAPEAVnode@12@I@Z 000000018003df60 f i cudart_static:cudart_context_mgr.obj
 0001:0003cfb0       ??0?$base_iterator@$0A@@?$set@Uentry@?$map@PEAUCUfunc_st@@PEAUcudaEntryFunction@cudart@@@cudart@@@cudart@@QEAA@PEAPEAVnode@12@IPEAV312@@Z 000000018003dfb0 f i cudart_static:cudart_context_mgr.obj
 0001:0003cfd0       ??0?$base_iterator@$0A@@?$set@Uentry@?$map@PEAUglobalModule@cudart@@PEAUmodule@2@@cudart@@@cudart@@QEAA@AEBV012@@Z 000000018003dfd0 f i cudart_static:cudart_context_mgr.obj
 0001:0003cff0       ??0?$map@PEAUCUfunc_st@@PEAUcudaEntryFunction@cudart@@@cudart@@QEAA@XZ 000000018003dff0 f i cudart_static:cudart_context_mgr.obj
 0001:0003d000       ??0?$set@PEAVcontextState@cudart@@@cudart@@QEAA@XZ 000000018003e000 f i cudart_static:cudart_context_mgr.obj
 0001:0003d010       ??0?$set@Uentry@?$map@PEAUCUfunc_st@@PEAUcudaEntryFunction@cudart@@@cudart@@@cudart@@QEAA@XZ 000000018003e010 f i cudart_static:cudart_context_mgr.obj
 0001:0003d020       ??0contextStateManager@cudart@@AEAA@XZ 000000018003e020 f i cudart_static:cudart_context_mgr.obj
 0001:0003d070       ??0entry@?$map@PEAUCUfunc_st@@PEAUcudaEntryFunction@cudart@@@cudart@@QEAA@AEBQEAUCUfunc_st@@AEBQEAUcudaEntryFunction@2@@Z 000000018003e070 f i cudart_static:cudart_context_mgr.obj
 0001:0003d090       ??0entry@?$map@PEAUCUfunc_st@@PEAUcudaEntryFunction@cudart@@@cudart@@QEAA@AEBU012@@Z 000000018003e090 f i cudart_static:cudart_context_mgr.obj
 0001:0003d0b0       ??0node@?$set@PEAVcontextState@cudart@@@cudart@@AEAA@KAEBQEAVcontextState@2@@Z 000000018003e0b0 f i cudart_static:cudart_context_mgr.obj
 0001:0003d0d0       ??0node@?$set@Uentry@?$map@PEAUCUfunc_st@@PEAUcudaEntryFunction@cudart@@@cudart@@@cudart@@AEAA@KAEBUentry@?$map@PEAUCUfunc_st@@PEAUcudaEntryFunction@cudart@@@2@@Z 000000018003e0d0 f i cudart_static:cudart_context_mgr.obj
 0001:0003d0f0       ??1?$map@PEAUCUfunc_st@@PEAUcudaEntryFunction@cudart@@@cudart@@QEAA@XZ 000000018003e0f0 f i cudart_static:cudart_context_mgr.obj
 0001:0003d110       ??1?$set@PEAVcontextState@cudart@@@cudart@@QEAA@XZ 000000018003e110 f i cudart_static:cudart_context_mgr.obj
 0001:0003d130       ??1?$set@Uentry@?$map@PEAUCUfunc_st@@PEAUcudaEntryFunction@cudart@@@cudart@@@cudart@@QEAA@XZ 000000018003e130 f i cudart_static:cudart_context_mgr.obj
 0001:0003d150       ??1contextStateManager@cudart@@AEAA@XZ 000000018003e150 f i cudart_static:cudart_context_mgr.obj
 0001:0003d190       ??2contextState@cudart@@SAPEAX_KAEBUnothrow_t@1@@Z 000000018003e190 f i cudart_static:cudart_context_mgr.obj
 0001:0003d1b0       ??2contextStateManager@cudart@@CAPEAX_KAEBUnothrow_t@1@@Z 000000018003e1b0 f i cudart_static:cudart_context_mgr.obj
 0001:0003d1d0       ??2node@?$set@PEAVcontextState@cudart@@@cudart@@SAPEAX_KAEBUnothrow_t@2@@Z 000000018003e1d0 f i cudart_static:cudart_context_mgr.obj
 0001:0003d1f0       ??2node@?$set@Uentry@?$map@PEAUCUfunc_st@@PEAUcudaEntryFunction@cudart@@@cudart@@@cudart@@SAPEAX_KAEBUnothrow_t@2@@Z 000000018003e1f0 f i cudart_static:cudart_context_mgr.obj
 0001:0003d210       ??3contextState@cudart@@SAXPEAX@Z 000000018003e210 f i cudart_static:cudart_context_mgr.obj
 0001:0003d230       ??3contextStateManager@cudart@@CAXPEAX@Z 000000018003e230 f i cudart_static:cudart_context_mgr.obj
 0001:0003d250       ??3node@?$set@PEAVcontextState@cudart@@@cudart@@SAXPEAX@Z 000000018003e250 f i cudart_static:cudart_context_mgr.obj
 0001:0003d270       ??3node@?$set@Uentry@?$map@PEAUCUfunc_st@@PEAUcudaEntryFunction@cudart@@@cudart@@@cudart@@SAXPEAX@Z 000000018003e270 f i cudart_static:cudart_context_mgr.obj
 0001:0003d290       ??6cudart@@YAAEAUhash@0@AEAU10@AEBUentry@?$map@PEAUCUfunc_st@@PEAUcudaEntryFunction@cudart@@@0@@Z 000000018003e290 f i cudart_static:cudart_context_mgr.obj
 0001:0003d340       ??9?$base_iterator@$0A@@?$list@UentryFunctionTemp@cudart@@@cudart@@QEBA_NAEBV012@@Z 000000018003e340 f i cudart_static:cudart_context_mgr.obj
 0001:0003d350       ??9?$base_iterator@$0A@@?$set@PEAVcontextState@cudart@@@cudart@@QEBA_NAEBV012@@Z 000000018003e350 f i cudart_static:cudart_context_mgr.obj
 0001:0003d360       ??9?$base_iterator@$0A@@?$set@Uentry@?$map@PEAUCUfunc_st@@PEAUcudaEntryFunction@cudart@@@cudart@@@cudart@@QEBA_NAEBV012@@Z 000000018003e360 f i cudart_static:cudart_context_mgr.obj
 0001:0003d370       ??9entry@?$map@PEAUCUfunc_st@@PEAUcudaEntryFunction@cudart@@@cudart@@QEBA_NAEBU012@@Z 000000018003e370 f i cudart_static:cudart_context_mgr.obj
 0001:0003d380       ??C?$base_iterator@$0A@@?$list@UentryFunctionTemp@cudart@@@cudart@@QEBAPEAUentryFunctionTemp@2@XZ 000000018003e380 f i cudart_static:cudart_context_mgr.obj
 0001:0003d390       ??C?$base_iterator@$0A@@?$set@Uentry@?$map@PEAUCUfunc_st@@PEAUcudaEntryFunction@cudart@@@cudart@@@cudart@@QEBAPEAUentry@?$map@PEAUCUfunc_st@@PEAUcudaEntryFunction@cudart@@@2@XZ 000000018003e390 f i cudart_static:cudart_context_mgr.obj
 0001:0003d3a0       ??D?$base_iterator@$0A@@?$set@PEAVcontextState@cudart@@@cudart@@QEBAAEAPEAVcontextState@2@XZ 000000018003e3a0 f i cudart_static:cudart_context_mgr.obj
 0001:0003d3b0       ??E?$base_iterator@$0A@@?$list@UentryFunctionTemp@cudart@@@cudart@@QEAAAEAV012@H@Z 000000018003e3b0 f i cudart_static:cudart_context_mgr.obj
 0001:0003d3c0       ??E?$base_iterator@$0A@@?$set@PEAUglobalModule@cudart@@@cudart@@QEAA?AV012@H@Z 000000018003e3c0 f i cudart_static:cudart_context_mgr.obj
 0001:0003d400       ??E?$base_iterator@$0A@@?$set@PEAUmodule@cudart@@@cudart@@QEAA?AV012@H@Z 000000018003e400 f i cudart_static:cudart_context_mgr.obj
 0001:0003d440       ??E?$base_iterator@$0A@@?$set@PEAVcontextState@cudart@@@cudart@@QEAAAEAV012@XZ 000000018003e440 f i cudart_static:cudart_context_mgr.obj
 0001:0003d470       ??E?$base_iterator@$0A@@?$set@Uentry@?$map@PEAUglobalModule@cudart@@PEAUmodule@2@@cudart@@@cudart@@QEAA?AV012@H@Z 000000018003e470 f i cudart_static:cudart_context_mgr.obj
 0001:0003d4b0       ??_GcontextState@cudart@@QEAAPEAXI@Z 000000018003e4b0 f i cudart_static:cudart_context_mgr.obj
 0001:0003d4f0       ??_GcontextStateManager@cudart@@AEAAPEAXI@Z 000000018003e4f0 f i cudart_static:cudart_context_mgr.obj
 0001:0003d540       ?begin@?$list@UentryFunctionTemp@cudart@@@cudart@@QEAA?AV?$base_iterator@$0A@@12@XZ 000000018003e540 f i cudart_static:cudart_context_mgr.obj
 0001:0003d550       ?begin@?$set@PEAVcontextState@cudart@@@cudart@@QEAA?AV?$base_iterator@$0A@@12@XZ 000000018003e550 f i cudart_static:cudart_context_mgr.obj
 0001:0003d5a0       ?clear@?$set@PEAVcontextState@cudart@@@cudart@@QEAAXXZ 000000018003e5a0 f i cudart_static:cudart_context_mgr.obj
 0001:0003d620       ?clear@?$set@Uentry@?$map@PEAUCUfunc_st@@PEAUcudaEntryFunction@cudart@@@cudart@@@cudart@@QEAAXXZ 000000018003e620 f i cudart_static:cudart_context_mgr.obj
 0001:0003d6f0       ?create@contextStateManager@cudart@@SA?AW4cudaError@@PEAPEAV12@PEAVglobalState@2@PEAVdeviceMgr@2@@Z 000000018003e6f0 f   cudart_static:cudart_context_mgr.obj
 0001:0003d7c0       ?destroy@contextStateManager@cudart@@SAXPEAV12@@Z 000000018003e7c0 f   cudart_static:cudart_context_mgr.obj
 0001:0003d800       ?destroyAllContextStatesOnRuntimeUnload@contextStateManager@cudart@@QEAA?AW4cudaError@@XZ 000000018003e800 f   cudart_static:cudart_context_mgr.obj
 0001:0003d930       ?destroyContextState@contextStateManager@cudart@@AEAA?AW4cudaError@@PEAVcontextState@2@_N@Z 000000018003e930 f   cudart_static:cudart_context_mgr.obj
 0001:0003d9e0       ?destroyContextStateFromDriverContextDestroyCallback@contextStateManager@cudart@@QEAA?AW4cudaError@@PEAVcontextState@2@@Z 000000018003e9e0 f   cudart_static:cudart_context_mgr.obj
 0001:0003da70       ?destroyCurrentThreadContextState@contextStateManager@cudart@@QEAA?AW4cudaError@@XZ 000000018003ea70 f   cudart_static:cudart_context_mgr.obj
 0001:0003dac0       ?end@?$list@UentryFunctionTemp@cudart@@@cudart@@QEAA?AV?$base_iterator@$0A@@12@XZ 000000018003eac0 f i cudart_static:cudart_context_mgr.obj
 0001:0003dad0       ?end@?$map@PEAUCUfunc_st@@PEAUcudaEntryFunction@cudart@@@cudart@@QEAA?AV?$base_iterator@$0A@@?$set@Uentry@?$map@PEAUCUfunc_st@@PEAUcudaEntryFunction@cudart@@@cudart@@@2@XZ 000000018003ead0 f i cudart_static:cudart_context_mgr.obj
 0001:0003daf0       ?end@?$set@PEAVcontextState@cudart@@@cudart@@QEAA?AV?$base_iterator@$0A@@12@XZ 000000018003eaf0 f i cudart_static:cudart_context_mgr.obj
 0001:0003db10       ?end@?$set@Uentry@?$map@PEAUCUfunc_st@@PEAUcudaEntryFunction@cudart@@@cudart@@@cudart@@QEAA?AV?$base_iterator@$0A@@12@XZ 000000018003eb10 f i cudart_static:cudart_context_mgr.obj
 0001:0003db30       ?getLazyInitPrimaryContext@contextStateManager@cudart@@QEAA?AW4cudaError@@PEAPEAUCUctx_st@@PEAUdevice@2@@Z 000000018003eb30 f   cudart_static:cudart_context_mgr.obj
 0001:0003db70       ?getRuntimeContextState@contextStateManager@cudart@@QEAA?AW4cudaError@@PEAPEAVcontextState@2@PEAUCUctx_st@@@Z 000000018003eb70 f   cudart_static:cudart_context_mgr.obj
 0001:0003dc90       ?getRuntimeContextState@contextStateManager@cudart@@QEAA?AW4cudaError@@PEAPEAVcontextState@2@_N@Z 000000018003ec90 f   cudart_static:cudart_context_mgr.obj
 0001:0003dd50       ?getSymbolFromDriverEntryFunction@contextStateManager@cudart@@QEAA?AW4cudaError@@PEAPEAXPEAUCUfunc_st@@@Z 000000018003ed50 f   cudart_static:cudart_context_mgr.obj
 0001:0003dde0       ?get_size@?$set@PEAVcontextState@cudart@@@cudart@@CA_KIPEA_K@Z 000000018003ede0 f i cudart_static:cudart_context_mgr.obj
 0001:0003de00       ?get_size@?$set@Uentry@?$map@PEAUCUfunc_st@@PEAUcudaEntryFunction@cudart@@@cudart@@@cudart@@CA_KIPEA_K@Z 000000018003ee00 f i cudart_static:cudart_context_mgr.obj
 0001:0003de20       ?initDriverContext@contextStateManager@cudart@@AEAA?AW4cudaError@@XZ 000000018003ee20 f   cudart_static:cudart_context_mgr.obj
 0001:0003dfb0       ?initPrimaryContext@contextStateManager@cudart@@AEAA?AW4cudaError@@PEAUdevice@2@@Z 000000018003efb0 f   cudart_static:cudart_context_mgr.obj
 0001:0003e070       ?initRuntimeContextState_nonreentrant@contextStateManager@cudart@@AEAA?AW4cudaError@@PEAPEAVcontextState@2@@Z 000000018003f070 f   cudart_static:cudart_context_mgr.obj
 0001:0003e3a0       ?insert@?$map@PEAUCUfunc_st@@PEAUcudaEntryFunction@cudart@@@cudart@@QEAA?AW4cudaError@@AEBUentry@12@@Z 000000018003f3a0 f i cudart_static:cudart_context_mgr.obj
 0001:0003e470       ?insert@?$set@PEAVcontextState@cudart@@@cudart@@QEAA?AW4cudaError@@AEBQEAVcontextState@2@PEA_N@Z 000000018003f470 f i cudart_static:cudart_context_mgr.obj
 0001:0003e550       ?insert@?$set@Uentry@?$map@PEAUCUfunc_st@@PEAUcudaEntryFunction@cudart@@@cudart@@@cudart@@QEAA?AW4cudaError@@AEBUentry@?$map@PEAUCUfunc_st@@PEAUcudaEntryFunction@cudart@@@2@PEA_N@Z 000000018003f550 f i cudart_static:cudart_context_mgr.obj
 0001:0003e630       ?isPrimaryCtxInitialized@contextStateManager@cudart@@QEAA_NPEAUdevice@2@@Z 000000018003f630 f   cudart_static:cudart_context_mgr.obj
 0001:0003e660       ?notifyContextManagerOfModuleLoad@contextStateManager@cudart@@QEAA?AW4cudaError@@PEAVcontextState@2@AEAV?$set@PEAUglobalModule@cudart@@@2@@Z 000000018003f660 f   cudart_static:cudart_context_mgr.obj
 0001:0003e8c0       ?notifyContextManagerOfModuleUnload@contextStateManager@cudart@@QEAA?AW4cudaError@@PEAVcontextState@2@AEAV?$map@PEAUglobalModule@cudart@@PEAUmodule@2@@2@@Z 000000018003f8c0 f   cudart_static:cudart_context_mgr.obj
 0001:0003ea60       ?notifyContextManagerOfModuleUnload@contextStateManager@cudart@@QEAA?AW4cudaError@@PEAVcontextState@2@AEAV?$set@PEAUmodule@cudart@@@2@@Z 000000018003fa60 f   cudart_static:cudart_context_mgr.obj
 0001:0003ec00       ?notifyContextStatesOfModuleLoad@contextStateManager@cudart@@QEAA?AW4cudaError@@PEAUglobalModule@2@@Z 000000018003fc00 f   cudart_static:cudart_context_mgr.obj
 0001:0003eca0       ?notifyContextStatesOfModuleUnload@contextStateManager@cudart@@QEAA?AW4cudaError@@PEAUglobalModule@2@@Z 000000018003fca0 f   cudart_static:cudart_context_mgr.obj
 0001:0003ed40       ?rehash@?$set@PEAVcontextState@cudart@@@cudart@@AEAAX_K@Z 000000018003fd40 f i cudart_static:cudart_context_mgr.obj
 0001:0003ee10       ?rehash@?$set@Uentry@?$map@PEAUCUfunc_st@@PEAUcudaEntryFunction@cudart@@@cudart@@@cudart@@AEAAX_K@Z 000000018003fe10 f i cudart_static:cudart_context_mgr.obj
 0001:0003eee0       ?tryInitPrimaryContext@contextStateManager@cudart@@AEAA?AW4cudaError@@PEAUdevice@2@@Z 000000018003fee0 f   cudart_static:cudart_context_mgr.obj
 0001:0003ef30       ??0?$base_iterator@$00@?$set@PEAUglobalModule@cudart@@@cudart@@QEAA@AEBV?$base_iterator@$0A@@12@@Z 000000018003ff30 f i cudart_static:cudart_global.obj
 0001:0003ef50       ??0?$base_iterator@$0A@@?$list@UentryFunctionTemp@cudart@@@cudart@@QEAA@AEBV012@@Z 000000018003ff50 f i cudart_static:cudart_global.obj
 0001:0003ef60       ??0?$base_iterator@$0A@@?$list@UsurfaceTemp@cudart@@@cudart@@QEAA@AEBV012@@Z 000000018003ff60 f i cudart_static:cudart_global.obj
 0001:0003ef70       ??0?$base_iterator@$0A@@?$list@UsurfaceTemp@cudart@@@cudart@@QEAA@PEAVnode@12@@Z 000000018003ff70 f i cudart_static:cudart_global.obj
 0001:0003ef80       ??0?$base_iterator@$0A@@?$list@UtextureTemp@cudart@@@cudart@@QEAA@AEBV012@@Z 000000018003ff80 f i cudart_static:cudart_global.obj
 0001:0003ef90       ??0?$base_iterator@$0A@@?$list@UtextureTemp@cudart@@@cudart@@QEAA@PEAVnode@12@@Z 000000018003ff90 f i cudart_static:cudart_global.obj
 0001:0003efa0       ??0?$list@UdeviceFunctionTemp@cudart@@@cudart@@QEAA@XZ 000000018003ffa0 f i cudart_static:cudart_global.obj
 0001:0003efb0       ??0?$list@UentryFunctionTemp@cudart@@@cudart@@QEAA@XZ 000000018003ffb0 f i cudart_static:cudart_global.obj
 0001:0003efc0       ??0?$list@UsurfaceTemp@cudart@@@cudart@@QEAA@XZ 000000018003ffc0 f i cudart_static:cudart_global.obj
 0001:0003efd0       ??0?$list@UtextureTemp@cudart@@@cudart@@QEAA@XZ 000000018003ffd0 f i cudart_static:cudart_global.obj
 0001:0003efe0       ??0?$list@UvariableTemp@cudart@@@cudart@@QEAA@XZ 000000018003ffe0 f i cudart_static:cudart_global.obj
 0001:0003eff0       ??0GlobalStateRef@cudart@@QEAA@XZ 000000018003fff0 f   cudart_static:cudart_global.obj
 0001:0003f000       ??0device@cudart@@QEAA@XZ  0000000180040000 f i cudart_static:cudart_global.obj
 0001:0003f050       ??0deviceMgr@cudart@@QEAA@XZ 0000000180040050 f i cudart_static:cudart_global.obj
 0001:0003f0f0       ??0devicePrimaryContextLock@cudart@@QEAA@PEAUdevice@1@@Z 00000001800400f0 f i cudart_static:cudart_global.obj
 0001:0003f120       ??0entryFunctionTemp@cudart@@QEAA@PEBXPEADPEBDHPEAUuint3@@3PEAUdim3@@4PEAH@Z 0000000180040120 f i cudart_static:cudart_global.obj
 0001:0003f170       ??0globalModule@cudart@@QEAA@PEAX@Z 0000000180040170 f   cudart_static:cudart_global.obj
 0001:0003f1b0       ??0globalState@cudart@@QEAA@XZ 00000001800401b0 f   cudart_static:cudart_global.obj
 0001:0003f220       ??0globalStateAutoLock@cudart@@QEAA@XZ 0000000180040220 f   cudart_static:cudart_global.obj
 0001:0003f250       ??0globalStateHandle@cudart@@QEAA@XZ 0000000180040250 f i cudart_static:cudart_global.obj
 0001:0003f280       ??0node@?$list@UentryFunctionTemp@cudart@@@cudart@@AEAA@AEBUentryFunctionTemp@2@PEAV012@1@Z 0000000180040280 f i cudart_static:cudart_global.obj
 0001:0003f2e0       ??0node@?$list@UsurfaceTemp@cudart@@@cudart@@AEAA@AEBUsurfaceTemp@2@PEAV012@1@Z 00000001800402e0 f i cudart_static:cudart_global.obj
 0001:0003f310       ??0node@?$list@UtextureTemp@cudart@@@cudart@@AEAA@AEBUtextureTemp@2@PEAV012@1@Z 0000000180040310 f i cudart_static:cudart_global.obj
 0001:0003f340       ??0node@?$list@UvariableTemp@cudart@@@cudart@@AEAA@AEBUvariableTemp@2@PEAV012@1@Z 0000000180040340 f i cudart_static:cudart_global.obj
 0001:0003f390       ??0surfaceTemp@cudart@@QEAA@PEBUsurfaceReference@@PEAPEBXPEBDH_N@Z 0000000180040390 f i cudart_static:cudart_global.obj
 0001:0003f3b0       ??0textureTemp@cudart@@QEAA@PEBUtextureReference@@PEAPEBXPEBDH_N3@Z 00000001800403b0 f i cudart_static:cudart_global.obj
 0001:0003f3e0       ??0variableTemp@cudart@@QEAA@PEAXPEAPEAXPEADPEBD_N_K4444@Z 00000001800403e0 f i cudart_static:cudart_global.obj
 0001:0003f430       ??1?$list@UdeviceFunctionTemp@cudart@@@cudart@@QEAA@XZ 0000000180040430 f i cudart_static:cudart_global.obj
 0001:0003f470       ??1?$list@UentryFunctionTemp@cudart@@@cudart@@QEAA@XZ 0000000180040470 f i cudart_static:cudart_global.obj
 0001:0003f4b0       ??1?$list@UsurfaceTemp@cudart@@@cudart@@QEAA@XZ 00000001800404b0 f i cudart_static:cudart_global.obj
 0001:0003f4f0       ??1?$list@UtextureTemp@cudart@@@cudart@@QEAA@XZ 00000001800404f0 f i cudart_static:cudart_global.obj
 0001:0003f530       ??1?$list@UvariableTemp@cudart@@@cudart@@QEAA@XZ 0000000180040530 f i cudart_static:cudart_global.obj
 0001:0003f570       ??1GlobalStateRef@cudart@@QEAA@XZ 0000000180040570 f   cudart_static:cudart_global.obj
 0001:0003f590       ??1device@cudart@@QEAA@XZ  0000000180040590 f i cudart_static:cudart_global.obj
 0001:0003f5e0       ??1deviceMgr@cudart@@QEAA@XZ 00000001800405e0 f i cudart_static:cudart_global.obj
 0001:0003f660       ??1devicePrimaryContextLock@cudart@@QEAA@XZ 0000000180040660 f i cudart_static:cudart_global.obj
 0001:0003f680       ??1globalModule@cudart@@QEAA@XZ 0000000180040680 f i cudart_static:cudart_global.obj
 0001:0003f740       ??1globalState@cudart@@QEAA@XZ 0000000180040740 f   cudart_static:cudart_global.obj
 0001:0003f920       ??1globalStateAutoLock@cudart@@QEAA@XZ 0000000180040920 f   cudart_static:cudart_global.obj
 0001:0003f940       ??1globalStateHandle@cudart@@QEAA@XZ 0000000180040940 f i cudart_static:cudart_global.obj
 0001:0003f9b0       ??2device@cudart@@SAPEAX_KAEBUnothrow_t@1@@Z 00000001800409b0 f i cudart_static:cudart_global.obj
 0001:0003f9d0       ??2deviceMgr@cudart@@SAPEAX_KAEBUnothrow_t@1@@Z 00000001800409d0 f i cudart_static:cudart_global.obj
 0001:0003f9f0       ??2globalModule@cudart@@SAPEAX_KAEBUnothrow_t@1@@Z 00000001800409f0 f i cudart_static:cudart_global.obj
 0001:0003fa10       ??2globalState@cudart@@SAPEAX_KAEBUnothrow_t@1@@Z 0000000180040a10 f i cudart_static:cudart_global.obj
 0001:0003fa30       ??2node@?$list@UentryFunctionTemp@cudart@@@cudart@@SAPEAX_KAEBUnothrow_t@2@@Z 0000000180040a30 f i cudart_static:cudart_global.obj
 0001:0003fa50       ??2node@?$list@UsurfaceTemp@cudart@@@cudart@@SAPEAX_KAEBUnothrow_t@2@@Z 0000000180040a50 f i cudart_static:cudart_global.obj
 0001:0003fa70       ??2node@?$list@UtextureTemp@cudart@@@cudart@@SAPEAX_KAEBUnothrow_t@2@@Z 0000000180040a70 f i cudart_static:cudart_global.obj
 0001:0003fa90       ??2node@?$list@UvariableTemp@cudart@@@cudart@@SAPEAX_KAEBUnothrow_t@2@@Z 0000000180040a90 f i cudart_static:cudart_global.obj
 0001:0003fab0       ??3device@cudart@@SAXPEAX@Z 0000000180040ab0 f i cudart_static:cudart_global.obj
 0001:0003fad0       ??3deviceMgr@cudart@@SAXPEAX@Z 0000000180040ad0 f i cudart_static:cudart_global.obj
 0001:0003faf0       ??3globalModule@cudart@@SAXPEAX@Z 0000000180040af0 f i cudart_static:cudart_global.obj
 0001:0003fb10       ??3globalState@cudart@@SAXPEAX@Z 0000000180040b10 f i cudart_static:cudart_global.obj
 0001:0003fb30       ??3node@?$list@UdeviceFunctionTemp@cudart@@@cudart@@SAXPEAX@Z 0000000180040b30 f i cudart_static:cudart_global.obj
 0001:0003fb50       ??3node@?$list@UentryFunctionTemp@cudart@@@cudart@@SAXPEAX@Z 0000000180040b50 f i cudart_static:cudart_global.obj
 0001:0003fb70       ??3node@?$list@UsurfaceTemp@cudart@@@cudart@@SAXPEAX@Z 0000000180040b70 f i cudart_static:cudart_global.obj
 0001:0003fb90       ??3node@?$list@UtextureTemp@cudart@@@cudart@@SAXPEAX@Z 0000000180040b90 f i cudart_static:cudart_global.obj
 0001:0003fbb0       ??3node@?$list@UvariableTemp@cudart@@@cudart@@SAXPEAX@Z 0000000180040bb0 f i cudart_static:cudart_global.obj
 0001:0003fbd0       ??9?$base_iterator@$00@?$set@PEAUglobalModule@cudart@@@cudart@@QEBA_NAEBV012@@Z 0000000180040bd0 f i cudart_static:cudart_global.obj
 0001:0003fbe0       ??9?$base_iterator@$0A@@?$list@UsurfaceTemp@cudart@@@cudart@@QEBA_NAEBV012@@Z 0000000180040be0 f i cudart_static:cudart_global.obj
 0001:0003fbf0       ??9?$base_iterator@$0A@@?$list@UtextureTemp@cudart@@@cudart@@QEBA_NAEBV012@@Z 0000000180040bf0 f i cudart_static:cudart_global.obj
 0001:0003fc00       ??D?$base_iterator@$00@?$set@PEAUglobalModule@cudart@@@cudart@@QEBAAEBQEAUglobalModule@2@XZ 0000000180040c00 f i cudart_static:cudart_global.obj
 0001:0003fc10       ??D?$base_iterator@$0A@@?$list@UentryFunctionTemp@cudart@@@cudart@@QEBAAEAUentryFunctionTemp@2@XZ 0000000180040c10 f i cudart_static:cudart_global.obj
 0001:0003fc20       ??D?$base_iterator@$0A@@?$list@UsurfaceTemp@cudart@@@cudart@@QEBAAEAUsurfaceTemp@2@XZ 0000000180040c20 f i cudart_static:cudart_global.obj
 0001:0003fc30       ??D?$base_iterator@$0A@@?$list@UtextureTemp@cudart@@@cudart@@QEBAAEAUtextureTemp@2@XZ 0000000180040c30 f i cudart_static:cudart_global.obj
 0001:0003fc40       ??D?$base_iterator@$0A@@?$list@UvariableTemp@cudart@@@cudart@@QEBAAEAUvariableTemp@2@XZ 0000000180040c40 f i cudart_static:cudart_global.obj
 0001:0003fc50       ??E?$base_iterator@$00@?$set@PEAUglobalModule@cudart@@@cudart@@QEAAAEAV012@XZ 0000000180040c50 f i cudart_static:cudart_global.obj
 0001:0003fc80       ??E?$base_iterator@$0A@@?$list@UentryFunctionTemp@cudart@@@cudart@@QEAA?AV012@XZ 0000000180040c80 f i cudart_static:cudart_global.obj
 0001:0003fca0       ??E?$base_iterator@$0A@@?$list@UsurfaceTemp@cudart@@@cudart@@QEAA?AV012@XZ 0000000180040ca0 f i cudart_static:cudart_global.obj
 0001:0003fcc0       ??E?$base_iterator@$0A@@?$list@UtextureTemp@cudart@@@cudart@@QEAA?AV012@XZ 0000000180040cc0 f i cudart_static:cudart_global.obj
 0001:0003fce0       ??_Gdevice@cudart@@QEAAPEAXI@Z 0000000180040ce0 f i cudart_static:cudart_global.obj
 0001:0003fd50       ??_GdeviceMgr@cudart@@QEAAPEAXI@Z 0000000180040d50 f i cudart_static:cudart_global.obj
 0001:0003fd90       ??_GglobalModule@cudart@@QEAAPEAXI@Z 0000000180040d90 f i cudart_static:cudart_global.obj
 0001:0003fdd0       ??_GglobalState@cudart@@QEAAPEAXI@Z 0000000180040dd0 f i cudart_static:cudart_global.obj
 0001:00040480       ?__loadDriverInternalUtil@cudart@@YAXXZ 0000000180041480 f   cudart_static:cudart_global.obj
 0001:00041c80       ?begin@?$list@UsurfaceTemp@cudart@@@cudart@@QEAA?AV?$base_iterator@$0A@@12@XZ 0000000180042c80 f i cudart_static:cudart_global.obj
 0001:00041c90       ?begin@?$list@UtextureTemp@cudart@@@cudart@@QEAA?AV?$base_iterator@$0A@@12@XZ 0000000180042c90 f i cudart_static:cudart_global.obj
 0001:00041ca0       ?chooseDevice@deviceMgr@cudart@@QEAAPEAUdevice@2@PEBUcudaDeviceProp@@@Z 0000000180042ca0 f   cudart_static:cudart_global.obj
 0001:00041fb0       ?destroyModule@globalState@cudart@@AEAA?AW4cudaError@@PEAUglobalModule@2@@Z 0000000180042fb0 f   cudart_static:cudart_global.obj
 0001:00042050       ?end@?$list@UsurfaceTemp@cudart@@@cudart@@QEAA?AV?$base_iterator@$0A@@12@XZ 0000000180043050 f i cudart_static:cudart_global.obj
 0001:00042060       ?end@?$list@UtextureTemp@cudart@@@cudart@@QEAA?AV?$base_iterator@$0A@@12@XZ 0000000180043060 f i cudart_static:cudart_global.obj
 0001:00042070       ?enumerateDevices@deviceMgr@cudart@@QEAA?AW4cudaError@@XZ 0000000180043070 f   cudart_static:cudart_global.obj
 0001:00042d10       ?getCurrentContextState@globalState@cudart@@QEAAPEAVcontextState@2@XZ 0000000180043d10 f   cudart_static:cudart_global.obj
 0001:00042d50       ?getDevice@deviceMgr@cudart@@QEAA?AW4cudaError@@PEAPEAUdevice@2@H@Z 0000000180043d50 f   cudart_static:cudart_global.obj
 0001:00042d70       ?getDeviceFromDriver@deviceMgr@cudart@@QEAA?AW4cudaError@@PEAPEAUdevice@2@H@Z 0000000180043d70 f   cudart_static:cudart_global.obj
 0001:00042dc0       ?getDeviceFromPrimaryCtx@deviceMgr@cudart@@QEAAPEAUdevice@2@PEAUCUctx_st@@@Z 0000000180043dc0 f   cudart_static:cudart_global.obj
 0001:00042e00       ?getGlobalState@cudart@@YAPEAVglobalState@1@XZ 0000000180043e00 f   cudart_static:cudart_global.obj
 0001:00042e30       ?getLoadResult@contextState@cudart@@QEAA?AW4cudaError_enum@@PEAUglobalModule@2@@Z 0000000180043e30 f i cudart_static:cudart_global.obj
 0001:00042e80       ?getModuleByEntryFunction@globalState@cudart@@QEAAPEAUglobalModule@2@PEBX@Z 0000000180043e80 f   cudart_static:cudart_global.obj
 0001:00042ef0       ?getModuleByVariable@globalState@cudart@@QEAAPEAUglobalModule@2@PEBX@Z 0000000180043ef0 f   cudart_static:cudart_global.obj
 0001:00042f60       ?initializeDriver@globalState@cudart@@QEAA?AW4cudaError@@XZ 0000000180043f60 f   cudart_static:cudart_global.obj
 0001:00043010       ?initializeDriverEntrypoints@globalState@cudart@@AEAAXXZ 0000000180044010 f   cudart_static:cudart_global.obj
 0001:00047300       ?initializeDriverInternal@globalState@cudart@@AEAA?AW4cudaError@@XZ 0000000180048300 f   cudart_static:cudart_global.obj
 0001:00047460       ?loadDriver@globalState@cudart@@QEAA?AW4cudaError@@XZ 0000000180048460 f   cudart_static:cudart_global.obj
 0001:000474e0       ?loadDriverInternal@globalState@cudart@@AEAA?AW4cudaError@@XZ 00000001800484e0 f   cudart_static:cudart_global.obj
 0001:00047620       ?loadIntoContext@globalModule@cudart@@QEAA?AW4cudaError@@PEAVcontextState@2@@Z 0000000180048620 f   cudart_static:cudart_global.obj
 0001:00047760       ?push_back@?$list@UentryFunctionTemp@cudart@@@cudart@@QEAA?AW4cudaError@@AEBUentryFunctionTemp@2@@Z 0000000180048760 f i cudart_static:cudart_global.obj
 0001:00047830       ?push_back@?$list@UsurfaceTemp@cudart@@@cudart@@QEAA?AW4cudaError@@AEBUsurfaceTemp@2@@Z 0000000180048830 f i cudart_static:cudart_global.obj
 0001:000478d0       ?push_back@?$list@UtextureTemp@cudart@@@cudart@@QEAA?AW4cudaError@@AEBUtextureTemp@2@@Z 00000001800488d0 f i cudart_static:cudart_global.obj
 0001:00047970       ?push_back@?$list@UvariableTemp@cudart@@@cudart@@QEAA?AW4cudaError@@AEBUvariableTemp@2@@Z 0000000180048970 f i cudart_static:cudart_global.obj
 0001:00047a30       ?registerEntryFunction@globalState@cudart@@QEAAXPEAUglobalModule@2@PEBDPEAD1HPEAUuint3@@3PEAUdim3@@4PEAH@Z 0000000180048a30 f   cudart_static:cudart_global.obj
 0001:00047ad0       ?registerFatBinary@globalState@cudart@@QEAA?AW4cudaError@@PEAPEAUglobalModule@2@PEAX@Z 0000000180048ad0 f   cudart_static:cudart_global.obj
 0001:00047b50       ?registerFatBinaryEnd@globalState@cudart@@QEAA?AW4cudaError@@PEAUglobalModule@2@@Z 0000000180048b50 f   cudart_static:cudart_global.obj
 0001:00047c30       ?registerHostVar@globalState@cudart@@QEAAXPEAUglobalModule@2@PEBDPEAX_K@Z 0000000180048c30 f   cudart_static:cudart_global.obj
 0001:00047ca0       ?registerManagedVar@globalState@cudart@@QEAAXPEAUglobalModule@2@PEAPEAXPEADPEBD_N_K44@Z 0000000180048ca0 f   cudart_static:cudart_global.obj
 0001:00047d30       ?registerSurface@globalState@cudart@@QEAAXPEAUglobalModule@2@PEBUsurfaceReference@@PEAPEBXPEBDH_N@Z 0000000180048d30 f   cudart_static:cudart_global.obj
 0001:00047df0       ?registerTexture@globalState@cudart@@QEAAXPEAUglobalModule@2@PEBUtextureReference@@PEAPEBXPEBDH_N4@Z 0000000180048df0 f   cudart_static:cudart_global.obj
 0001:00047ec0       ?registerVar@globalState@cudart@@QEAAXPEAUglobalModule@2@PEAD1PEBD_N_K33@Z 0000000180048ec0 f   cudart_static:cudart_global.obj
 0001:00047fc0       ?resetPrimaryContext@device@cudart@@QEAA?AW4cudaError@@XZ 0000000180048fc0 f   cudart_static:cudart_global.obj
 0001:00048050       ?tryRetain@GlobalStateRef@cudart@@QEAA_NXZ 0000000180049050 f   cudart_static:cudart_global.obj
 0001:00048110       ?unregisterFatBinary@globalState@cudart@@QEAAXPEAUglobalModule@2@@Z 0000000180049110 f   cudart_static:cudart_global.obj
 0001:00048160       ?updateDeviceProperties@device@cudart@@QEAA?AW4cudaError@@XZ 0000000180049160 f   cudart_static:cudart_global.obj
 0001:00048220       ??2configData@cudart@@SAPEAX_KAEBUnothrow_t@1@@Z 0000000180049220 f i cudart_static:cudart_thread.obj
 0001:00048240       ??3configData@cudart@@SAXPEAX@Z 0000000180049240 f i cudart_static:cudart_thread.obj
 0001:00048260       ?doLazyInitContextState@cudart@@YA?AW4cudaError@@XZ 0000000180049260 f   cudart_static:cudart_thread.obj
 0001:00048290       ?getDeviceToTry@threadState@cudart@@QEAA?AW4cudaError@@PEAPEAUdevice@2@H@Z 0000000180049290 f   cudart_static:cudart_thread.obj
 0001:00048330       ?getLastError@threadState@cudart@@QEAA?AW4cudaError@@XZ 0000000180049330 f   cudart_static:cudart_thread.obj
 0001:00048350       ?getLazyInitContextState@cudart@@YA?AW4cudaError@@PEAPEAVcontextState@1@@Z 0000000180049350 f   cudart_static:cudart_thread.obj
 0001:00048380       ?getNumDevicesToTry@threadState@cudart@@QEAA?AW4cudaError@@PEAH@Z 0000000180049380 f   cudart_static:cudart_thread.obj
 0001:00048410       ?initialize@threadState@cudart@@QEAAXXZ 0000000180049410 f   cudart_static:cudart_thread.obj
 0001:00048460       ?peekAtLastError@threadState@cudart@@QEAA?AW4cudaError@@XZ 0000000180049460 f   cudart_static:cudart_thread.obj
 0001:00048470       ?popConfigForLaunch@threadLaunchState@cudart@@QEAA?AW4cudaError@@AEAUconfigData@2@@Z 0000000180049470 f   cudart_static:cudart_thread.obj
 0001:00048550       ?pushConfig@threadLaunchState@cudart@@QEAA?AW4cudaError@@Udim3@@0_KPEAUCUstream_st@@@Z 0000000180049550 f   cudart_static:cudart_thread.obj
 0001:00048680       ?setLastError@threadState@cudart@@QEAAXW4cudaError@@@Z 0000000180049680 f   cudart_static:cudart_thread.obj
 0001:00048690       ?setValidDevices@threadState@cudart@@QEAA?AW4cudaError@@PEAHH@Z 0000000180049690 f   cudart_static:cudart_thread.obj
 0001:000487d0       ?getThreadState@cudart@@YA?AW4cudaError@@PEAPEAUthreadState@1@@Z 00000001800497d0 f   cudart_static:cudart_tls.obj
 0001:00048830       ?isInitialized@threadState@cudart@@QEAA_NXZ 0000000180049830 f i cudart_static:cudart_tls.obj
 0001:00048840       ?lazyInit@?A0x8ea553dc@@YA?AW4cudaError@@XZ 0000000180049840 f   cudart_static:cudart_tls.obj
 0001:00048880       ??0cudaArrayLocalState@arrayHelper@cudart@@QEAA@XZ 0000000180049880 f i cudart_static:cudart_array.obj
 0001:000488b0       ?bindToSurface@arrayHelper@cudart@@YA?AW4cudaError@@PEBUcudaArray@@PEAUCUsurfref_st@@@Z 00000001800498b0 f   cudart_static:cudart_array.obj
 0001:00048930       ?bytesPerElement@arrayHelper@cudart@@YA?AW4cudaError@@PEA_KHW4CUarray_format_enum@@@Z 0000000180049930 f   cudart_static:cudart_array.obj
 0001:00048a50       ?copyFromDevice2D@arrayHelper@cudart@@YA?AW4cudaError@@W4CUmemorytype_enum@@PEBUcudaArray@@_K2PEBD2222PEAUCUstream_st@@_N5@Z 0000000180049a50 f   cudart_static:cudart_array.obj
 0001:00048c40       ?copyFromDevice@arrayHelper@cudart@@YA?AW4cudaError@@W4CUmemorytype_enum@@PEBUcudaArray@@_K2PEBD22PEAUCUstream_st@@_N5@Z 0000000180049c40 f   cudart_static:cudart_array.obj
 0001:00048f60       ?copyFromHost2D@arrayHelper@cudart@@YA?AW4cudaError@@PEBUcudaArray@@_K1PEBD111PEAUCUstream_st@@_N4@Z 0000000180049f60 f   cudart_static:cudart_array.obj
 0001:00049150       ?copyFromHost@arrayHelper@cudart@@YA?AW4cudaError@@PEBUcudaArray@@_K1PEBD1PEAUCUstream_st@@_N4@Z 000000018004a150 f   cudart_static:cudart_array.obj
 0001:00049460       ?copyToArray2D@arrayHelper@cudart@@YA?AW4cudaError@@PEBUcudaArray@@_K1PEAU4@1111_N@Z 000000018004a460 f   cudart_static:cudart_array.obj
 0001:00049650       ?copyToArray@arrayHelper@cudart@@YA?AW4cudaError@@PEBUcudaArray@@_K1PEAU4@111_N@Z 000000018004a650 f   cudart_static:cudart_array.obj
 0001:00049750       ?copyToDevice2D@arrayHelper@cudart@@YA?AW4cudaError@@W4CUmemorytype_enum@@PEBUcudaArray@@_K2PEAD2222PEAUCUstream_st@@_N5@Z 000000018004a750 f   cudart_static:cudart_array.obj
 0001:00049940       ?copyToDevice@arrayHelper@cudart@@YA?AW4cudaError@@W4CUmemorytype_enum@@PEBUcudaArray@@_K2PEAD22PEAUCUstream_st@@_N5@Z 000000018004a940 f   cudart_static:cudart_array.obj
 0001:00049c60       ?copyToHost2D@arrayHelper@cudart@@YA?AW4cudaError@@PEBUcudaArray@@_K1PEAD111PEAUCUstream_st@@_N4@Z 000000018004ac60 f   cudart_static:cudart_array.obj
 0001:00049e50       ?copyToHost@arrayHelper@cudart@@YA?AW4cudaError@@PEBUcudaArray@@_K1PEAD1PEAUCUstream_st@@_N4@Z 000000018004ae50 f   cudart_static:cudart_array.obj
 0001:0004a160       ?getChannelDesc@arrayHelper@cudart@@YA?AW4cudaError@@PEBUcudaArray@@PEAUcudaChannelFormatDesc@@@Z 000000018004b160 f   cudart_static:cudart_array.obj
 0001:0004a1e0       ?getChannelFormatDescFromDriverDesc@arrayHelper@cudart@@YA?AW4cudaError@@PEAUcudaChannelFormatDesc@@PEA_K11PEBUCUDA_ARRAY3D_DESCRIPTOR_st@@@Z 000000018004b1e0 f   cudart_static:cudart_array.obj
 0001:0004a3e0       ?getDescInfo@arrayHelper@cudart@@YA?AW4cudaError@@PEBUcudaChannelFormatDesc@@AEAHAEAW4CUarray_format_enum@@@Z 000000018004b3e0 f   cudart_static:cudart_array.obj
 0001:0004a800       ?getDriverArray@arrayHelper@cudart@@YAPEAUCUarray_st@@PEAUcudaArray@@@Z 000000018004b800 f   cudart_static:cudart_array.obj
 0001:0004a810       ?getElementSize@arrayHelper@cudart@@YA?AW4cudaError@@PEA_KPEAUcudaArray@@@Z 000000018004b810 f   cudart_static:cudart_array.obj
 0001:0004a870       ?getExtent@arrayHelper@cudart@@YA?AW4cudaError@@PEBUcudaArray@@PEAUcudaExtent@@@Z 000000018004b870 f   cudart_static:cudart_array.obj
 0001:0004a8f0       ?getFormat@arrayHelper@cudart@@YA?AW4cudaError@@PEBUcudaArray@@AEAHAEAW4CUarray_format_enum@@@Z 000000018004b8f0 f   cudart_static:cudart_array.obj
 0001:0004a970       ?getFormat@arrayHelper@cudart@@YA?AW4cudaError@@PEBUcudaMipmappedArray@@AEAHAEAW4CUarray_format_enum@@@Z 000000018004b970 f   cudart_static:cudart_array.obj
 0001:0004ab50       ?memCopy3DInit@cudart@@YA?AUCUDA_MEMCPY3D_st@@W4CUmemorytype_enum@@0@Z 000000018004bb50 f i cudart_static:cudart_array.obj
 0001:0004abd0       ?setupTexture@arrayHelper@cudart@@YA?AW4cudaError@@PEBUcudaArray@@PEAUCUtexref_st@@@Z 000000018004bbd0 f   cudart_static:cudart_array.obj
 0001:0004ac50       ?setupTexture@arrayHelper@cudart@@YA?AW4cudaError@@PEBUcudaMipmappedArray@@PEAUCUtexref_st@@@Z 000000018004bc50 f   cudart_static:cudart_array.obj
 0001:0004ac90       ?writeDstLoc@arrayHelper@cudart@@YA?AW4cudaError@@PEBUcudaArray@@AEAUCUDA_MEMCPY3D_st@@UcudaPos@@@Z 000000018004bc90 f   cudart_static:cudart_array.obj
 0001:0004ad30       ?writeExtent@arrayHelper@cudart@@YA?AW4cudaError@@PEBUcudaArray@@AEAUCUDA_MEMCPY3D_st@@UcudaExtent@@@Z 000000018004bd30 f   cudart_static:cudart_array.obj
 0001:0004adc0       ?writeSrcLoc@arrayHelper@cudart@@YA?AW4cudaError@@PEBUcudaArray@@AEAUCUDA_MEMCPY3D_st@@UcudaPos@@@Z 000000018004bdc0 f   cudart_static:cudart_array.obj
 0001:0004ae60       ?driverMemcpy3D@driverHelper@cudart@@YA?AW4cudaError@@PEAUCUDA_MEMCPY3D_st@@PEAUCUstream_st@@_N2@Z 000000018004be60 f   cudart_static:cudart_helper.obj
 0001:0004aec0       ?driverMemcpy3DPeer@driverHelper@cudart@@YA?AW4cudaError@@PEAUCUDA_MEMCPY3D_PEER_st@@PEAUCUstream_st@@_N2@Z 000000018004bec0 f   cudart_static:cudart_helper.obj
 0001:0004af20       ?freeHost@driverHelper@cudart@@YA?AW4cudaError@@PEAX@Z 000000018004bf20 f   cudart_static:cudart_helper.obj
 0001:0004af50       ?getCurrentContext@driverHelper@cudart@@YA?AW4cudaError@@PEAPEAUCUctx_st@@@Z 000000018004bf50 f   cudart_static:cudart_helper.obj
 0001:0004af80       ?getDefaultDeviceD3D@driverHelper@cudart@@YA?AW4cudaError@@PEAPEAUdevice@2@PEAUIUnknown@@HH@Z 000000018004bf80 f   cudart_static:cudart_helper.obj
 0001:0004b0d0       ?getDriverResDescFromResDesc@driverHelper@cudart@@YA?AW4cudaError@@PEAUCUDA_RESOURCE_DESC_st@@PEBUcudaResourceDesc@@PEAUCUDA_TEXTURE_DESC_st@@PEBUcudaTextureDesc@@PEAUCUDA_RESOURCE_VIEW_DESC_st@@PEBUcudaResourceViewDesc@@@Z 000000018004c0d0 f   cudart_static:cudart_helper.obj
 0001:0004b450       ?getResDescFromDriverResDesc@driverHelper@cudart@@YA?AW4cudaError@@PEAUcudaResourceDesc@@PEBUCUDA_RESOURCE_DESC_st@@PEAUcudaTextureDesc@@PEBUCUDA_TEXTURE_DESC_st@@PEAUcudaResourceViewDesc@@PEBUCUDA_RESOURCE_VIEW_DESC_st@@@Z 000000018004c450 f   cudart_static:cudart_helper.obj
 0001:0004b6e0       ?hostGetDevicePointer@driverHelper@cudart@@YA?AW4cudaError@@PEAXPEAPEAXI@Z 000000018004c6e0 f   cudart_static:cudart_helper.obj
 0001:0004b720       ?hostGetFlags@driverHelper@cudart@@YA?AW4cudaError@@PEAIPEAX@Z 000000018004c720 f   cudart_static:cudart_helper.obj
 0001:0004b750       ?mallocArray@driverHelper@cudart@@YA?AW4cudaError@@PEAPEAUcudaArray@@PEBUcudaChannelFormatDesc@@_K22HI@Z 000000018004c750 f   cudart_static:cudart_helper.obj
 0001:0004b8d0       ?mallocHost@driverHelper@cudart@@YA?AW4cudaError@@_KPEAPEAXI@Z 000000018004c8d0 f   cudart_static:cudart_helper.obj
 0001:0004b920       ?mallocManagedPtr@driverHelper@cudart@@YA?AW4cudaError@@_KIPEAPEAX@Z 000000018004c920 f   cudart_static:cudart_helper.obj
 0001:0004b970       ?mallocMipmappedArray@driverHelper@cudart@@YA?AW4cudaError@@PEAPEAUcudaMipmappedArray@@PEBUcudaChannelFormatDesc@@_K22II@Z 000000018004c970 f   cudart_static:cudart_helper.obj
 0001:0004baf0       ?mallocPitch@driverHelper@cudart@@YA?AW4cudaError@@_K00PEAPEAXPEA_K@Z 000000018004caf0 f   cudart_static:cudart_helper.obj
 0001:0004bb70       ?mallocPtr@driverHelper@cudart@@YA?AW4cudaError@@_KPEAPEAX@Z 000000018004cb70 f   cudart_static:cudart_helper.obj
 0001:0004bbc0       ?memCopy2DInit@cudart@@YA?AUCUDA_MEMCPY2D_st@@W4CUmemorytype_enum@@0@Z 000000018004cbc0 f i cudart_static:cudart_helper.obj
 0001:0004bc20       ?memcpy2DArrayToArray@driverHelper@cudart@@YA?AW4cudaError@@PEAUcudaArray@@_K1PEBU4@1111W4cudaMemcpyKind@@_N@Z 000000018004cc20 f   cudart_static:cudart_helper.obj
 0001:0004bcb0       ?memcpy2DFromArray@driverHelper@cudart@@YA?AW4cudaError@@PEAD_KPEBUcudaArray@@1111W4cudaMemcpyKind@@PEAUCUstream_st@@_N5@Z 000000018004ccb0 f   cudart_static:cudart_helper.obj
 0001:0004be70       ?memcpy2DPtr@driverHelper@cudart@@YA?AW4cudaError@@PEAD_KPEBD111W4cudaMemcpyKind@@PEAUCUstream_st@@_N5@Z 000000018004ce70 f   cudart_static:cudart_helper.obj
 0001:0004c170       ?memcpy2DToArray@driverHelper@cudart@@YA?AW4cudaError@@PEAUcudaArray@@_K1PEBD111W4cudaMemcpyKind@@PEAUCUstream_st@@_N5@Z 000000018004d170 f   cudart_static:cudart_helper.obj
 0001:0004c320       ?memcpy3D@driverHelper@cudart@@YA?AW4cudaError@@PEBUcudaMemcpy3DParms@@_NPEAUdevice@2@2PEAUCUstream_st@@11@Z 000000018004d320 f   cudart_static:cudart_helper.obj
 0001:0004c540       ?memcpyArrayToArray@driverHelper@cudart@@YA?AW4cudaError@@PEAUcudaArray@@_K1PEBU4@111W4cudaMemcpyKind@@_N@Z 000000018004d540 f   cudart_static:cudart_helper.obj
 0001:0004c5c0       ?memcpyAsyncDispatch@driverHelper@cudart@@YA?AW4cudaError@@PEAXPEBX_KW4cudaMemcpyKind@@PEAUCUstream_st@@_N@Z 000000018004d5c0 f   cudart_static:cudart_helper.obj
 0001:0004c7d0       ?memcpyDispatch@driverHelper@cudart@@YA?AW4cudaError@@PEAXPEBX_KW4cudaMemcpyKind@@_N@Z 000000018004d7d0 f   cudart_static:cudart_helper.obj
 0001:0004c9d0       ?memcpyFromArray@driverHelper@cudart@@YA?AW4cudaError@@PEADPEBUcudaArray@@_K22W4cudaMemcpyKind@@PEAUCUstream_st@@_N5@Z 000000018004d9d0 f   cudart_static:cudart_helper.obj
 0001:0004cb30       ?memcpyToArray@driverHelper@cudart@@YA?AW4cudaError@@PEAUcudaArray@@_K1PEBD1W4cudaMemcpyKind@@PEAUCUstream_st@@_N5@Z 000000018004db30 f   cudart_static:cudart_helper.obj
 0001:0004cc70       ?memset2DPtr@driverHelper@cudart@@YA?AW4cudaError@@PEAD_KH11PEAUCUstream_st@@_N3@Z 000000018004dc70 f   cudart_static:cudart_helper.obj
 0001:0004cd20       ?memset3DPtr@driverHelper@cudart@@YA?AW4cudaError@@UcudaPitchedPtr@@HUcudaExtent@@PEAUCUstream_st@@_N3@Z 000000018004dd20 f   cudart_static:cudart_helper.obj
 0001:0004ced0       ?memsetPtr@driverHelper@cudart@@YA?AW4cudaError@@PEADH_KPEAUCUstream_st@@_N3@Z 000000018004ded0 f   cudart_static:cudart_helper.obj
 0001:0004cf60       ?toCudartMemCopy3DParams@driverHelper@cudart@@YA?AW4cudaError@@PEBUCUDA_MEMCPY3D_st@@PEAUcudaMemcpy3DParms@@@Z 000000018004df60 f   cudart_static:cudart_helper.obj
 0001:0004d290       ?toDriverMemCopy3DParams@driverHelper@cudart@@YA?AW4cudaError@@PEBUcudaMemcpy3DParms@@PEAUdevice@2@1PEAUCUDA_MEMCPY3D_st@@@Z 000000018004e290 f   cudart_static:cudart_helper.obj
 0001:0004d640       ?validateDeviceD3D@driverHelper@cudart@@YA?AW4cudaError@@PEAUIUnknown@@H@Z 000000018004e640 f   cudart_static:cudart_helper.obj
 0001:0004d730       ?compareUuid@?A0xd5c76662@@YAHPEBUCUuuid_st@@0@Z 000000018004e730 f i cudart_static:cudart_etbl.obj
 0001:0004d750       __cudaGetExportTableInternal 000000018004e750 f   cudart_static:cudart_etbl.obj
 0001:00051650       StringCbCatW               0000000180052650 f i cudart_static:nvSecureLoadLibrary.obj
 0001:00051720       StringCbCopyW              0000000180052720 f i cudart_static:nvSecureLoadLibrary.obj
 0001:000517c0       StringCchCatW              00000001800527c0 f i cudart_static:nvSecureLoadLibrary.obj
 0001:00051890       StringCchCopyNW            0000000180052890 f i cudart_static:nvSecureLoadLibrary.obj
 0001:00051940       StringCchCopyW             0000000180052940 f i cudart_static:nvSecureLoadLibrary.obj
 0001:000523f0       nvCreateProcessA           00000001800533f0 f   cudart_static:nvSecureLoadLibrary.obj
 0001:00052500       nvCreateProcessAsUserA     0000000180053500 f   cudart_static:nvSecureLoadLibrary.obj
 0001:00052670       nvCreateProcessAsUserW     0000000180053670 f   cudart_static:nvSecureLoadLibrary.obj
 0001:00052790       nvCreateProcessW           0000000180053790 f   cudart_static:nvSecureLoadLibrary.obj
 0001:00052850       nvDetectDisplayDriverModuleLocationW 0000000180053850 f   cudart_static:nvSecureLoadLibrary.obj
 0001:00052a90       nvDetectDisplayDriverModuleRegistrationW 0000000180053a90 f   cudart_static:nvSecureLoadLibrary.obj
 0001:00052d90       nvGetDisplayDriverRegkeyW  0000000180053d90 f   cudart_static:nvSecureLoadLibrary.obj
 0001:00052db0       nvGetDisplayDriverStoreW   0000000180053db0 f   cudart_static:nvSecureLoadLibrary.obj
 0001:00052dd0       nvGetDriverRegkeyW         0000000180053dd0 f   cudart_static:nvSecureLoadLibrary.obj
 0001:00052fa0       nvGetDriverStoreW          0000000180053fa0 f   cudart_static:nvSecureLoadLibrary.obj
 0001:00053260       nvGetSystemDirectoryW      0000000180054260 f   cudart_static:nvSecureLoadLibrary.obj
 0001:000532e0       nvGetSystemModuleHandleA   00000001800542e0 f   cudart_static:nvSecureLoadLibrary.obj
 0001:00053340       nvGetSystemModuleHandleW   0000000180054340 f   cudart_static:nvSecureLoadLibrary.obj
 0001:00053400       nvLoadDisplayDriverModuleExA 0000000180054400 f   cudart_static:nvSecureLoadLibrary.obj
 0001:00053470       nvLoadDisplayDriverModuleExW 0000000180054470 f   cudart_static:nvSecureLoadLibrary.obj
 0001:00053530       nvLoadLibraryFromTrustedLocationExA 0000000180054530 f   cudart_static:nvSecureLoadLibrary.obj
 0001:000535a0       nvLoadLibraryFromTrustedLocationExW 00000001800545a0 f   cudart_static:nvSecureLoadLibrary.obj
 0001:00053650       nvLoadSignedLibraryExA     0000000180054650 f   cudart_static:nvSecureLoadLibrary.obj
 0001:000536d0       nvLoadSignedLibraryExW     00000001800546d0 f   cudart_static:nvSecureLoadLibrary.obj
 0001:00053860       nvLoadSystemLibraryExA     0000000180054860 f   cudart_static:nvSecureLoadLibrary.obj
 0001:000538d0       nvLoadSystemLibraryExW     00000001800548d0 f   cudart_static:nvSecureLoadLibrary.obj
 0001:00053a10       nvReleaseSecureLoadLibraryResources 0000000180054a10 f   cudart_static:nvSecureLoadLibrary.obj
 0001:00053c20       nvSafeLocalFree            0000000180054c20 f   cudart_static:nvSecureLoadLibrary.obj
 0001:00053c40       nvShellExecuteA            0000000180054c40 f   cudart_static:nvSecureLoadLibrary.obj
 0001:00053d70       nvShellExecuteExA          0000000180054d70 f   cudart_static:nvSecureLoadLibrary.obj
 0001:00053e80       nvShellExecuteExW          0000000180054e80 f   cudart_static:nvSecureLoadLibrary.obj
 0001:00053f40       nvShellExecuteW            0000000180054f40 f   cudart_static:nvSecureLoadLibrary.obj
 0001:00054010       nvVerifyFileSignatureA     0000000180055010 f   cudart_static:nvSecureLoadLibrary.obj
 0001:00054080       nvVerifyFileSignatureW     0000000180055080 f   cudart_static:nvSecureLoadLibrary.obj
 0001:000545f0       ?etiGetVersion@?A0x5398aed0@@YA?AW4cudaError_enum@@PEAJ@Z 00000001800555f0 f   cudart_static:tools_runtime_instance.obj
 0001:00054610       ?etiGetLinkageType@?A0x5398aed0@@YA?AW4cudaError_enum@@PEAJ@Z 0000000180055610 f   cudart_static:tools_runtime_instance.obj
 0001:00054630       ?etiGetRuntimeErrorString@?A0x5398aed0@@YA?AW4cudaError_enum@@KPEAPEBD0@Z 0000000180055630 f   cudart_static:tools_runtime_instance.obj
 0001:00054680       ?etiGetApiFunctionDescriptorTable@?A0x002f1b0e@@YA?AW4cudaError_enum@@PEAJPEAPEBUCUtoolsRuntimeFunctionDescriptor_st@@@Z 0000000180055680 f   cudart_static:tools_runtime_callbacks.obj
 0001:000546b0       ?etiGetErrorTable@?A0xe004bed4@@YA?AW4cudaError@@PEA_KPEAPEBW42@@Z 00000001800556b0 f   cudart_static:runtime_error_table.obj
 0001:000547f0       __cudaRegisterLinkedBinary_67_tmpxft_00001148_00000000_11_ex_sdl_flexible_shaft_lstm_sfun_cpp1_ii_aa66a14c 00000001800557f0 f   tmpxft_000017a0_00000000-11_ex_sdl_flexible_shaft_lstm_sfun_dlink.obj
 0001:00054850       __cudaRegisterLinkedBinary_76_tmpxft_00003eb8_00000000_11_ex_sdl_flexible_shaft_lstm_sfun_registry_cpp1_ii_baf3c205 0000000180055850 f   tmpxft_000017a0_00000000-11_ex_sdl_flexible_shaft_lstm_sfun_dlink.obj
 0001:000548b0       __cudaRegisterLinkedBinary_65_tmpxft_0000267c_00000000_11_c2_ex_sdl_flexible_shaft_lstm_cpp1_ii_2a719c28 00000001800558b0 f   tmpxft_000017a0_00000000-11_ex_sdl_flexible_shaft_lstm_sfun_dlink.obj
 0001:00054950       ?ex_sdl_flexible_shaft_lstm_initializer@@YAXXZ 0000000180055950 f   ex_sdl_flexible_shaft_lstm_sfun.obj
 0001:00054960       ?ex_sdl_flexible_shaft_lstm_terminator@@YAXXZ 0000000180055960 f   ex_sdl_flexible_shaft_lstm_sfun.obj
 0001:00054970       ?load_ex_sdl_flexible_shaft_lstm_optimization_info@@YAPEAUmxArray_tag@@EEE@Z 0000000180055970 f   ex_sdl_flexible_shaft_lstm_sfun.obj
 0001:00054a20       ?unload_ex_sdl_flexible_shaft_lstm_optimization_info@@YAXXZ 0000000180055a20 f   ex_sdl_flexible_shaft_lstm_sfun.obj
 0001:00054a50       ?sf_ex_sdl_flexible_shaft_lstm_method_dispatcher@@YAIPEAUSimStruct_tag@@IPEBDHPEAX@Z 0000000180055a50 f   ex_sdl_flexible_shaft_lstm_sfun.obj
 0001:00054aa0       ?sf_ex_sdl_flexible_shaft_lstm_process_check_sum_call@@YAIHQEAPEAUmxArray_tag@@HQEAPEBU1@@Z 0000000180055aa0 f   ex_sdl_flexible_shaft_lstm_sfun.obj
 0001:00054f90       ?sf_ex_sdl_flexible_shaft_lstm_get_eml_resolved_functions_info@@YAIHQEAPEAUmxArray_tag@@HQEAPEBU1@@Z 0000000180055f90 f   ex_sdl_flexible_shaft_lstm_sfun.obj
 0001:00055170       ?sf_ex_sdl_flexible_shaft_lstm_third_party_uses_info@@YAIHQEAPEAUmxArray_tag@@HQEAPEBU1@@Z 0000000180056170 f   ex_sdl_flexible_shaft_lstm_sfun.obj
 0001:00055340       ?sf_ex_sdl_flexible_shaft_lstm_jit_fallback_info@@YAIHQEAPEAUmxArray_tag@@HQEAPEBU1@@Z 0000000180056340 f   ex_sdl_flexible_shaft_lstm_sfun.obj
 0001:00055510       ?sf_ex_sdl_flexible_shaft_lstm_get_post_codegen_info@@YAIHQEAPEAUmxArray_tag@@HQEAPEBU1@@Z 0000000180056510 f   ex_sdl_flexible_shaft_lstm_sfun.obj
 0001:000556f0       ?sf_ex_sdl_flexible_shaft_lstm_updateBuildInfo_args_info@@YAIHQEAPEAUmxArray_tag@@HQEAPEBU1@@Z 00000001800566f0 f   ex_sdl_flexible_shaft_lstm_sfun.obj
 0001:000558c0       ?ex_sdl_flexible_shaft_lstm_register_exported_symbols@@YAXPEAUSimStruct_tag@@@Z 00000001800568c0 f   ex_sdl_flexible_shaft_lstm_sfun.obj
 0001:00055950       ?abs@@YAJJ@Z               0000000180056950 f i ex_sdl_flexible_shaft_lstm_sfun.obj
 0001:00055970       ?abs@@YAMM@Z               0000000180056970 f i ex_sdl_flexible_shaft_lstm_sfun.obj
 0001:00055990       ?abs@@YANN@Z               0000000180056990 f i ex_sdl_flexible_shaft_lstm_sfun.obj
 0001:000559b0       ?abs@@YA_J_J@Z             00000001800569b0 f i ex_sdl_flexible_shaft_lstm_sfun.obj
 0001:000559d0       ?acos@@YAMM@Z              00000001800569d0 f i ex_sdl_flexible_shaft_lstm_sfun.obj
 0001:000559f0       ?acosh@@YAMM@Z             00000001800569f0 f i ex_sdl_flexible_shaft_lstm_sfun.obj
 0001:00055a10       ?asin@@YAMM@Z              0000000180056a10 f i ex_sdl_flexible_shaft_lstm_sfun.obj
 0001:00055a30       ?asinh@@YAMM@Z             0000000180056a30 f i ex_sdl_flexible_shaft_lstm_sfun.obj
 0001:00055a50       ?atan2@@YAMMM@Z            0000000180056a50 f i ex_sdl_flexible_shaft_lstm_sfun.obj
 0001:00055a80       ?atan@@YAMM@Z              0000000180056a80 f i ex_sdl_flexible_shaft_lstm_sfun.obj
 0001:00055aa0       ?atanh@@YAMM@Z             0000000180056aa0 f i ex_sdl_flexible_shaft_lstm_sfun.obj
 0001:00055ac0       ?cbrt@@YAMM@Z              0000000180056ac0 f i ex_sdl_flexible_shaft_lstm_sfun.obj
 0001:00055ae0       ?ceil@@YAMM@Z              0000000180056ae0 f i ex_sdl_flexible_shaft_lstm_sfun.obj
 0001:00055b00       ?copysign@@YAMMM@Z         0000000180056b00 f i ex_sdl_flexible_shaft_lstm_sfun.obj
 0001:00055b30       ?cos@@YAMM@Z               0000000180056b30 f i ex_sdl_flexible_shaft_lstm_sfun.obj
 0001:00055b50       ?cosh@@YAMM@Z              0000000180056b50 f i ex_sdl_flexible_shaft_lstm_sfun.obj
 0001:00055b70       ?erf@@YAMM@Z               0000000180056b70 f i ex_sdl_flexible_shaft_lstm_sfun.obj
 0001:00055b90       ?erfc@@YAMM@Z              0000000180056b90 f i ex_sdl_flexible_shaft_lstm_sfun.obj
 0001:00055bb0       ?exp2@@YAMM@Z              0000000180056bb0 f i ex_sdl_flexible_shaft_lstm_sfun.obj
 0001:00055bd0       ?exp@@YAMM@Z               0000000180056bd0 f i ex_sdl_flexible_shaft_lstm_sfun.obj
 0001:00055bf0       ?expm1@@YAMM@Z             0000000180056bf0 f i ex_sdl_flexible_shaft_lstm_sfun.obj
 0001:00055c10       ?fabs@@YAMM@Z              0000000180056c10 f i ex_sdl_flexible_shaft_lstm_sfun.obj
 0001:00055c30       ?fdim@@YAMMM@Z             0000000180056c30 f i ex_sdl_flexible_shaft_lstm_sfun.obj
 0001:00055c60       ?floor@@YAMM@Z             0000000180056c60 f i ex_sdl_flexible_shaft_lstm_sfun.obj
 0001:00055c80       ?fma@@YAMMMM@Z             0000000180056c80 f i ex_sdl_flexible_shaft_lstm_sfun.obj
 0001:00055cc0       ?fmax@@YAMMM@Z             0000000180056cc0 f i ex_sdl_flexible_shaft_lstm_sfun.obj
 0001:00055cf0       ?fmin@@YAMMM@Z             0000000180056cf0 f i ex_sdl_flexible_shaft_lstm_sfun.obj
 0001:00055d20       ?fmod@@YAMMM@Z             0000000180056d20 f i ex_sdl_flexible_shaft_lstm_sfun.obj
 0001:00055d50       ?frexp@@YAMMPEAH@Z         0000000180056d50 f i ex_sdl_flexible_shaft_lstm_sfun.obj
 0001:00055d80       ?hypot@@YAMMM@Z            0000000180056d80 f i ex_sdl_flexible_shaft_lstm_sfun.obj
 0001:00055db0       ?ilogb@@YAHM@Z             0000000180056db0 f i ex_sdl_flexible_shaft_lstm_sfun.obj
 0001:00055dd0       ?ldexp@@YAMMH@Z            0000000180056dd0 f i ex_sdl_flexible_shaft_lstm_sfun.obj
 0001:00055e00       ?lgamma@@YAMM@Z            0000000180056e00 f i ex_sdl_flexible_shaft_lstm_sfun.obj
 0001:00055e20       ?llrint@@YA_JM@Z           0000000180056e20 f i ex_sdl_flexible_shaft_lstm_sfun.obj
 0001:00055e40       ?llround@@YA_JM@Z          0000000180056e40 f i ex_sdl_flexible_shaft_lstm_sfun.obj
 0001:00055e60       ?log10@@YAMM@Z             0000000180056e60 f i ex_sdl_flexible_shaft_lstm_sfun.obj
 0001:00055e80       ?log1p@@YAMM@Z             0000000180056e80 f i ex_sdl_flexible_shaft_lstm_sfun.obj
 0001:00055ea0       ?log2@@YAMM@Z              0000000180056ea0 f i ex_sdl_flexible_shaft_lstm_sfun.obj
 0001:00055ec0       ?log@@YAMM@Z               0000000180056ec0 f i ex_sdl_flexible_shaft_lstm_sfun.obj
 0001:00055ee0       ?logb@@YAMM@Z              0000000180056ee0 f i ex_sdl_flexible_shaft_lstm_sfun.obj
 0001:00055f00       ?lrint@@YAJM@Z             0000000180056f00 f i ex_sdl_flexible_shaft_lstm_sfun.obj
 0001:00055f20       ?lround@@YAJM@Z            0000000180056f20 f i ex_sdl_flexible_shaft_lstm_sfun.obj
 0001:00055f40       ?modf@@YAMMPEAM@Z          0000000180056f40 f i ex_sdl_flexible_shaft_lstm_sfun.obj
 0001:00055f70       ?nearbyint@@YAMM@Z         0000000180056f70 f i ex_sdl_flexible_shaft_lstm_sfun.obj
 0001:00055f90       ?nextafter@@YAMMM@Z        0000000180056f90 f i ex_sdl_flexible_shaft_lstm_sfun.obj
 0001:00055fc0       ?pow@@YAMMM@Z              0000000180056fc0 f i ex_sdl_flexible_shaft_lstm_sfun.obj
 0001:00055ff0       ?remainder@@YAMMM@Z        0000000180056ff0 f i ex_sdl_flexible_shaft_lstm_sfun.obj
 0001:00056020       ?remquo@@YAMMMPEAH@Z       0000000180057020 f i ex_sdl_flexible_shaft_lstm_sfun.obj
 0001:00056060       ?rint@@YAMM@Z              0000000180057060 f i ex_sdl_flexible_shaft_lstm_sfun.obj
 0001:00056080       ?round@@YAMM@Z             0000000180057080 f i ex_sdl_flexible_shaft_lstm_sfun.obj
 0001:000560a0       ?scalbln@@YAMMJ@Z          00000001800570a0 f i ex_sdl_flexible_shaft_lstm_sfun.obj
 0001:000560d0       ?signbit@@YA_NM@Z          00000001800570d0 f i ex_sdl_flexible_shaft_lstm_sfun.obj
 0001:00056110       ?signbit@@YA_NN@Z          0000000180057110 f i ex_sdl_flexible_shaft_lstm_sfun.obj
 0001:00056150       ?signbit@@YA_NO@Z          0000000180057150 f i ex_sdl_flexible_shaft_lstm_sfun.obj
 0001:00056190       ?sin@@YAMM@Z               0000000180057190 f i ex_sdl_flexible_shaft_lstm_sfun.obj
 0001:000561b0       ?sinh@@YAMM@Z              00000001800571b0 f i ex_sdl_flexible_shaft_lstm_sfun.obj
 0001:000561d0       ?sqrt@@YAMM@Z              00000001800571d0 f i ex_sdl_flexible_shaft_lstm_sfun.obj
 0001:000561f0       ?tan@@YAMM@Z               00000001800571f0 f i ex_sdl_flexible_shaft_lstm_sfun.obj
 0001:00056210       ?tanh@@YAMM@Z              0000000180057210 f i ex_sdl_flexible_shaft_lstm_sfun.obj
 0001:00056230       ?tgamma@@YAMM@Z            0000000180057230 f i ex_sdl_flexible_shaft_lstm_sfun.obj
 0001:00056250       ?trunc@@YAMM@Z             0000000180057250 f i ex_sdl_flexible_shaft_lstm_sfun.obj
 0001:00056270       fabsf                      0000000180057270 f i ex_sdl_flexible_shaft_lstm_sfun.obj
 0001:00056290       frexpf                     0000000180057290 f i ex_sdl_flexible_shaft_lstm_sfun.obj
 0001:000562c0       ldexpf                     00000001800572c0 f i ex_sdl_flexible_shaft_lstm_sfun.obj
 0001:00056340       mexFunction                0000000180057340 f   ex_sdl_flexible_shaft_lstm_sfun_registry.obj
 0001:00058ad0       _ssSetInputPortDirectFeedThroughFcn 0000000180059ad0 f   ex_sdl_flexible_shaft_lstm_sfun_registry.obj
 0001:00058c50       _ssSetRWorkValueFcn        0000000180059c50 f   ex_sdl_flexible_shaft_lstm_sfun_registry.obj
 0001:00058cd0       _ssGetRWorkValueFcn        0000000180059cd0 f   ex_sdl_flexible_shaft_lstm_sfun_registry.obj
 0001:00058d40       _ssSetIWorkValueFcn        0000000180059d40 f   ex_sdl_flexible_shaft_lstm_sfun_registry.obj
 0001:00058dc0       _ssGetIWorkValueFcn        0000000180059dc0 f   ex_sdl_flexible_shaft_lstm_sfun_registry.obj
 0001:00058e30       _ssSetPWorkValueFcn        0000000180059e30 f   ex_sdl_flexible_shaft_lstm_sfun_registry.obj
 0001:00058eb0       _ssGetPWorkValueFcn        0000000180059eb0 f   ex_sdl_flexible_shaft_lstm_sfun_registry.obj
 0001:00058f20       _ssGetInputPortSignalFcn   0000000180059f20 f   ex_sdl_flexible_shaft_lstm_sfun_registry.obj
 0001:000592d0       _ssGetInputPortBufferDstPortFcn 000000018005a2d0 f   ex_sdl_flexible_shaft_lstm_sfun_registry.obj
 0001:00059350       _ssGetInputPortSignalPtrsFcn 000000018005a350 f   ex_sdl_flexible_shaft_lstm_sfun_registry.obj
 0001:00059700       ssGetParameterTuningCompliance 000000018005a700 f   ex_sdl_flexible_shaft_lstm_sfun_registry.obj
 0001:00059770       _ssReadInputStringFcn      000000018005a770 f   ex_sdl_flexible_shaft_lstm_sfun_registry.obj
 0001:000597e0       ssGetDTypeIdFromMxArray    000000018005a7e0 f   ex_sdl_flexible_shaft_lstm_sfun_registry.obj
 0001:00059900       ssWriteRTWMx2dMatParam     000000018005a900 f   ex_sdl_flexible_shaft_lstm_sfun_registry.obj
 0001:00059990       ssWriteRTWMxVectParam      000000018005a990 f   ex_sdl_flexible_shaft_lstm_sfun_registry.obj
 0001:00059a10       ssWriteRTWParameters       000000018005aa10 f   ex_sdl_flexible_shaft_lstm_sfun_registry.obj
 0001:0005a510       ssWriteRTWParamSettings    000000018005b510 f   ex_sdl_flexible_shaft_lstm_sfun_registry.obj
 0001:0005b250       ssWriteRTWStr              000000018005c250 f   ex_sdl_flexible_shaft_lstm_sfun_registry.obj
 0001:0005b2b0       ssWriteRTWWorkVect         000000018005c2b0 f   ex_sdl_flexible_shaft_lstm_sfun_registry.obj
 0001:0005b8a0       ssWarning                  000000018005c8a0 f   ex_sdl_flexible_shaft_lstm_sfun_registry.obj
 0001:0005b990       ssWriteRTWNameValuePair    000000018005c990 f   ex_sdl_flexible_shaft_lstm_sfun_registry.obj
 0001:0005c110       _ssSetInputPortMatrixDimensions 000000018005d110 f   ex_sdl_flexible_shaft_lstm_sfun_registry.obj
 0001:0005c260       _ssSetOutputPortMatrixDimensions 000000018005d260 f   ex_sdl_flexible_shaft_lstm_sfun_registry.obj
 0001:0005c3b0       _ssSetInputPortVectorDimension 000000018005d3b0 f   ex_sdl_flexible_shaft_lstm_sfun_registry.obj
 0001:0005c460       _ssSetOutputPortVectorDimension 000000018005d460 f   ex_sdl_flexible_shaft_lstm_sfun_registry.obj
 0001:0005c510       ssIsRunTimeParamTunable    000000018005d510 f   ex_sdl_flexible_shaft_lstm_sfun_registry.obj
 0001:0005c580       ssGetSFuncBlockHandle      000000018005d580 f   ex_sdl_flexible_shaft_lstm_sfun_registry.obj
 0001:0005c5f0       _ssGetCurrentInputPortWidth 000000018005d5f0 f   ex_sdl_flexible_shaft_lstm_sfun_registry.obj
 0001:0005c730       _ssGetCurrentOutputPortWidth 000000018005d730 f   ex_sdl_flexible_shaft_lstm_sfun_registry.obj
 0001:0005c870       _ssGetCallSystemNumFcnCallDestinations 000000018005d870 f   ex_sdl_flexible_shaft_lstm_sfun_registry.obj
 0001:0005c8e0       ssGetIsZeroCrossControlDisabled 000000018005d8e0 f   ex_sdl_flexible_shaft_lstm_sfun_registry.obj
 0001:0005c950       ssSetIsInputPortUsedForContZcSignal 000000018005d950 f   ex_sdl_flexible_shaft_lstm_sfun_registry.obj
 0001:0005c9c0       ssSetZcSignalIsZcElementDisc 000000018005d9c0 f   ex_sdl_flexible_shaft_lstm_sfun_registry.obj
 0001:0005ca70       ssSetZcSignalName          000000018005da70 f   ex_sdl_flexible_shaft_lstm_sfun_registry.obj
 0001:0005cae0       ssSetZcSignalWidth         000000018005dae0 f   ex_sdl_flexible_shaft_lstm_sfun_registry.obj
 0001:0005cb50       ssSetZcSignalZcEventType   000000018005db50 f   ex_sdl_flexible_shaft_lstm_sfun_registry.obj
 0001:0005cbc0       ssSetZcSignalType          000000018005dbc0 f   ex_sdl_flexible_shaft_lstm_sfun_registry.obj
 0001:0005cc30       ssSetZcSignalZcTol         000000018005dc30 f   ex_sdl_flexible_shaft_lstm_sfun_registry.obj
 0001:0005cca0       ssSetZcSignalNeedsEventNotification 000000018005dca0 f   ex_sdl_flexible_shaft_lstm_sfun_registry.obj
 0001:0005cd10       ssCreateAndAddZcSignalInfo 000000018005dd10 f   ex_sdl_flexible_shaft_lstm_sfun_registry.obj
 0001:0005cd80       ssCloneAndAddZcSignalInfo  000000018005dd80 f   ex_sdl_flexible_shaft_lstm_sfun_registry.obj
 0001:0005cdf0       ssGetNumZcSignals          000000018005ddf0 f   ex_sdl_flexible_shaft_lstm_sfun_registry.obj
 0001:0005ce60       ssGetZcSignalVector        000000018005de60 f   ex_sdl_flexible_shaft_lstm_sfun_registry.obj
 0001:0005ced0       ssGetZcSignalName          000000018005ded0 f   ex_sdl_flexible_shaft_lstm_sfun_registry.obj
 0001:0005cf40       ssGetZcSignalWidth         000000018005df40 f   ex_sdl_flexible_shaft_lstm_sfun_registry.obj
 0001:0005cfb0       ssGetZcSignalZcEventType   000000018005dfb0 f   ex_sdl_flexible_shaft_lstm_sfun_registry.obj
 0001:0005d020       ssGetZcSignalZcEvents      000000018005e020 f   ex_sdl_flexible_shaft_lstm_sfun_registry.obj
 0001:0005d090       ssGetZcSignalType          000000018005e090 f   ex_sdl_flexible_shaft_lstm_sfun_registry.obj
 0001:0005d100       ssGetZcSignalZcTol         000000018005e100 f   ex_sdl_flexible_shaft_lstm_sfun_registry.obj
 0001:0005d180       ssGetZcSignalNeedsEventNotification 000000018005e180 f   ex_sdl_flexible_shaft_lstm_sfun_registry.obj
 0001:0005d1f0       ssGetZcSignalIsZcElementDisc 000000018005e1f0 f   ex_sdl_flexible_shaft_lstm_sfun_registry.obj
 0001:0005d290       ssGetIsInputPortElementContinuous 000000018005e290 f   ex_sdl_flexible_shaft_lstm_sfun_registry.obj
 0001:0005d330       _ssGetAbsTol               000000018005e330 f   ex_sdl_flexible_shaft_lstm_sfun_registry.obj
 0001:0005d3a0       _ssSetStateAbsTol          000000018005e3a0 f   ex_sdl_flexible_shaft_lstm_sfun_registry.obj
 0001:0005d480       _ssSetInputPortReusableFcn 000000018005e480 f   ex_sdl_flexible_shaft_lstm_sfun_registry.obj
 0001:0005d590       _ssSetOutputPortReusableFcn 000000018005e590 f   ex_sdl_flexible_shaft_lstm_sfun_registry.obj
 0001:0005d6a0       _ssSetSymbolicDimsSupport  000000018005e6a0 f   ex_sdl_flexible_shaft_lstm_sfun_registry.obj
 0001:0005d710       _ssRegisterSymbolicDimsExpr 000000018005e710 f   ex_sdl_flexible_shaft_lstm_sfun_registry.obj
 0001:0005d790       _ssRegisterSymbolicDimsMATLABExpr 000000018005e790 f   ex_sdl_flexible_shaft_lstm_sfun_registry.obj
 0001:0005d830       _ssRegisterSymbolicDims    000000018005e830 f   ex_sdl_flexible_shaft_lstm_sfun_registry.obj
 0001:0005d8d0       _ssRegisterSymbolicDimsString 000000018005e8d0 f   ex_sdl_flexible_shaft_lstm_sfun_registry.obj
 0001:0005d950       _ssRegisterSymbolicDimsIntValue 000000018005e950 f   ex_sdl_flexible_shaft_lstm_sfun_registry.obj
 0001:0005d9c0       _ssRegisterSymbolicEqualRelation 000000018005e9c0 f   ex_sdl_flexible_shaft_lstm_sfun_registry.obj
 0001:0005da30       _ssRegisterSymbolicEqualValue 000000018005ea30 f   ex_sdl_flexible_shaft_lstm_sfun_registry.obj
 0001:0005daa0       _ssAmendLeadingSymbolicDims 000000018005eaa0 f   ex_sdl_flexible_shaft_lstm_sfun_registry.obj
 0001:0005db20       _ssAmendTrailingSymbolicDims 000000018005eb20 f   ex_sdl_flexible_shaft_lstm_sfun_registry.obj
 0001:0005dba0       _ssRegisterSymbolicDimsPlus 000000018005eba0 f   ex_sdl_flexible_shaft_lstm_sfun_registry.obj
 0001:0005dc20       _ssRegisterSymbolicDimsMinus 000000018005ec20 f   ex_sdl_flexible_shaft_lstm_sfun_registry.obj
 0001:0005dca0       _ssRegisterSymbolicDimsMultiply 000000018005eca0 f   ex_sdl_flexible_shaft_lstm_sfun_registry.obj
 0001:0005dd20       _ssRegisterSymbolicDimsDivide 000000018005ed20 f   ex_sdl_flexible_shaft_lstm_sfun_registry.obj
 0001:0005dda0       _ssGetNumSymbolicDims      000000018005eda0 f   ex_sdl_flexible_shaft_lstm_sfun_registry.obj
 0001:0005de10       _ssGetSymbolicDim          000000018005ee10 f   ex_sdl_flexible_shaft_lstm_sfun_registry.obj
 0001:0005de90       _ssSetInputPortSymbolicDimsId 000000018005ee90 f   ex_sdl_flexible_shaft_lstm_sfun_registry.obj
 0001:0005df00       _ssGetCompInputPortSymbolicDimsId 000000018005ef00 f   ex_sdl_flexible_shaft_lstm_sfun_registry.obj
 0001:0005df70       _ssSetCompInputPortSymbolicDimsId 000000018005ef70 f   ex_sdl_flexible_shaft_lstm_sfun_registry.obj
 0001:0005dfe0       _ssSetOutputPortSymbolicDimsId 000000018005efe0 f   ex_sdl_flexible_shaft_lstm_sfun_registry.obj
 0001:0005e050       _ssGetCompOutputPortSymbolicDimsId 000000018005f050 f   ex_sdl_flexible_shaft_lstm_sfun_registry.obj
 0001:0005e0c0       _ssSetCompOutputPortSymbolicDimsId 000000018005f0c0 f   ex_sdl_flexible_shaft_lstm_sfun_registry.obj
 0001:0005e130       _ssGetDWorkSymbolicDimsId  000000018005f130 f   ex_sdl_flexible_shaft_lstm_sfun_registry.obj
 0001:0005e1a0       _ssSetDWorkSymbolicDimsId  000000018005f1a0 f   ex_sdl_flexible_shaft_lstm_sfun_registry.obj
 0001:0005e210       _ssGetCompDWorkSymbolicDimsId 000000018005f210 f   ex_sdl_flexible_shaft_lstm_sfun_registry.obj
 0001:0005e280       _ssSetCompDWorkSymbolicDimsId 000000018005f280 f   ex_sdl_flexible_shaft_lstm_sfun_registry.obj
 0001:0005e2f0       _ssCreateSLCGStringBuffer  000000018005f2f0 f   ex_sdl_flexible_shaft_lstm_sfun_registry.obj
 0001:0005e360       _ssAddToSLCGStringBuffer   000000018005f360 f   ex_sdl_flexible_shaft_lstm_sfun_registry.obj
 0001:0005e3d0       ?sf_process_check_sum_call@@YAIHQEAPEAUmxArray_tag@@HQEAPEBU1@@Z 000000018005f3d0 f   ex_sdl_flexible_shaft_lstm_sfun_registry.obj
 0001:0005e420       ?sf_process_get_third_party_uses_info_call@@YAIHQEAPEAUmxArray_tag@@HQEAPEBU1@@Z 000000018005f420 f   ex_sdl_flexible_shaft_lstm_sfun_registry.obj
 0001:0005e650       ?sf_process_get_jit_fallback_info_call@@YAIHQEAPEAUmxArray_tag@@HQEAPEBU1@@Z 000000018005f650 f   ex_sdl_flexible_shaft_lstm_sfun_registry.obj
 0001:0005e880       ?sf_process_get_post_codegen_info_call@@YAIHQEAPEAUmxArray_tag@@HQEAPEBU1@@Z 000000018005f880 f   ex_sdl_flexible_shaft_lstm_sfun_registry.obj
 0001:0005eab0       ?sf_process_get_updateBuildInfo_args_info_call@@YAIHQEAPEAUmxArray_tag@@HQEAPEBU1@@Z 000000018005fab0 f   ex_sdl_flexible_shaft_lstm_sfun_registry.obj
 0001:0005ece0       ?sf_process_get_eml_resolved_functions_info_call@@YAIHQEAPEAUmxArray_tag@@HQEAPEBU1@@Z 000000018005fce0 f   ex_sdl_flexible_shaft_lstm_sfun_registry.obj
 0001:0005ef10       ?sf_mex_unlock_call@@YAIHQEAPEAUmxArray_tag@@HQEAPEBU1@@Z 000000018005ff10 f   ex_sdl_flexible_shaft_lstm_sfun_registry.obj
 0001:0005f130       ?sf_machine_global_initializer_called@@YAIXZ 0000000180060130 f   ex_sdl_flexible_shaft_lstm_sfun_registry.obj
 0001:0005f160       sf_machine_global_method_dispatcher 0000000180060160 f   ex_sdl_flexible_shaft_lstm_sfun_registry.obj
 0001:0005f1c0       sf_machine_global_terminator 00000001800601c0 f   ex_sdl_flexible_shaft_lstm_sfun_registry.obj
 0001:0005f1f0       ?sf_register_machine_exported_symbols@@YAXPEAUSimStruct_tag@@@Z 00000001800601f0 f   ex_sdl_flexible_shaft_lstm_sfun_registry.obj
 0001:0005f210       callCustomFcn              0000000180060210 f   ex_sdl_flexible_shaft_lstm_sfun_registry.obj
 0001:0005f220       sf_machine_global_initializer 0000000180060220 f   ex_sdl_flexible_shaft_lstm_sfun_registry.obj
 0001:0005f290       ?mdlGetSimState@@YAPEAUmxArray_tag@@PEAUSimStruct_tag@@@Z 0000000180060290 f   ex_sdl_flexible_shaft_lstm_sfun_registry.obj
 0001:0005f2d0       ?mdlSetSimState@@YAXPEAUSimStruct_tag@@PEBUmxArray_tag@@@Z 00000001800602d0 f   ex_sdl_flexible_shaft_lstm_sfun_registry.obj
 0001:0005fc20       ?ProcessMexSfunctionEveryCall@@YAIHQEAPEAUmxArray_tag@@HQEAPEBU1@@Z 0000000180060c20 f   ex_sdl_flexible_shaft_lstm_sfun_registry.obj
 0001:00060e60       __local_stdio_printf_options 0000000180061e60 f i ex_sdl_flexible_shaft_lstm_sfun_registry.obj
 0001:00060e70       _vsnprintf_l               0000000180061e70 f i ex_sdl_flexible_shaft_lstm_sfun_registry.obj
 0001:00060ef0       _vsprintf_l                0000000180061ef0 f i ex_sdl_flexible_shaft_lstm_sfun_registry.obj
 0001:00060f40       sprintf                    0000000180061f40 f i ex_sdl_flexible_shaft_lstm_sfun_registry.obj
 0001:00060fe0       ?allocate@c2_c2_flexibleShaftLoadNet0_ex_sdl_flexible_shaft_lstm0@@AEAAXXZ 0000000180061fe0 f   c2_ex_sdl_flexible_shaft_lstm.obj
 0001:00061090       ?postsetup@c2_c2_flexibleShaftLoadNet0_ex_sdl_flexible_shaft_lstm0@@AEAAXXZ 0000000180062090 f   c2_ex_sdl_flexible_shaft_lstm.obj
 0001:000610d0       ??0c2_c2_flexibleShaftLoadNet0_ex_sdl_flexible_shaft_lstm0@@QEAA@XZ 00000001800620d0 f   c2_ex_sdl_flexible_shaft_lstm.obj
 0001:00061870       ?deallocate@c2_c2_flexibleShaftLoadNet0_ex_sdl_flexible_shaft_lstm0@@AEAAXXZ 0000000180062870 f   c2_ex_sdl_flexible_shaft_lstm.obj
 0001:000618d0       ?setSize@c2_c2_flexibleShaftLoadNet0_ex_sdl_flexible_shaft_lstm0@@QEAAXPEAH@Z 00000001800628d0 f   c2_ex_sdl_flexible_shaft_lstm.obj
 0001:00061a70       ?resetState@c2_c2_flexibleShaftLoadNet0_ex_sdl_flexible_shaft_lstm0@@QEAAXXZ 0000000180062a70 f   c2_ex_sdl_flexible_shaft_lstm.obj
 0001:00061ac0       ?updateState@c2_c2_flexibleShaftLoadNet0_ex_sdl_flexible_shaft_lstm0@@QEAAXXZ 0000000180062ac0 f   c2_ex_sdl_flexible_shaft_lstm.obj
 0001:00061b10       ?setup@c2_c2_flexibleShaftLoadNet0_ex_sdl_flexible_shaft_lstm0@@QEAAXPEAUSFc2_ex_sdl_flexible_shaft_lstmInstanceStruct@@@Z 0000000180062b10 f   c2_ex_sdl_flexible_shaft_lstm.obj
 0001:00061ff0       ?predict@c2_c2_flexibleShaftLoadNet0_ex_sdl_flexible_shaft_lstm0@@QEAAXXZ 0000000180062ff0 f   c2_ex_sdl_flexible_shaft_lstm.obj
 0001:00062050       ?cleanup@c2_c2_flexibleShaftLoadNet0_ex_sdl_flexible_shaft_lstm0@@QEAAXXZ 0000000180063050 f   c2_ex_sdl_flexible_shaft_lstm.obj
 0001:00062140       ?getLayerOutput@c2_c2_flexibleShaftLoadNet0_ex_sdl_flexible_shaft_lstm0@@QEAAPEAMHH@Z 0000000180063140 f   c2_ex_sdl_flexible_shaft_lstm.obj
 0001:00062180       ?getLayerOutputSize@c2_c2_flexibleShaftLoadNet0_ex_sdl_flexible_shaft_lstm0@@QEAAHHH@Z 0000000180063180 f   c2_ex_sdl_flexible_shaft_lstm.obj
 0001:000621d0       ?getInputDataPointer@c2_c2_flexibleShaftLoadNet0_ex_sdl_flexible_shaft_lstm0@@QEAAPEAMH@Z 00000001800631d0 f   c2_ex_sdl_flexible_shaft_lstm.obj
 0001:00062200       ?getInputDataPointer@c2_c2_flexibleShaftLoadNet0_ex_sdl_flexible_shaft_lstm0@@QEAAPEAMXZ 0000000180063200 f   c2_ex_sdl_flexible_shaft_lstm.obj
 0001:00062230       ?getOutputDataPointer@c2_c2_flexibleShaftLoadNet0_ex_sdl_flexible_shaft_lstm0@@QEAAPEAMH@Z 0000000180063230 f   c2_ex_sdl_flexible_shaft_lstm.obj
 0001:00062260       ?getOutputDataPointer@c2_c2_flexibleShaftLoadNet0_ex_sdl_flexible_shaft_lstm0@@QEAAPEAMXZ 0000000180063260 f   c2_ex_sdl_flexible_shaft_lstm.obj
 0001:00062290       ?getBatchSize@c2_c2_flexibleShaftLoadNet0_ex_sdl_flexible_shaft_lstm0@@QEAAHXZ 0000000180063290 f   c2_ex_sdl_flexible_shaft_lstm.obj
 0001:000622c0       ??1c2_c2_flexibleShaftLoadNet0_ex_sdl_flexible_shaft_lstm0@@QEAA@XZ 00000001800632c0 f   c2_ex_sdl_flexible_shaft_lstm.obj
 0001:000623e0       ?sf_c2_ex_sdl_flexible_shaft_lstm_get_eml_resolved_functions_info@@YAPEBUmxArray_tag@@XZ 00000001800633e0 f   c2_ex_sdl_flexible_shaft_lstm.obj
 0001:00062570       ?sf_c2_ex_sdl_flexible_shaft_lstm_get_check_sum@@YAXQEAPEAUmxArray_tag@@@Z 0000000180063570 f   c2_ex_sdl_flexible_shaft_lstm.obj
 0001:00062640       ?c2_ex_sdl_flexible_shaft_lstm_method_dispatcher@@YAXPEAUSimStruct_tag@@HPEAX@Z 0000000180063640 f   c2_ex_sdl_flexible_shaft_lstm.obj
 0001:000635d0       ?sf_c2_ex_sdl_flexible_shaft_lstm_third_party_uses_info@@YAPEAUmxArray_tag@@XZ 00000001800645d0 f   c2_ex_sdl_flexible_shaft_lstm.obj
 0001:00063620       ?sf_c2_ex_sdl_flexible_shaft_lstm_jit_fallback_info@@YAPEAUmxArray_tag@@XZ 0000000180064620 f   c2_ex_sdl_flexible_shaft_lstm.obj
 0001:000637b0       ?sf_c2_ex_sdl_flexible_shaft_lstm_updateBuildInfo_args_info@@YAPEAUmxArray_tag@@XZ 00000001800647b0 f   c2_ex_sdl_flexible_shaft_lstm.obj
 0001:00063b60       ?sf_c2_ex_sdl_flexible_shaft_lstm_get_post_codegen_info@@YAPEBDXZ 0000000180064b60 f   c2_ex_sdl_flexible_shaft_lstm.obj
 0001:000648a0       ??$?0$$V@?$_Compressed_pair@V?$allocator@D@std@@V?$_String_val@U?$_Simple_types@D@std@@@2@$00@std@@QEAA@U_Zero_then_variadic_args_t@1@@Z 00000001800658a0 f i c2_ex_sdl_flexible_shaft_lstm.obj
 0001:000648d0       ??$?0AEBH$$Z$$V@?$pair@$$CBHH@std@@QEAA@Upiecewise_construct_t@1@V?$tuple@AEBH@1@V?$tuple@$$V@1@@Z 00000001800658d0 f i c2_ex_sdl_flexible_shaft_lstm.obj
 0001:00064940       ??$?0AEBH$0A@@?$tuple@AEBH@std@@QEAA@AEBH@Z 0000000180065940 f i c2_ex_sdl_flexible_shaft_lstm.obj
 0001:00064970       ??$?0AEBH@?$_Tuple_val@AEBH@std@@QEAA@AEBH@Z 0000000180065970 f i c2_ex_sdl_flexible_shaft_lstm.obj
 0001:000649a0       ??$?0AEBQEAU?$_Tree_node@U?$pair@$$CBHH@std@@PEAX@std@@_N$0A@@?$pair@PEAU?$_Tree_node@U?$pair@$$CBHH@std@@PEAX@std@@_N@std@@QEAA@AEBQEAU?$_Tree_node@U?$pair@$$CBHH@std@@PEAX@1@$$QEA_N@Z 00000001800659a0 f i c2_ex_sdl_flexible_shaft_lstm.obj
 0001:000649f0       ??$?0AEBUpiecewise_construct_t@std@@V?$tuple@AEBH@1@V?$tuple@$$V@1@@?$_Tree_temp_node@V?$allocator@U?$_Tree_node@U?$pair@$$CBHH@std@@PEAX@std@@@std@@@std@@QEAA@AEAV?$allocator@U?$_Tree_node@U?$pair@$$CBHH@std@@PEAX@std@@@1@PEAU?$_Tree_node@U?$pair@$$CBHH@std@@PEAX@1@AEBUpiecewise_construct_t@1@$$QEAV?$tuple@AEBH@1@$$QEAV?$tuple@$$V@1@@Z 00000001800659f0 f i c2_ex_sdl_flexible_shaft_lstm.obj
 0001:00064b00       ??$?0PEAU?$_Tree_node@U?$pair@$$CBHH@std@@PEAX@std@@_N$0A@@?$pair@PEAU?$_Tree_node@U?$pair@$$CBHH@std@@PEAX@std@@_N@std@@QEAA@$$QEAPEAU?$_Tree_node@U?$pair@$$CBHH@std@@PEAX@1@$$QEA_N@Z 0000000180065b00 f i c2_ex_sdl_flexible_shaft_lstm.obj
 0001:00064b50       ??$?0U_Exact_args_t@std@@$0A@@?$tuple@$$V@std@@QEAA@U_Exact_args_t@1@@Z 0000000180065b50 f i c2_ex_sdl_flexible_shaft_lstm.obj
 0001:00064b60       ??$?0U_Exact_args_t@std@@AEBH$$V$0A@@?$tuple@AEBH@std@@QEAA@U_Exact_args_t@1@AEBH@Z 0000000180065b60 f i c2_ex_sdl_flexible_shaft_lstm.obj
 0001:00064bb0       ??$?0V?$tuple@AEBH@std@@V?$tuple@$$V@1@$0A@$$Z$S@?$pair@$$CBHH@std@@QEAA@AEAV?$tuple@AEBH@1@AEAV?$tuple@$$V@1@U?$integer_sequence@_K$0A@@1@U?$integer_sequence@_K$S@1@@Z 0000000180065bb0 f i c2_ex_sdl_flexible_shaft_lstm.obj
 0001:00064c00       ??$_Allocate@$0BA@U_Default_allocate_traits@std@@$0A@@std@@YAPEAX_K@Z 0000000180065c00 f i c2_ex_sdl_flexible_shaft_lstm.obj
 0001:00064c40       ??$_Allocate_manually_vector_aligned@U_Default_allocate_traits@std@@@std@@YAPEAX_K@Z 0000000180065c40 f i c2_ex_sdl_flexible_shaft_lstm.obj
 0001:00064cd0       ??$_Construct_in_place@PEADAEBQEAD@std@@YAXAEAPEADAEBQEAD@Z 0000000180065cd0 f i c2_ex_sdl_flexible_shaft_lstm.obj
 0001:00064d20       ??$_Construct_in_place@PEAU?$_Tree_node@U?$pair@$$CBHH@std@@PEAX@std@@AEAPEAU12@@std@@YAXAEAPEAU?$_Tree_node@U?$pair@$$CBHH@std@@PEAX@0@0@Z 0000000180065d20 f i c2_ex_sdl_flexible_shaft_lstm.obj
 0001:00064d70       ??$_Convert_size@_K@std@@YA_K_K@Z 0000000180065d70 f i c2_ex_sdl_flexible_shaft_lstm.obj
 0001:00064d80       ??$_Deallocate@$0BA@$0A@@std@@YAXPEAX_K@Z 0000000180065d80 f i c2_ex_sdl_flexible_shaft_lstm.obj
 0001:00064dc0       ??$_Destroy_in_place@PEAD@std@@YAXAEAPEAD@Z 0000000180065dc0 f i c2_ex_sdl_flexible_shaft_lstm.obj
 0001:00064dd0       ??$_Destroy_in_place@PEAU?$_Tree_node@U?$pair@$$CBHH@std@@PEAX@std@@@std@@YAXAEAPEAU?$_Tree_node@U?$pair@$$CBHH@std@@PEAX@0@@Z 0000000180065dd0 f i c2_ex_sdl_flexible_shaft_lstm.obj
 0001:00064de0       ??$_Find@H@?$_Tree@V?$_Tmap_traits@HHU?$less@H@std@@V?$allocator@U?$pair@$$CBHH@std@@@2@$0A@@std@@@std@@AEBAPEAU?$_Tree_node@U?$pair@$$CBHH@std@@PEAX@1@AEBH@Z 0000000180065de0 f i c2_ex_sdl_flexible_shaft_lstm.obj
 0001:00064e40       ??$_Find_lower_bound@H@?$_Tree@V?$_Tmap_traits@HHU?$less@H@std@@V?$allocator@U?$pair@$$CBHH@std@@@2@$0A@@std@@@std@@IEBA?AU?$_Tree_find_result@PEAU?$_Tree_node@U?$pair@$$CBHH@std@@PEAX@std@@@1@AEBH@Z 0000000180065e40 f i c2_ex_sdl_flexible_shaft_lstm.obj
 0001:00064f50       ??$_Get_size_of_n@$00@std@@YA_K_K@Z 0000000180065f50 f i c2_ex_sdl_flexible_shaft_lstm.obj
 0001:00064f70       ??$_Get_size_of_n@$0CI@@std@@YA_K_K@Z 0000000180065f70 f i c2_ex_sdl_flexible_shaft_lstm.obj
 0001:00064fb0       ??$_Kfn@$$CBHH@?$_Tmap_traits@HHU?$less@H@std@@V?$allocator@U?$pair@$$CBHH@std@@@2@$0A@@std@@SAAEBHAEBU?$pair@$$CBHH@1@@Z 0000000180065fb0 f i c2_ex_sdl_flexible_shaft_lstm.obj
 0001:00064fc0       ??$_Lower_bound_duplicate@H@?$_Tree@V?$_Tmap_traits@HHU?$less@H@std@@V?$allocator@U?$pair@$$CBHH@std@@@2@$0A@@std@@@std@@IEBA_NQEAU?$_Tree_node@U?$pair@$$CBHH@std@@PEAX@1@AEBH@Z 0000000180065fc0 f i c2_ex_sdl_flexible_shaft_lstm.obj
 0001:00065040       ??$_Reallocate_for@V<lambda_66f57f934f28d61049862f64df852ff0>@@PEBD@?$basic_string@DU?$char_traits@D@std@@V?$allocator@D@2@@std@@AEAAAEAV01@_KV<lambda_66f57f934f28d61049862f64df852ff0>@@PEBD@Z 0000000180066040 f i c2_ex_sdl_flexible_shaft_lstm.obj
 0001:00065160       ??$_Try_emplace@AEBH$$V@?$map@HHU?$less@H@std@@V?$allocator@U?$pair@$$CBHH@std@@@2@@std@@AEAA?AU?$pair@PEAU?$_Tree_node@U?$pair@$$CBHH@std@@PEAX@std@@_N@1@AEBH@Z 0000000180066160 f i c2_ex_sdl_flexible_shaft_lstm.obj
 0001:00065300       ??$_Tuple_get@$0A@AEBH@std@@YA$$QEA_P$$QEAV?$tuple@AEBH@0@@Z 0000000180066300 f i c2_ex_sdl_flexible_shaft_lstm.obj
 0001:00065310       ??$_Unfancy@D@std@@YAPEADPEAD@Z 0000000180066310 f i c2_ex_sdl_flexible_shaft_lstm.obj
 0001:00065320       ??$_Voidify_iter@PEAPEAD@std@@YAPEAXPEAPEAD@Z 0000000180066320 f i c2_ex_sdl_flexible_shaft_lstm.obj
 0001:00065330       ??$_Voidify_iter@PEAPEAU?$_Tree_node@U?$pair@$$CBHH@std@@PEAX@std@@@std@@YAPEAXPEAPEAU?$_Tree_node@U?$pair@$$CBHH@std@@PEAX@0@@Z 0000000180066330 f i c2_ex_sdl_flexible_shaft_lstm.obj
 0001:00065340       ??$_Voidify_iter@PEAU?$pair@$$CBHH@std@@@std@@YAPEAXPEAU?$pair@$$CBHH@0@@Z 0000000180066340 f i c2_ex_sdl_flexible_shaft_lstm.obj
 0001:00065350       ??$addressof@$$CBV?$_Tree_val@U?$_Tree_simple_types@U?$pair@$$CBHH@std@@@std@@@std@@@std@@YAPEBV?$_Tree_val@U?$_Tree_simple_types@U?$pair@$$CBHH@std@@@std@@@0@AEBV10@@Z 0000000180066350 f i c2_ex_sdl_flexible_shaft_lstm.obj
 0001:00065360       ??$addressof@$$CBV?$_Tree_val@U?$_Tree_simple_types@U?$pair@$$CBHPEAVMWTensorBase@@@std@@@std@@@std@@@std@@YAPEBV?$_Tree_val@U?$_Tree_simple_types@U?$pair@$$CBHPEAVMWTensorBase@@@std@@@std@@@0@AEBV10@@Z 0000000180066360 f i c2_ex_sdl_flexible_shaft_lstm.obj
 0001:00065370       ??$addressof@PEAD@std@@YAPEAPEADAEAPEAD@Z 0000000180066370 f i c2_ex_sdl_flexible_shaft_lstm.obj
 0001:00065380       ??$addressof@PEAU?$_Tree_node@U?$pair@$$CBHH@std@@PEAX@std@@@std@@YAPEAPEAU?$_Tree_node@U?$pair@$$CBHH@std@@PEAX@0@AEAPEAU10@@Z 0000000180066380 f i c2_ex_sdl_flexible_shaft_lstm.obj
 0001:00065390       ??$addressof@U?$pair@$$CBHH@std@@@std@@YAPEAU?$pair@$$CBHH@0@AEAU10@@Z 0000000180066390 f i c2_ex_sdl_flexible_shaft_lstm.obj
 0001:000653a0       ??$addressof@V?$_Tree_val@U?$_Tree_simple_types@U?$pair@$$CBHH@std@@@std@@@std@@@std@@YAPEAV?$_Tree_val@U?$_Tree_simple_types@U?$pair@$$CBHH@std@@@std@@@0@AEAV10@@Z 00000001800663a0 f i c2_ex_sdl_flexible_shaft_lstm.obj
 0001:000653b0       ??$construct@U?$pair@$$CBHH@std@@AEBUpiecewise_construct_t@2@V?$tuple@AEBH@2@V?$tuple@$$V@2@@?$_Default_allocator_traits@V?$allocator@U?$_Tree_node@U?$pair@$$CBHH@std@@PEAX@std@@@std@@@std@@SAXAEAV?$allocator@U?$_Tree_node@U?$pair@$$CBHH@std@@PEAX@std@@@1@QEAU?$pair@$$CBHH@1@AEBUpiecewise_construct_t@1@$$QEAV?$tuple@AEBH@1@$$QEAV?$tuple@$$V@1@@Z 00000001800663b0 f i c2_ex_sdl_flexible_shaft_lstm.obj
 0001:00065470       ??$cudaMalloc@$$BY01M@@YA?AW4cudaError@@PEAPEAY01M_K@Z 0000000180066470 f i c2_ex_sdl_flexible_shaft_lstm.obj
 0001:000654a0       ??$cudaMalloc@$$BY02M@@YA?AW4cudaError@@PEAPEAY02M_K@Z 00000001800664a0 f i c2_ex_sdl_flexible_shaft_lstm.obj
 0001:000654d0       ??$cudaMalloc@$$BY02N@@YA?AW4cudaError@@PEAPEAY02N_K@Z 00000001800664d0 f i c2_ex_sdl_flexible_shaft_lstm.obj
 0001:00065500       ??$destroy@U?$pair@$$CBHH@std@@@?$_Default_allocator_traits@V?$allocator@U?$_Tree_node@U?$pair@$$CBHH@std@@PEAX@std@@@std@@@std@@SAXAEAV?$allocator@U?$_Tree_node@U?$pair@$$CBHH@std@@PEAX@std@@@1@QEAU?$pair@$$CBHH@1@@Z 0000000180066500 f i c2_ex_sdl_flexible_shaft_lstm.obj
 0001:00065510       ??$exchange@PEAU?$_Tree_node@U?$pair@$$CBHH@std@@PEAX@std@@$$T@std@@YAPEAU?$_Tree_node@U?$pair@$$CBHH@std@@PEAX@0@AEAPEAU10@$$QEA$$T@Z 0000000180066510 f i c2_ex_sdl_flexible_shaft_lstm.obj
 0001:00065550       ??$forward@AEAPEAU?$_Tree_node@U?$pair@$$CBHH@std@@PEAX@std@@@std@@YAAEAPEAU?$_Tree_node@U?$pair@$$CBHH@std@@PEAX@0@AEAPEAU10@@Z 0000000180066550 f i c2_ex_sdl_flexible_shaft_lstm.obj
 0001:00065560       ??$forward@AEBH@std@@YAAEBHAEBH@Z 0000000180066560 f i c2_ex_sdl_flexible_shaft_lstm.obj
 0001:00065570       ??$forward@AEBQEAD@std@@YAAEBQEADAEBQEAD@Z 0000000180066570 f i c2_ex_sdl_flexible_shaft_lstm.obj
 0001:00065580       ??$forward@AEBQEAU?$_Tree_node@U?$pair@$$CBHH@std@@PEAX@std@@@std@@YAAEBQEAU?$_Tree_node@U?$pair@$$CBHH@std@@PEAX@0@AEBQEAU10@@Z 0000000180066580 f i c2_ex_sdl_flexible_shaft_lstm.obj
 0001:00065590       ??$forward@AEBUpiecewise_construct_t@std@@@std@@YAAEBUpiecewise_construct_t@0@AEBU10@@Z 0000000180066590 f i c2_ex_sdl_flexible_shaft_lstm.obj
 0001:000655a0       ??$forward@PEAU?$_Tree_node@U?$pair@$$CBHH@std@@PEAX@std@@@std@@YA$$QEAPEAU?$_Tree_node@U?$pair@$$CBHH@std@@PEAX@0@AEAPEAU10@@Z 00000001800665a0 f i c2_ex_sdl_flexible_shaft_lstm.obj
 0001:000655b0       ??$forward@V?$tuple@$$V@std@@@std@@YA$$QEAV?$tuple@$$V@0@AEAV10@@Z 00000001800665b0 f i c2_ex_sdl_flexible_shaft_lstm.obj
 0001:000655c0       ??$forward@V?$tuple@AEBH@std@@@std@@YA$$QEAV?$tuple@AEBH@0@AEAV10@@Z 00000001800665c0 f i c2_ex_sdl_flexible_shaft_lstm.obj
 0001:000655d0       ??$forward@_N@std@@YA$$QEA_NAEA_N@Z 00000001800665d0 f i c2_ex_sdl_flexible_shaft_lstm.obj
 0001:000655e0       ??$forward_as_tuple@$$V@std@@YA?AV?$tuple@$$V@0@XZ 00000001800665e0 f i c2_ex_sdl_flexible_shaft_lstm.obj
 0001:000655f0       ??$forward_as_tuple@AEBH@std@@YA?AV?$tuple@AEBH@0@AEBH@Z 00000001800665f0 f i c2_ex_sdl_flexible_shaft_lstm.obj
 0001:00065620       ??$is_float@M@@YA_NXZ      0000000180066620 f i c2_ex_sdl_flexible_shaft_lstm.obj
 0001:00065630       ??$is_int8@M@@YA_NXZ       0000000180066630 f i c2_ex_sdl_flexible_shaft_lstm.obj
 0001:00065640       ??$max@_K@std@@YAAEB_KAEB_K0@Z 0000000180066640 f i c2_ex_sdl_flexible_shaft_lstm.obj
 0001:00065690       ??$min@_K@std@@YAAEB_KAEB_K0@Z 0000000180066690 f i c2_ex_sdl_flexible_shaft_lstm.obj
 0001:000656e0       ??$move@AEAV?$tuple@AEBH@std@@@std@@YA$$QEAV?$tuple@AEBH@0@AEAV10@@Z 00000001800666e0 f i c2_ex_sdl_flexible_shaft_lstm.obj
 0001:000656f0       ??0?$MWTensor@M@@QEAA@XZ   00000001800666f0 f i c2_ex_sdl_flexible_shaft_lstm.obj
 0001:00065730       ??0?$_Alloc_construct_ptr@V?$allocator@U?$_Tree_node@U?$pair@$$CBHH@std@@PEAX@std@@@std@@@std@@QEAA@AEAV?$allocator@U?$_Tree_node@U?$pair@$$CBHH@std@@PEAX@std@@@1@@Z 0000000180066730 f i c2_ex_sdl_flexible_shaft_lstm.obj
 0001:00065760       ??0?$_String_val@U?$_Simple_types@D@std@@@std@@QEAA@XZ 0000000180066760 f i c2_ex_sdl_flexible_shaft_lstm.obj
 0001:000657a0       ??0?$_Tree_const_iterator@V?$_Tree_val@U?$_Tree_simple_types@U?$pair@$$CBHH@std@@@std@@@std@@@std@@QEAA@PEAU?$_Tree_node@U?$pair@$$CBHH@std@@PEAX@1@PEBV?$_Tree_val@U?$_Tree_simple_types@U?$pair@$$CBHH@std@@@std@@@1@@Z 00000001800667a0 f i c2_ex_sdl_flexible_shaft_lstm.obj
 0001:000657e0       ??0?$_Tree_iterator@V?$_Tree_val@U?$_Tree_simple_types@U?$pair@$$CBHH@std@@@std@@@std@@@std@@QEAA@PEAU?$_Tree_node@U?$pair@$$CBHH@std@@PEAX@1@PEBV?$_Tree_val@U?$_Tree_simple_types@U?$pair@$$CBHH@std@@@std@@@1@@Z 00000001800667e0 f i c2_ex_sdl_flexible_shaft_lstm.obj
 0001:00065820       ??0?$_Tree_temp_node_alloc@V?$allocator@U?$_Tree_node@U?$pair@$$CBHH@std@@PEAX@std@@@std@@@std@@QEAA@AEAV?$allocator@U?$_Tree_node@U?$pair@$$CBHH@std@@PEAX@std@@@1@@Z 0000000180066820 f i c2_ex_sdl_flexible_shaft_lstm.obj
 0001:00065860       ??0?$_Tree_unchecked_const_iterator@V?$_Tree_val@U?$_Tree_simple_types@U?$pair@$$CBHH@std@@@std@@@std@@U_Iterator_base0@2@@std@@QEAA@PEAU?$_Tree_node@U?$pair@$$CBHH@std@@PEAX@1@PEBV?$_Tree_val@U?$_Tree_simple_types@U?$pair@$$CBHH@std@@@std@@@1@@Z 0000000180066860 f i c2_ex_sdl_flexible_shaft_lstm.obj
 0001:000658a0       ??0?$allocator@D@std@@QEAA@XZ 00000001800668a0 f i c2_ex_sdl_flexible_shaft_lstm.obj
 0001:000658b0       ??0?$basic_string@DU?$char_traits@D@std@@V?$allocator@D@2@@std@@QEAA@QEBD@Z 00000001800668b0 f i c2_ex_sdl_flexible_shaft_lstm.obj
 0001:00065930       ??0?$basic_string@DU?$char_traits@D@std@@V?$allocator@D@2@@std@@QEAA@XZ 0000000180066930 f i c2_ex_sdl_flexible_shaft_lstm.obj
 0001:00065980       ??0?$tuple@$$V@std@@QEAA@AEBV01@@Z 0000000180066980 f i c2_ex_sdl_flexible_shaft_lstm.obj
 0001:00065990       ??0?$tuple@AEBH@std@@QEAA@$$QEAV01@@Z 0000000180066990 f i c2_ex_sdl_flexible_shaft_lstm.obj
 0001:000659d0       ??0MWFCLayer@@QEAA@XZ      00000001800669d0 f i c2_ex_sdl_flexible_shaft_lstm.obj
 0001:00065a00       ??0MWOutputLayer@@QEAA@XZ  0000000180066a00 f i c2_ex_sdl_flexible_shaft_lstm.obj
 0001:00065a30       ??0MWRNNLayer@@QEAA@XZ     0000000180066a30 f i c2_ex_sdl_flexible_shaft_lstm.obj
 0001:00065a60       ??0MWReLULayer@@QEAA@XZ    0000000180066a60 f i c2_ex_sdl_flexible_shaft_lstm.obj
 0001:00065a90       ??0MWSequenceInputLayer@@QEAA@XZ 0000000180066a90 f i c2_ex_sdl_flexible_shaft_lstm.obj
 0001:00065ac0       ??0MWTensorBase@@QEAA@XZ   0000000180066ac0 f i c2_ex_sdl_flexible_shaft_lstm.obj
 0001:00065c20       ??0SFc2_ex_sdl_flexible_shaft_lstmInstanceStruct@@QEAA@XZ 0000000180066c20 f i c2_ex_sdl_flexible_shaft_lstm.obj
 0001:00065c50       ??0_Bxty@?$_String_val@U?$_Simple_types@D@std@@@std@@QEAA@XZ 0000000180066c50 f i c2_ex_sdl_flexible_shaft_lstm.obj
 0001:00065c70       ??0_Fake_proxy_ptr_impl@std@@QEAA@AEBU_Fake_allocator@1@AEBU_Container_base0@1@@Z 0000000180066c70 f i c2_ex_sdl_flexible_shaft_lstm.obj
 0001:00065c90       ??0bad_alloc@std@@AEAA@QEBD@Z 0000000180066c90 f i c2_ex_sdl_flexible_shaft_lstm.obj
 0001:00065cd0       ??0bad_alloc@std@@QEAA@AEBV01@@Z 0000000180066cd0 f i c2_ex_sdl_flexible_shaft_lstm.obj
 0001:00065d10       ??0bad_array_new_length@std@@QEAA@AEBV01@@Z 0000000180066d10 f i c2_ex_sdl_flexible_shaft_lstm.obj
 0001:00065d50       ??0bad_array_new_length@std@@QEAA@XZ 0000000180066d50 f i c2_ex_sdl_flexible_shaft_lstm.obj
 0001:00065d90       ??0dim3@@QEAA@III@Z        0000000180066d90 f i c2_ex_sdl_flexible_shaft_lstm.obj
 0001:00065dd0       ??0exception@std@@QEAA@AEBV01@@Z 0000000180066dd0 f i c2_ex_sdl_flexible_shaft_lstm.obj
 0001:00065e30       ??0exception@std@@QEAA@QEBDH@Z 0000000180066e30 f i c2_ex_sdl_flexible_shaft_lstm.obj
 0001:00065e80       ??1?$MWTensor@M@@UEAA@XZ   0000000180066e80 f i c2_ex_sdl_flexible_shaft_lstm.obj
 0001:00065eb0       ??1?$_Alloc_construct_ptr@V?$allocator@U?$_Tree_node@U?$pair@$$CBHH@std@@PEAX@std@@@std@@@std@@QEAA@XZ 0000000180066eb0 f i c2_ex_sdl_flexible_shaft_lstm.obj
 0001:00065ef0       ??1?$_Compressed_pair@V?$allocator@D@std@@V?$_String_val@U?$_Simple_types@D@std@@@2@$00@std@@QEAA@XZ 0000000180066ef0 f i c2_ex_sdl_flexible_shaft_lstm.obj
 0001:00065f10       ??1?$_String_val@U?$_Simple_types@D@std@@@std@@QEAA@XZ 0000000180066f10 f i c2_ex_sdl_flexible_shaft_lstm.obj
 0001:00065f30       ??1?$_Tree_temp_node@V?$allocator@U?$_Tree_node@U?$pair@$$CBHH@std@@PEAX@std@@@std@@@std@@QEAA@XZ 0000000180066f30 f i c2_ex_sdl_flexible_shaft_lstm.obj
 0001:00065fc0       ??1?$_Tree_temp_node_alloc@V?$allocator@U?$_Tree_node@U?$pair@$$CBHH@std@@PEAX@std@@@std@@@std@@QEAA@XZ 0000000180066fc0 f i c2_ex_sdl_flexible_shaft_lstm.obj
 0001:00065fe0       ??1?$basic_string@DU?$char_traits@D@std@@V?$allocator@D@2@@std@@QEAA@XZ 0000000180066fe0 f i c2_ex_sdl_flexible_shaft_lstm.obj
 0001:00066010       ??1MWFCLayer@@UEAA@XZ      0000000180067010 f i c2_ex_sdl_flexible_shaft_lstm.obj
 0001:00066040       ??1MWOutputLayer@@UEAA@XZ  0000000180067040 f i c2_ex_sdl_flexible_shaft_lstm.obj
 0001:00066070       ??1MWRNNLayer@@UEAA@XZ     0000000180067070 f i c2_ex_sdl_flexible_shaft_lstm.obj
 0001:000660a0       ??1MWReLULayer@@UEAA@XZ    00000001800670a0 f i c2_ex_sdl_flexible_shaft_lstm.obj
 0001:000660d0       ??1MWSequenceInputLayer@@UEAA@XZ 00000001800670d0 f i c2_ex_sdl_flexible_shaft_lstm.obj
 0001:00066100       ??1MWTensorBase@@UEAA@XZ   0000000180067100 f i c2_ex_sdl_flexible_shaft_lstm.obj
 0001:00066130       ??1SFc2_ex_sdl_flexible_shaft_lstmInstanceStruct@@QEAA@XZ 0000000180067130 f i c2_ex_sdl_flexible_shaft_lstm.obj
 0001:00066160       ??1_Bxty@?$_String_val@U?$_Simple_types@D@std@@@std@@QEAA@XZ 0000000180067160 f i c2_ex_sdl_flexible_shaft_lstm.obj
 0001:00066170       ??1bad_alloc@std@@UEAA@XZ  0000000180067170 f i c2_ex_sdl_flexible_shaft_lstm.obj
 0001:00066190       ??1bad_array_new_length@std@@UEAA@XZ 0000000180067190 f i c2_ex_sdl_flexible_shaft_lstm.obj
 0001:000661b0       ??1exception@std@@UEAA@XZ  00000001800671b0 f i c2_ex_sdl_flexible_shaft_lstm.obj
 0001:000661e0       ??2@YAPEAX_KPEAX@Z         00000001800671e0 f i c2_ex_sdl_flexible_shaft_lstm.obj
 0001:000661f0       ??4?$basic_string@DU?$char_traits@D@std@@V?$allocator@D@2@@std@@QEAAAEAV01@QEBD@Z 00000001800671f0 f i c2_ex_sdl_flexible_shaft_lstm.obj
 0001:00066220       ??8?$_Tree_const_iterator@V?$_Tree_val@U?$_Tree_simple_types@U?$pair@$$CBHH@std@@@std@@@std@@@std@@QEBA_NAEBV01@@Z 0000000180067220 f i c2_ex_sdl_flexible_shaft_lstm.obj
 0001:00066260       ??A?$map@HHU?$less@H@std@@V?$allocator@U?$pair@$$CBHH@std@@@2@@std@@QEAAAEAHAEBH@Z 0000000180067260 f i c2_ex_sdl_flexible_shaft_lstm.obj
 0001:00066290       ??R<lambda_66f57f934f28d61049862f64df852ff0>@@QEBA@QEAD_KQEBD@Z 0000000180067290 f i c2_ex_sdl_flexible_shaft_lstm.obj
 0001:000662f0       ??R?$less@H@std@@QEBA_NAEBH0@Z 00000001800672f0 f i c2_ex_sdl_flexible_shaft_lstm.obj
 0001:00066330       ??_E?$MWTensor@M@@UEAAPEAXI@Z 0000000180067330 f i c2_ex_sdl_flexible_shaft_lstm.obj
 0001:00066330       ??_G?$MWTensor@M@@UEAAPEAXI@Z 0000000180067330 f i c2_ex_sdl_flexible_shaft_lstm.obj
 0001:00066370       ??_GMWFCLayer@@UEAAPEAXI@Z 0000000180067370 f i c2_ex_sdl_flexible_shaft_lstm.obj
 0001:00066370       ??_EMWFCLayer@@UEAAPEAXI@Z 0000000180067370 f i c2_ex_sdl_flexible_shaft_lstm.obj
 0001:000663b0       ??_EMWOutputLayer@@UEAAPEAXI@Z 00000001800673b0 f i c2_ex_sdl_flexible_shaft_lstm.obj
 0001:000663b0       ??_GMWOutputLayer@@UEAAPEAXI@Z 00000001800673b0 f i c2_ex_sdl_flexible_shaft_lstm.obj
 0001:000663f0       ??_GMWRNNLayer@@UEAAPEAXI@Z 00000001800673f0 f i c2_ex_sdl_flexible_shaft_lstm.obj
 0001:000663f0       ??_EMWRNNLayer@@UEAAPEAXI@Z 00000001800673f0 f i c2_ex_sdl_flexible_shaft_lstm.obj
 0001:00066430       ??_GMWReLULayer@@UEAAPEAXI@Z 0000000180067430 f i c2_ex_sdl_flexible_shaft_lstm.obj
 0001:00066430       ??_EMWReLULayer@@UEAAPEAXI@Z 0000000180067430 f i c2_ex_sdl_flexible_shaft_lstm.obj
 0001:00066470       ??_GMWSequenceInputLayer@@UEAAPEAXI@Z 0000000180067470 f i c2_ex_sdl_flexible_shaft_lstm.obj
 0001:00066470       ??_EMWSequenceInputLayer@@UEAAPEAXI@Z 0000000180067470 f i c2_ex_sdl_flexible_shaft_lstm.obj
 0001:000664b0       ??_EMWTensorBase@@UEAAPEAXI@Z 00000001800674b0 f i c2_ex_sdl_flexible_shaft_lstm.obj
 0001:000664b0       ??_GMWTensorBase@@UEAAPEAXI@Z 00000001800674b0 f i c2_ex_sdl_flexible_shaft_lstm.obj
 0001:000664f0       ??_GSFc2_ex_sdl_flexible_shaft_lstmInstanceStruct@@QEAAPEAXI@Z 00000001800674f0 f i c2_ex_sdl_flexible_shaft_lstm.obj
 0001:00066530       ??_Gbad_alloc@std@@UEAAPEAXI@Z 0000000180067530 f i c2_ex_sdl_flexible_shaft_lstm.obj
 0001:00066530       ??_Ebad_alloc@std@@UEAAPEAXI@Z 0000000180067530 f i c2_ex_sdl_flexible_shaft_lstm.obj
 0001:00066570       ??_Ebad_array_new_length@std@@UEAAPEAXI@Z 0000000180067570 f i c2_ex_sdl_flexible_shaft_lstm.obj
 0001:00066570       ??_Gbad_array_new_length@std@@UEAAPEAXI@Z 0000000180067570 f i c2_ex_sdl_flexible_shaft_lstm.obj
 0001:000665b0       ??_Eexception@std@@UEAAPEAXI@Z 00000001800675b0 f i c2_ex_sdl_flexible_shaft_lstm.obj
 0001:000665b0       ??_Gexception@std@@UEAAPEAXI@Z 00000001800675b0 f i c2_ex_sdl_flexible_shaft_lstm.obj
 0001:000665f0       ?_Adjust_manually_vector_aligned@std@@YAXAEAPEAXAEA_K@Z 00000001800675f0 f i c2_ex_sdl_flexible_shaft_lstm.obj
 0001:00066690       ?_Adopt@_Iterator_base0@std@@QEAAXPEBX@Z 0000000180067690 f i c2_ex_sdl_flexible_shaft_lstm.obj
 0001:000666a0       ?_Alloc_proxy@_Container_base0@std@@QEAAXAEBU_Fake_allocator@2@@Z 00000001800676a0 f i c2_ex_sdl_flexible_shaft_lstm.obj
 0001:000666b0       ?_Allocate@?$_Alloc_construct_ptr@V?$allocator@U?$_Tree_node@U?$pair@$$CBHH@std@@PEAX@std@@@std@@@std@@QEAAXXZ 00000001800676b0 f i c2_ex_sdl_flexible_shaft_lstm.obj
 0001:000666f0       ?_Allocate@_Default_allocate_traits@std@@SAPEAX_K@Z 00000001800676f0 f i c2_ex_sdl_flexible_shaft_lstm.obj
 0001:00066710       ?_Calculate_growth@?$basic_string@DU?$char_traits@D@std@@V?$allocator@D@2@@std@@AEBA_K_K@Z 0000000180067710 f i c2_ex_sdl_flexible_shaft_lstm.obj
 0001:00066750       ?_Calculate_growth@?$basic_string@DU?$char_traits@D@std@@V?$allocator@D@2@@std@@CA_K_K00@Z 0000000180067750 f i c2_ex_sdl_flexible_shaft_lstm.obj
 0001:000667f0       ?_Check_grow_by_1@?$_Tree@V?$_Tmap_traits@HHU?$less@H@std@@V?$allocator@U?$pair@$$CBHH@std@@@2@$0A@@std@@@std@@IEAAXXZ 00000001800677f0 f i c2_ex_sdl_flexible_shaft_lstm.obj
 0001:00066830       ?_Get_first@?$_Compressed_pair@U?$less@H@std@@V?$_Compressed_pair@V?$allocator@U?$_Tree_node@U?$pair@$$CBHH@std@@PEAX@std@@@std@@V?$_Tree_val@U?$_Tree_simple_types@U?$pair@$$CBHH@std@@@std@@@2@$00@2@$00@std@@QEBAAEBU?$less@H@2@XZ 0000000180067830 f i c2_ex_sdl_flexible_shaft_lstm.obj
 0001:00066840       ?_Get_first@?$_Compressed_pair@V?$allocator@D@std@@V?$_String_val@U?$_Simple_types@D@std@@@2@$00@std@@QEAAAEAV?$allocator@D@2@XZ 0000000180067840 f i c2_ex_sdl_flexible_shaft_lstm.obj
 0001:00066850       ?_Get_first@?$_Compressed_pair@V?$allocator@D@std@@V?$_String_val@U?$_Simple_types@D@std@@@2@$00@std@@QEBAAEBV?$allocator@D@2@XZ 0000000180067850 f i c2_ex_sdl_flexible_shaft_lstm.obj
 0001:00066860       ?_Get_first@?$_Compressed_pair@V?$allocator@U?$_Tree_node@U?$pair@$$CBHH@std@@PEAX@std@@@std@@V?$_Tree_val@U?$_Tree_simple_types@U?$pair@$$CBHH@std@@@std@@@2@$00@std@@QEAAAEAV?$allocator@U?$_Tree_node@U?$pair@$$CBHH@std@@PEAX@std@@@2@XZ 0000000180067860 f i c2_ex_sdl_flexible_shaft_lstm.obj
 0001:00066870       ?_Get_first@?$_Compressed_pair@V?$allocator@U?$_Tree_node@U?$pair@$$CBHH@std@@PEAX@std@@@std@@V?$_Tree_val@U?$_Tree_simple_types@U?$pair@$$CBHH@std@@@std@@@2@$00@std@@QEBAAEBV?$allocator@U?$_Tree_node@U?$pair@$$CBHH@std@@PEAX@std@@@2@XZ 0000000180067870 f i c2_ex_sdl_flexible_shaft_lstm.obj
 0001:00066880       ?_Get_scary@?$_Tree@V?$_Tmap_traits@HHU?$less@H@std@@V?$allocator@U?$pair@$$CBHH@std@@@2@$0A@@std@@@std@@IEAAPEAV?$_Tree_val@U?$_Tree_simple_types@U?$pair@$$CBHH@std@@@std@@@2@XZ 0000000180067880 f i c2_ex_sdl_flexible_shaft_lstm.obj
 0001:000668a0       ?_Get_scary@?$_Tree@V?$_Tmap_traits@HHU?$less@H@std@@V?$allocator@U?$pair@$$CBHH@std@@@2@$0A@@std@@@std@@IEBAPEBV?$_Tree_val@U?$_Tree_simple_types@U?$pair@$$CBHH@std@@@std@@@2@XZ 00000001800678a0 f i c2_ex_sdl_flexible_shaft_lstm.obj
 0001:000668c0       ?_Get_scary@?$_Tree@V?$_Tmap_traits@HPEAVMWTensorBase@@U?$less@H@std@@V?$allocator@U?$pair@$$CBHPEAVMWTensorBase@@@std@@@3@$0A@@std@@@std@@IEBAPEBV?$_Tree_val@U?$_Tree_simple_types@U?$pair@$$CBHPEAVMWTensorBase@@@std@@@std@@@2@XZ 00000001800678c0 f i c2_ex_sdl_flexible_shaft_lstm.obj
 0001:000668e0       ?_Getal@?$_Tree@V?$_Tmap_traits@HHU?$less@H@std@@V?$allocator@U?$pair@$$CBHH@std@@@2@$0A@@std@@@std@@IEAAAEAV?$allocator@U?$_Tree_node@U?$pair@$$CBHH@std@@PEAX@std@@@2@XZ 00000001800678e0 f i c2_ex_sdl_flexible_shaft_lstm.obj
 0001:00066900       ?_Getal@?$_Tree@V?$_Tmap_traits@HHU?$less@H@std@@V?$allocator@U?$pair@$$CBHH@std@@@2@$0A@@std@@@std@@IEBAAEBV?$allocator@U?$_Tree_node@U?$pair@$$CBHH@std@@PEAX@std@@@2@XZ 0000000180067900 f i c2_ex_sdl_flexible_shaft_lstm.obj
 0001:00066920       ?_Getal@?$basic_string@DU?$char_traits@D@std@@V?$allocator@D@2@@std@@AEAAAEAV?$allocator@D@2@XZ 0000000180067920 f i c2_ex_sdl_flexible_shaft_lstm.obj
 0001:00066940       ?_Getal@?$basic_string@DU?$char_traits@D@std@@V?$allocator@D@2@@std@@AEBAAEBV?$allocator@D@2@XZ 0000000180067940 f i c2_ex_sdl_flexible_shaft_lstm.obj
 0001:00066960       ?_Getcomp@?$_Tree@V?$_Tmap_traits@HHU?$less@H@std@@V?$allocator@U?$pair@$$CBHH@std@@@2@$0A@@std@@@std@@IEBAAEBU?$less@H@2@XZ 0000000180067960 f i c2_ex_sdl_flexible_shaft_lstm.obj
 0001:00066980       ?_Insert_node@?$_Tree_val@U?$_Tree_simple_types@U?$pair@$$CBHH@std@@@std@@@std@@QEAAPEAU?$_Tree_node@U?$pair@$$CBHH@std@@PEAX@2@U?$_Tree_id@PEAU?$_Tree_node@U?$pair@$$CBHH@std@@PEAX@std@@@2@QEAU32@@Z 0000000180067980 f i c2_ex_sdl_flexible_shaft_lstm.obj
 0001:00066c70       ?_Large_string_engaged@?$_String_val@U?$_Simple_types@D@std@@@std@@QEBA_NXZ 0000000180067c70 f i c2_ex_sdl_flexible_shaft_lstm.obj
 0001:00066ca0       ?_Lrotate@?$_Tree_val@U?$_Tree_simple_types@U?$pair@$$CBHH@std@@@std@@@std@@QEAAXPEAU?$_Tree_node@U?$pair@$$CBHH@std@@PEAX@2@@Z 0000000180067ca0 f i c2_ex_sdl_flexible_shaft_lstm.obj
 0001:00066d80       ?_Myptr@?$_String_val@U?$_Simple_types@D@std@@@std@@QEAAPEADXZ 0000000180067d80 f i c2_ex_sdl_flexible_shaft_lstm.obj
 0001:00066dc0       ?_Orphan_all@_Container_base0@std@@QEAAXXZ 0000000180067dc0 f i c2_ex_sdl_flexible_shaft_lstm.obj
 0001:00066dd0       ?_Release@?$_Alloc_construct_ptr@V?$allocator@U?$_Tree_node@U?$pair@$$CBHH@std@@PEAX@std@@@std@@@std@@QEAAPEAU?$_Tree_node@U?$pair@$$CBHH@std@@PEAX@2@XZ 0000000180067dd0 f i c2_ex_sdl_flexible_shaft_lstm.obj
 0001:00066e00       ?_Release@_Fake_proxy_ptr_impl@std@@QEAAXXZ 0000000180067e00 f i c2_ex_sdl_flexible_shaft_lstm.obj
 0001:00066e10       ?_Rrotate@?$_Tree_val@U?$_Tree_simple_types@U?$pair@$$CBHH@std@@@std@@@std@@QEAAXPEAU?$_Tree_node@U?$pair@$$CBHH@std@@PEAX@2@@Z 0000000180067e10 f i c2_ex_sdl_flexible_shaft_lstm.obj
 0001:00066ef0       ?_Throw_bad_array_new_length@std@@YAXXZ 0000000180067ef0 f i c2_ex_sdl_flexible_shaft_lstm.obj
 0001:00066f20       ?_Throw_tree_length_error@std@@YAXXZ 0000000180067f20 f i c2_ex_sdl_flexible_shaft_lstm.obj
 0001:00066f40       ?_Tidy_deallocate@?$basic_string@DU?$char_traits@D@std@@V?$allocator@D@2@@std@@AEAAXXZ 0000000180067f40 f i c2_ex_sdl_flexible_shaft_lstm.obj
 0001:00067000       ?_Tidy_init@?$basic_string@DU?$char_traits@D@std@@V?$allocator@D@2@@std@@AEAAXXZ 0000000180068000 f i c2_ex_sdl_flexible_shaft_lstm.obj
 0001:00067060       ?_Xlen_string@std@@YAXXZ   0000000180068060 f i c2_ex_sdl_flexible_shaft_lstm.obj
 0001:00067080       ?allocate@?$allocator@D@std@@QEAAPEAD_K@Z 0000000180068080 f i c2_ex_sdl_flexible_shaft_lstm.obj
 0001:000670b0       ?allocate@?$allocator@U?$_Tree_node@U?$pair@$$CBHH@std@@PEAX@std@@@std@@QEAAPEAU?$_Tree_node@U?$pair@$$CBHH@std@@PEAX@2@_K@Z 00000001800680b0 f i c2_ex_sdl_flexible_shaft_lstm.obj
 0001:000670e0       ?assign@?$_Narrow_char_traits@DH@std@@SAXAEADAEBD@Z 00000001800680e0 f i c2_ex_sdl_flexible_shaft_lstm.obj
 0001:00067100       ?assign@?$basic_string@DU?$char_traits@D@std@@V?$allocator@D@2@@std@@QEAAAEAV12@QEBD@Z 0000000180068100 f i c2_ex_sdl_flexible_shaft_lstm.obj
 0001:00067140       ?assign@?$basic_string@DU?$char_traits@D@std@@V?$allocator@D@2@@std@@QEAAAEAV12@QEBD_K@Z 0000000180068140 f i c2_ex_sdl_flexible_shaft_lstm.obj
 0001:00067200       ?copy@?$_Char_traits@DH@std@@SAPEADQEADQEBD_K@Z 0000000180068200 f i c2_ex_sdl_flexible_shaft_lstm.obj
 0001:00067240       ?deallocate@?$allocator@D@std@@QEAAXQEAD_K@Z 0000000180068240 f i c2_ex_sdl_flexible_shaft_lstm.obj
 0001:00067270       ?deallocate@?$allocator@U?$_Tree_node@U?$pair@$$CBHH@std@@PEAX@std@@@std@@QEAAXQEAU?$_Tree_node@U?$pair@$$CBHH@std@@PEAX@2@_K@Z 0000000180068270 f i c2_ex_sdl_flexible_shaft_lstm.obj
 0001:000672a0       ?end@?$_Tree@V?$_Tmap_traits@HHU?$less@H@std@@V?$allocator@U?$pair@$$CBHH@std@@@2@$0A@@std@@@std@@QEAA?AV?$_Tree_iterator@V?$_Tree_val@U?$_Tree_simple_types@U?$pair@$$CBHH@std@@@std@@@std@@@2@XZ 00000001800682a0 f i c2_ex_sdl_flexible_shaft_lstm.obj
 0001:000672e0       ?find@?$_Tree@V?$_Tmap_traits@HHU?$less@H@std@@V?$allocator@U?$pair@$$CBHH@std@@@2@$0A@@std@@@std@@QEAA?AV?$_Tree_iterator@V?$_Tree_val@U?$_Tree_simple_types@U?$pair@$$CBHH@std@@@std@@@std@@@2@AEBH@Z 00000001800682e0 f i c2_ex_sdl_flexible_shaft_lstm.obj
 0001:00067330       ?getBatchSize@MWTensorBase@@QEBAHXZ 0000000180068330 f i c2_ex_sdl_flexible_shaft_lstm.obj
 0001:00067350       ?getChannels@MWTensorBase@@QEBAHXZ 0000000180068350 f i c2_ex_sdl_flexible_shaft_lstm.obj
 0001:00067370       ?getData@?$MWTensor@M@@QEBAPEAMXZ 0000000180068370 f i c2_ex_sdl_flexible_shaft_lstm.obj
 0001:00067380       ?getHeight@MWTensorBase@@QEBAHXZ 0000000180068380 f i c2_ex_sdl_flexible_shaft_lstm.obj
 0001:000673a0       ?getNumElements@MWTensorBase@@QEBAHXZ 00000001800683a0 f i c2_ex_sdl_flexible_shaft_lstm.obj
 0001:00067420       ?getNumInstrumentedOutputs@MWCNNLayer@@UEAAHXZ 0000000180068420 f i c2_ex_sdl_flexible_shaft_lstm.obj
 0001:00067440       ?getNumOutputs@MWCNNLayer@@QEAA_KXZ 0000000180068440 f i c2_ex_sdl_flexible_shaft_lstm.obj
 0001:00067460       ?getSequenceLength@MWTensorBase@@QEBAHXZ 0000000180068460 f i c2_ex_sdl_flexible_shaft_lstm.obj
 0001:00067480       ?getWidth@MWTensorBase@@QEBAHXZ 0000000180068480 f i c2_ex_sdl_flexible_shaft_lstm.obj
 0001:000674a0       ?isFloat@?$MWTensor@M@@UEBA_NXZ 00000001800684a0 f i c2_ex_sdl_flexible_shaft_lstm.obj
 0001:000674c0       ?isInt8@?$MWTensor@M@@UEBA_NXZ 00000001800684c0 f i c2_ex_sdl_flexible_shaft_lstm.obj
 0001:000674e0       ?length@?$_Narrow_char_traits@DH@std@@SA_KQEBD@Z 00000001800684e0 f i c2_ex_sdl_flexible_shaft_lstm.obj
 0001:00067500       ?max@?$numeric_limits@_J@std@@SA_JXZ 0000000180068500 f i c2_ex_sdl_flexible_shaft_lstm.obj
 0001:00067510       ?max_size@?$_Default_allocator_traits@V?$allocator@D@std@@@std@@SA_KAEBV?$allocator@D@2@@Z 0000000180068510 f i c2_ex_sdl_flexible_shaft_lstm.obj
 0001:00067520       ?max_size@?$_Default_allocator_traits@V?$allocator@U?$_Tree_node@U?$pair@$$CBHH@std@@PEAX@std@@@std@@@std@@SA_KAEBV?$allocator@U?$_Tree_node@U?$pair@$$CBHH@std@@PEAX@std@@@2@@Z 0000000180068520 f i c2_ex_sdl_flexible_shaft_lstm.obj
 0001:00067530       ?max_size@?$_Tree@V?$_Tmap_traits@HHU?$less@H@std@@V?$allocator@U?$pair@$$CBHH@std@@@2@$0A@@std@@@std@@QEBA_KXZ 0000000180068530 f i c2_ex_sdl_flexible_shaft_lstm.obj
 0001:00067580       ?max_size@?$basic_string@DU?$char_traits@D@std@@V?$allocator@D@2@@std@@QEBA_KXZ 0000000180068580 f i c2_ex_sdl_flexible_shaft_lstm.obj
 0001:000675f0       ?move@?$_Char_traits@DH@std@@SAPEADQEADQEBD_K@Z 00000001800685f0 f i c2_ex_sdl_flexible_shaft_lstm.obj
 0001:00067630       ?setBatchSize@MWTensorBase@@QEAAXH@Z 0000000180068630 f i c2_ex_sdl_flexible_shaft_lstm.obj
 0001:00067650       ?setChannels@MWTensorBase@@QEAAXH@Z 0000000180068650 f i c2_ex_sdl_flexible_shaft_lstm.obj
 0001:00067670       ?setData@?$MWTensor@M@@QEAAXPEAM@Z 0000000180068670 f i c2_ex_sdl_flexible_shaft_lstm.obj
 0001:00067690       ?setHeight@MWTensorBase@@QEAAXH@Z 0000000180068690 f i c2_ex_sdl_flexible_shaft_lstm.obj
 0001:000676b0       ?setInPlaceIndex@MWCNNLayer@@QEAAXHH@Z 00000001800686b0 f i c2_ex_sdl_flexible_shaft_lstm.obj
 0001:00067750       ?setSequenceLength@MWTensorBase@@QEAAXH@Z 0000000180068750 f i c2_ex_sdl_flexible_shaft_lstm.obj
 0001:00067770       ?setWidth@MWTensorBase@@QEAAXH@Z 0000000180068770 f i c2_ex_sdl_flexible_shaft_lstm.obj
 0001:00067790       ?size@?$_Tree@V?$_Tmap_traits@HPEAVMWTensorBase@@U?$less@H@std@@V?$allocator@U?$pair@$$CBHPEAVMWTensorBase@@@std@@@3@$0A@@std@@@std@@QEBA_KXZ 0000000180068790 f i c2_ex_sdl_flexible_shaft_lstm.obj
 0001:000677b0       ?strrchr@@YAPEADQEADH@Z    00000001800687b0 f i c2_ex_sdl_flexible_shaft_lstm.obj
 0001:000677d0       ?what@exception@std@@UEBAPEBDXZ 00000001800687d0 f i c2_ex_sdl_flexible_shaft_lstm.obj
 0001:00067810       ?getBitfieldFromFloat@@YAIM@Z 0000000180068810 f   half_type.obj
 0001:00067840       ?getFloatFromBitfield@@YAMI@Z 0000000180068840 f   half_type.obj
 0001:00067870       ??0real16_T@@QEAA@M@Z      0000000180068870 f   half_type.obj
 0001:00067ac0       ??0real16_T@@QEAA@N@Z      0000000180068ac0 f   half_type.obj
 0001:00067db0       ??Breal16_T@@QEBAMXZ       0000000180068db0 f   half_type.obj
 0001:00067e70       ??Breal16_T@@QEBANXZ       0000000180068e70 f   half_type.obj
 0001:00067ea0       ??Hreal16_T@@QEBA?AV0@V0@@Z 0000000180068ea0 f   half_type.obj
 0001:00067f00       ??Greal16_T@@QEBA?AV0@V0@@Z 0000000180068f00 f   half_type.obj
 0001:00067f60       ??Dreal16_T@@QEBA?AV0@V0@@Z 0000000180068f60 f   half_type.obj
 0001:00067fc0       ??Kreal16_T@@QEBA?AV0@V0@@Z 0000000180068fc0 f   half_type.obj
 0001:00068020       ??Hreal16_T@@QEBA?AV0@XZ   0000000180069020 f   half_type.obj
 0001:00068050       ??Greal16_T@@QEBA?AV0@XZ   0000000180069050 f   half_type.obj
 0001:00068090       ??Ereal16_T@@QEAAAEAV0@XZ  0000000180069090 f   half_type.obj
 0001:000680e0       ??Ereal16_T@@QEAA?AV0@H@Z  00000001800690e0 f   half_type.obj
 0001:00068150       ??Freal16_T@@QEAAAEAV0@XZ  0000000180069150 f   half_type.obj
 0001:000681a0       ??Freal16_T@@QEAA?AV0@H@Z  00000001800691a0 f   half_type.obj
 0001:00068210       ??8real16_T@@QEBAEV0@@Z    0000000180069210 f   half_type.obj
 0001:00068270       ??9real16_T@@QEBAEV0@@Z    0000000180069270 f   half_type.obj
 0001:000682d0       ??Preal16_T@@QEBAEV0@@Z    00000001800692d0 f   half_type.obj
 0001:00068320       ??Oreal16_T@@QEBAEV0@@Z    0000000180069320 f   half_type.obj
 0001:00068370       ??Nreal16_T@@QEBAEV0@@Z    0000000180069370 f   half_type.obj
 0001:000683c0       ??Mreal16_T@@QEBAEV0@@Z    00000001800693c0 f   half_type.obj
 0001:00068410       ??4real16_T@@QEAAAEAV0@AEBV0@@Z 0000000180069410 f   half_type.obj
 0001:00068440       ??4real16_T@@QECAXAEDV0@@Z 0000000180069440 f   half_type.obj
 0001:00068470       ??4real16_T@@QECAXAEBV0@@Z 0000000180069470 f   half_type.obj
 0001:000684a0       ??Yreal16_T@@QEAAAEAV0@V0@@Z 00000001800694a0 f   half_type.obj
 0001:00068500       ??Zreal16_T@@QEAAAEAV0@V0@@Z 0000000180069500 f   half_type.obj
 0001:00068560       ??Xreal16_T@@QEAAAEAV0@V0@@Z 0000000180069560 f   half_type.obj
 0001:000685c0       ??_0real16_T@@QEAAAEAV0@V0@@Z 00000001800695c0 f   half_type.obj
 0001:00068620       ?getBitfieldFromHalf@@YAGVreal16_T@@@Z 0000000180069620 f   half_type.obj
 0001:00068640       ?getHalfFromBitfield@@YA?AVreal16_T@@G@Z 0000000180069640 f   half_type.obj
 0001:00068680       ?halfToFloat@@YAMVreal16_T@@@Z 0000000180069680 f   half_type.obj
 0001:000686a0       ?halfToDouble@@YANVreal16_T@@@Z 00000001800696a0 f   half_type.obj
 0001:000686c0       ?floatToHalf@@YA?AVreal16_T@@M@Z 00000001800696c0 f   half_type.obj
 0001:000686f0       ?doubleToHalf@@YA?AVreal16_T@@N@Z 00000001800696f0 f   half_type.obj
 0001:00068720       ?getBitPattern@real16_T@@QEBAGXZ 0000000180069720 f i half_type.obj
 0001:00068730       ?setBitPattern@real16_T@@QEAAXG@Z 0000000180069730 f i half_type.obj
 0001:00068750       mexfilerequiredapiversion  0000000180069750 f   c_mexapi_version.obj
 0001:00068771       ??0MWCNNLayer@@QEAA@XZ     0000000180069771 f   shared_layers:shared_layers.dll
 0001:00068777       ??1MWCNNLayer@@UEAA@XZ     0000000180069777 f   shared_layers:shared_layers.dll
 0001:0006877d       ?predict@MWCNNLayer@@UEAAXXZ 000000018006977d f   shared_layers:shared_layers.dll
 0001:00068783       ?cleanup@MWCNNLayer@@UEAAXXZ 0000000180069783 f   shared_layers:shared_layers.dll
 0001:00068789       ?allocate@MWCNNLayer@@UEAAXXZ 0000000180069789 f   shared_layers:shared_layers.dll
 0001:0006878f       ?deallocate@MWCNNLayer@@QEAAXXZ 000000018006978f f   shared_layers:shared_layers.dll
 0001:00068795       ?getLayerOutput@MWCNNLayer@@QEAAPEAMH@Z 0000000180069795 f   shared_layers:shared_layers.dll
 0001:0006879b       ?getOutputTensor@MWCNNLayer@@QEAAPEAVMWTensorBase@@_K@Z 000000018006979b f   shared_layers:shared_layers.dll
 0001:000687a1       ?setName@MWCNNLayer@@QEAAXAEBV?$basic_string@DU?$char_traits@D@std@@V?$allocator@D@2@@std@@@Z 00000001800697a1 f   shared_layers:shared_layers.dll
 0001:000687a7       ?createSequenceInputLayer@MWSequenceInputLayer@@QEAAXPEAVMWTargetNetworkImplBase@@PEAVMWTensorBase@@_NPEBDH@Z 00000001800697a7 f   shared_layers:shared_layers.dll
 0001:000687ad       ?propagateSize@MWSequenceInputLayer@@UEAAXXZ 00000001800697ad f   shared_layers:shared_layers.dll
 0001:000687b3       ??0MWElementwiseAffineLayer@@QEAA@XZ 00000001800697b3 f   shared_layers:shared_layers.dll
 0001:000687b9       ?createElementwiseAffineLayer@MWElementwiseAffineLayer@@QEAAXPEAVMWTargetNetworkImplBase@@PEAVMWTensorBase@@HHHHHH_NHHPEBD33H@Z 00000001800697b9 f   shared_layers:shared_layers.dll
 0001:000687bf       ?createFCLayer@MWFCLayer@@QEAAXPEAVMWTargetNetworkImplBase@@PEAVMWTensorBase@@HHPEBD22H@Z 00000001800697bf f   shared_layers:shared_layers.dll
 0001:000687c5       ?propagateSize@MWFCLayer@@UEAAXXZ 00000001800697c5 f   shared_layers:shared_layers.dll
 0001:000687cb       ?propagateSize@MWReLULayer@@UEAAXXZ 00000001800697cb f   shared_layers:shared_layers.dll
 0001:000687d1       ?createRNNLayer@MWRNNLayer@@QEAAXPEAVMWTargetNetworkImplBase@@PEAVMWTensorBase@@HH_N2HHHPEBD3H33333H@Z 00000001800697d1 f   shared_layers:shared_layers.dll
 0001:000687d7       ?propagateSize@MWRNNLayer@@UEAAXXZ 00000001800697d7 f   shared_layers:shared_layers.dll
 0001:000687dd       ?resetState@MWRNNLayer@@QEAAXXZ 00000001800697dd f   shared_layers:shared_layers.dll
 0001:000687e3       ?updateState@MWRNNLayer@@QEAAXXZ 00000001800697e3 f   shared_layers:shared_layers.dll
 0001:000687e9       ?createOutputLayer@MWOutputLayer@@QEAAXPEAVMWTargetNetworkImplBase@@PEAVMWTensorBase@@PEBDH@Z 00000001800697e9 f   shared_layers:shared_layers.dll
 0001:000687ef       ?predict@MWOutputLayer@@UEAAXXZ 00000001800697ef f   shared_layers:shared_layers.dll
 0001:000687f5       ?propagateSize@MWOutputLayer@@UEAAXXZ 00000001800697f5 f   shared_layers:shared_layers.dll
 0001:000687fb       ??$createReLULayer@MM@MWReLULayer@@QEAAXPEAVMWTargetNetworkImplBase@@PEAVMWTensorBase@@HPEBDH2H@Z 00000001800697fb f   shared_layers:shared_layers.dll
 0001:00068801       ??0MWTargetNetworkImpl@MWCudnnTarget@@QEAA@XZ 0000000180069801 f   cudnn_layers:cudnn_layers.dll
 0001:00068807       ?allocate@MWTargetNetworkImpl@MWCudnnTarget@@QEAAXHH@Z 0000000180069807 f   cudnn_layers:cudnn_layers.dll
 0001:0006880d       ?postSetup@MWTargetNetworkImpl@MWCudnnTarget@@QEAAXQEAPEAVMWCNNLayer@@H@Z 000000018006980d f   cudnn_layers:cudnn_layers.dll
 0001:00068813       ?setProposedWorkSpaceSize@MWTargetNetworkImpl@MWCudnnTarget@@QEAAX_K@Z 0000000180069813 f   cudnn_layers:cudnn_layers.dll
 0001:00068819       ?setAutoTune@MWTargetNetworkImpl@MWCudnnTarget@@QEAAX_N@Z 0000000180069819 f   cudnn_layers:cudnn_layers.dll
 0001:0006881f       sf_load_rtw_optimization_info 000000018006981f f   sf_runtime:sf_runtime.dll
 0001:00068825       sf_mex_decode              0000000180069825 f   sf_runtime:sf_runtime.dll
 0001:0006882b       sf_get_ChartInfoStruct_CodeGen 000000018006982b f   sf_runtime:sf_runtime.dll
 0001:00068831       sf_get_hasSeparateUpdateOutputs 0000000180069831 f   sf_runtime:sf_runtime.dll
 0001:00068837       callMdlMethodAndReportError 0000000180069837 f   sf_runtime:sf_runtime.dll
 0001:0006883d       sim_mode_is_rtw_gen        000000018006983d f   sf_runtime:sf_runtime.dll
 0001:00068843       call_sf_machine_global_method_dispatcher 0000000180069843 f   sf_runtime:sf_runtime.dll
 0001:00068849       getRuntimeInstanceInfoAsVoid 0000000180069849 f   sf_runtime:sf_runtime.dll
 0001:0006884f       sf_mex_error_direct_call   000000018006984f f   sf_runtime:sf_runtime.dll
 0001:00068855       sf_clear_error_manager_info 0000000180069855 f   sf_runtime:sf_runtime.dll
 0001:0006885b       sf_init_ChartRunTimeInfo   000000018006985b f   sf_runtime:sf_runtime.dll
 0001:00068861       sf_free_ChartRunTimeInfo   0000000180069861 f   sf_runtime:sf_runtime.dll
 0001:00068867       sfrtGetEmlrtCtx            0000000180069867 f   sf_runtime:sf_runtime.dll
 0001:0006886d       sf_get_chart_instance_ptr  000000018006986d f   sf_runtime:sf_runtime.dll
 0001:00068873       sim_mode_is_external       0000000180069873 f   sf_runtime:sf_runtime.dll
 0001:00068879       sf_clear_rtw_identifier    0000000180069879 f   sf_runtime:sf_runtime.dll
 0001:0006887f       sf_get_time                000000018006987f f   sf_runtime:sf_runtime.dll
 0001:00068885       sfDoAnimationWrapper       0000000180069885 f   sf_runtime:sf_runtime.dll
 0001:0006888b       setDebuggerFlag            000000018006988b f   sf_runtime:sf_runtime.dll
 0001:00068891       sf_warn_if_symbolic_dimension_param_changed 0000000180069891 f   sf_runtime:sf_runtime.dll
 0001:00068897       sf_set_work_widths         0000000180069897 f   sf_runtime:sf_runtime.dll
 0001:0006889d       sf_error_out_about_continuous_sample_time_with_persistent_vars 000000018006989d f   sf_runtime:sf_runtime.dll
 0001:000688a3       supportsLegacyBehaviorForPersistentVarInContinuousTime 00000001800698a3 f   sf_runtime:sf_runtime.dll
 0001:000688a9       sf_mex_error_message       00000001800698a9 f   sf_runtime:sf_runtime.dll
 0001:000688af       sf_mex_create              00000001800698af f   sf_runtime:sf_runtime.dll
 0001:000688b5       sf_mex_createcellmatrix    00000001800698b5 f   sf_runtime:sf_runtime.dll
 0001:000688bb       sf_mex_setcell             00000001800698bb f   sf_runtime:sf_runtime.dll
 0001:000688c1       sf_mex_getcell             00000001800698c1 f   sf_runtime:sf_runtime.dll
 0001:000688c7       sf_mex_assign              00000001800698c7 f   sf_runtime:sf_runtime.dll
 0001:000688cd       sf_mex_dup                 00000001800698cd f   sf_runtime:sf_runtime.dll
 0001:000688d3       sf_mex_destroy             00000001800698d3 f   sf_runtime:sf_runtime.dll
 0001:000688d9       sf_mex_import              00000001800698d9 f   sf_runtime:sf_runtime.dll
 0001:000688df       ssGetInputPortSignal_wrapper 00000001800698df f   sf_runtime:sf_runtime.dll
 0001:000688e5       ssGetOutputPortSignal_wrapper 00000001800698e5 f   sf_runtime:sf_runtime.dll
 0001:000688eb       mxIsChar_800               00000001800698eb f   libmx:libmx.dll
 0001:000688f1       mxGetScalar_800            00000001800698f1 f   libmx:libmx.dll
 0001:000688f7       mxGetPr_800                00000001800698f7 f   libmx:libmx.dll
 0001:000688fd       mxDestroyArray_800         00000001800698fd f   libmx:libmx.dll
 0001:00068903       mxCreateDoubleMatrix_800   0000000180069903 f   libmx:libmx.dll
 0001:00068909       mxGetString_800            0000000180069909 f   libmx:libmx.dll
 0001:0006890f       mxDuplicateArray_800       000000018006990f f   libmx:libmx.dll
 0001:00068915       mxCalloc_800               0000000180069915 f   libmx:libmx.dll
 0001:0006891b       mxGetM_800                 000000018006991b f   libmx:libmx.dll
 0001:00068921       mxGetClassID_800           0000000180069921 f   libmx:libmx.dll
 0001:00068927       mxIsNumeric_800            0000000180069927 f   libmx:libmx.dll
 0001:0006892d       mxIsComplex_800            000000018006992d f   libmx:libmx.dll
 0001:00068933       mxGetN_800                 0000000180069933 f   libmx:libmx.dll
 0001:00068939       mxCreateDoubleScalar_800   0000000180069939 f   libmx:libmx.dll
 0001:0006893f       mxCreateString_800         000000018006993f f   libmx:libmx.dll
 0001:00068945       mxSetCell_800              0000000180069945 f   libmx:libmx.dll
 0001:0006894b       mxSetField_800             000000018006994b f   libmx:libmx.dll
 0001:00068951       mxCreateCellMatrix_800     0000000180069951 f   libmx:libmx.dll
 0001:00068957       mxCreateStructMatrix_800   0000000180069957 f   libmx:libmx.dll
 0001:0006895d       mexMakeArrayPersistent_800 000000018006995d f   libmex:libmex.dll
 0001:00068963       mexErrMsgTxt_800           0000000180069963 f   libmex:libmex.dll
 0001:00068969       mexWarnMsgTxt_800          0000000180069969 f   libmex:libmex.dll
 0001:0006896f       mexCallMATLAB_800          000000018006996f f   libmex:libmex.dll
 0001:00068975       mexLock_800                0000000180069975 f   libmex:libmex.dll
 0001:0006897b       mexUnlock_800              000000018006997b f   libmex:libmex.dll
 0001:00068981       mexIsLocked_800            0000000180069981 f   libmex:libmex.dll
 0001:00068987       utMalloc                   0000000180069987 f   libut:libut.dll
 0001:0006898d       utFree                     000000018006998d f   libut:libut.dll
 0001:00068993       emlrtLicenseCheckR2022a    0000000180069993 f   libemlrt:libemlrt.dll
 0001:00068999       emlrtNameCaptureMxArrayR2016a 0000000180069999 f   libemlrt:libemlrt.dll
 0001:0006899f       emlrtCUDAWarning           000000018006999f f   libemlrt:libemlrt.dll
 0001:000689a5       emlrtThinCUDAError         00000001800699a5 f   libemlrt:libemlrt.dll
 0001:000689ab       emlrtInitGPU               00000001800699ab f   libemlrt:libemlrt.dll
 0001:000689b1       ?_Xlength_error@std@@YAXPEBD@Z 00000001800699b1 f   msvcprt:MSVCP140.dll
 0001:000689b8       ?configure_argv@__scrt_narrow_argv_policy@@SAHXZ 00000001800699b8 f i MSVCRT:utility.obj
 0001:00068a18       ?initialize_environment@__scrt_narrow_environment_policy@@SAHXZ 0000000180069a18 f i MSVCRT:utility.obj
 0001:00068a50       NtCurrentTeb               0000000180069a50 f i MSVCRT:utility.obj
 0001:00068a5c       __scrt_acquire_startup_lock 0000000180069a5c f   MSVCRT:utility.obj
 0001:00068a98       __scrt_dllmain_after_initialize_c 0000000180069a98 f   MSVCRT:utility.obj
 0001:00068acc       __scrt_dllmain_before_initialize_c 0000000180069acc f   MSVCRT:utility.obj
 0001:00068ae4       __scrt_dllmain_crt_thread_attach 0000000180069ae4 f   MSVCRT:utility.obj
 0001:00068b0c       __scrt_dllmain_crt_thread_detach 0000000180069b0c f   MSVCRT:utility.obj
 0001:00068b24       __scrt_dllmain_exception_filter 0000000180069b24 f   MSVCRT:utility.obj
 0001:00068b84       __scrt_dllmain_uninitialize_c 0000000180069b84 f   MSVCRT:utility.obj
 0001:00068bb4       __scrt_dllmain_uninitialize_critical 0000000180069bb4 f   MSVCRT:utility.obj
 0001:00068bc8       __scrt_initialize_crt      0000000180069bc8 f   MSVCRT:utility.obj
 0001:00068c14       __scrt_initialize_onexit_tables 0000000180069c14 f   MSVCRT:utility.obj
 0001:00068ca0       __scrt_is_nonwritable_in_current_image 0000000180069ca0 f   MSVCRT:utility.obj
 0001:00068d38       __scrt_release_startup_lock 0000000180069d38 f   MSVCRT:utility.obj
 0001:00068d5c       __scrt_uninitialize_crt    0000000180069d5c f   MSVCRT:utility.obj
 0001:00068d88       _onexit                    0000000180069d88 f   MSVCRT:utility.obj
 0001:00068dc4       at_quick_exit              0000000180069dc4 f   MSVCRT:utility.obj
 0001:00068de4       atexit                     0000000180069de4 f   MSVCRT:utility.obj
 0001:00068dfc       __raise_securityfailure    0000000180069dfc f   MSVCRT:gs_report.obj
 0001:00068e30       __report_gsfailure         0000000180069e30 f   MSVCRT:gs_report.obj
 0001:00068f04       __report_rangecheckfailure 0000000180069f04 f   MSVCRT:gs_report.obj
 0001:00068f18       __report_securityfailure   0000000180069f18 f   MSVCRT:gs_report.obj
 0001:00068fb4       __report_securityfailureEx 0000000180069fb4 f   MSVCRT:gs_report.obj
 0001:000691a8       __GSHandlerCheck           000000018006a1a8 f   MSVCRT:gshandler.obj
 0001:000691c8       __GSHandlerCheckCommon     000000018006a1c8 f   MSVCRT:gshandler.obj
 0001:00069240       __security_check_cookie    000000018006a240 f   MSVCRT:amdsecgs.obj
 0001:00069260       ??2@YAPEAX_K@Z             000000018006a260 f   MSVCRT:new_scalar.obj
 0001:0006929c       ??3@YAXPEAX_K@Z            000000018006a29c f   MSVCRT:delete_scalar_size.obj
 0001:000692a4       __GSHandlerCheck_EH4       000000018006a2a4 f   MSVCRT:gshandlereh4.obj
 0001:00069324       ??1type_info@@UEAA@XZ      000000018006a324 f   MSVCRT:std_type_info_static.obj
 0001:00069330       ??_Etype_info@@UEAAPEAXI@Z 000000018006a330 f i MSVCRT:std_type_info_static.obj
 0001:00069330       ??_Gtype_info@@UEAAPEAXI@Z 000000018006a330 f i MSVCRT:std_type_info_static.obj
 0001:00069698       _CRT_INIT                  000000018006a698 f   MSVCRT:dll_dllmain.obj
 0001:000696a0       _DllMainCRTStartup         000000018006a6a0 f   MSVCRT:dll_dllmain.obj
 0001:000696f0       __chkstk                   000000018006a6f0 f   MSVCRT:chkstk.obj
 0001:000696f0       _alloca_probe              000000018006a6f0 f   MSVCRT:chkstk.obj
 0001:00069740       __isa_available_init       000000018006a740 f   MSVCRT:cpu_disp.obj
 0001:000698e4       _get_startup_argv_mode     000000018006a8e4 f   MSVCRT:argv_mode.obj
 0001:000698ec       __scrt_is_ucrt_dll_in_use  000000018006a8ec f   MSVCRT:ucrt_detection.obj
 0001:000698f8       __crt_debugger_hook        000000018006a8f8 f   MSVCRT:utility_desktop.obj
 0001:00069900       __scrt_fastfail            000000018006a900 f   MSVCRT:utility_desktop.obj
 0001:00069a4c       __scrt_get_show_window_mode 000000018006aa4c f   MSVCRT:utility_desktop.obj
 0001:00069a88       __scrt_initialize_mta      000000018006aa88 f   MSVCRT:utility_desktop.obj
 0001:00069a90       __scrt_initialize_winrt    000000018006aa90 f   MSVCRT:utility_desktop.obj
 0001:00069a94       __scrt_is_managed_app      000000018006aa94 f   MSVCRT:utility_desktop.obj
 0001:00069ae8       __scrt_set_unhandled_exception_filter 000000018006aae8 f   MSVCRT:utility_desktop.obj
 0001:00069af8       __scrt_stub_for_initialize_mta 000000018006aaf8 f   MSVCRT:utility_desktop.obj
 0001:00069af8       __scrt_exe_initialize_mta  000000018006aaf8 f   MSVCRT:utility_desktop.obj
 0001:00069afc       __scrt_unhandled_exception_filter 000000018006aafc f   MSVCRT:utility_desktop.obj
 0001:00069b58       _guard_check_icall_nop     000000018006ab58 f i MSVCRT:guard_support.obj
 0001:00069b5c       ReadNoFence64              000000018006ab5c f i MSVCRT:guard_support.obj
 0001:00069b60       ReadPointerNoFence         000000018006ab60 f i MSVCRT:guard_support.obj
 0001:00069b64       __castguard_check_failure_debugbreak 000000018006ab64 f i MSVCRT:guard_support.obj
 0001:00069b80       __castguard_check_failure_fastfail 000000018006ab80 f i MSVCRT:guard_support.obj
 0001:00069ba4       __castguard_check_failure_nop 000000018006aba4 f i MSVCRT:guard_support.obj
 0001:00069ba8       __castguard_check_failure_os_handled 000000018006aba8 f i MSVCRT:guard_support.obj
 0001:00069c08       __castguard_slow_path_check_debugbreak 000000018006ac08 f i MSVCRT:guard_support.obj
 0001:00069c3c       __castguard_slow_path_check_fastfail 000000018006ac3c f i MSVCRT:guard_support.obj
 0001:00069c78       __castguard_slow_path_check_nop 000000018006ac78 f i MSVCRT:guard_support.obj
 0001:00069c7c       __castguard_slow_path_check_os_handled 000000018006ac7c f i MSVCRT:guard_support.obj
 0001:00069cf0       _guard_icall_checks_enforced 000000018006acf0 f i MSVCRT:guard_support.obj
 0001:00069d08       _guard_rf_checks_enforced  000000018006ad08 f i MSVCRT:guard_support.obj
 0001:00069d0c       ??0bad_alloc@std@@QEAA@XZ  000000018006ad0c f i MSVCRT:throw_bad_alloc.obj
 0001:00069d2c       ?__scrt_throw_std_bad_alloc@@YAXXZ 000000018006ad2c f   MSVCRT:throw_bad_alloc.obj
 0001:00069d4c       ?__scrt_throw_std_bad_array_new_length@@YAXXZ 000000018006ad4c f   MSVCRT:throw_bad_alloc.obj
 0001:00069d6c       ??3@YAXPEAX@Z              000000018006ad6c f   MSVCRT:delete_scalar.obj
 0001:00069de0       __security_init_cookie     000000018006ade0 f   MSVCRT:gs_support.obj
 0001:00069e8c       DllMain                    000000018006ae8c f   MSVCRT:dll_dllmain_stub.obj
 0001:00069eb0       ?__scrt_initialize_type_info@@YAXXZ 000000018006aeb0 f   MSVCRT:tncleanup.obj
 0001:00069ec0       ?__scrt_uninitialize_type_info@@YAXXZ 000000018006aec0 f   MSVCRT:tncleanup.obj
 0001:00069ecc       __local_stdio_scanf_options 000000018006aecc f i MSVCRT:default_local_stdio_options.obj
 0001:00069ed4       __scrt_initialize_default_local_stdio_options 000000018006aed4 f   MSVCRT:default_local_stdio_options.obj
 0001:00069ef0       __scrt_get_dyn_tls_init_callback 000000018006aef0 f   MSVCRT:dyn_tls_init.obj
 0001:00069ef8       _RTC_Initialize            000000018006aef8 f   MSVCRT:initsect.obj
 0001:00069f34       _RTC_Terminate             000000018006af34 f   MSVCRT:initsect.obj
 0001:00069f70       GetEnvironmentVariableA    000000018006af70 f   kernel32:KERNEL32.dll
 0001:00069f76       SetEnvironmentVariableA    000000018006af76 f   kernel32:KERNEL32.dll
 0001:00069f7c       GetCurrentDirectoryA       000000018006af7c f   kernel32:KERNEL32.dll
 0001:00069f82       CreateDirectoryA           000000018006af82 f   kernel32:KERNEL32.dll
 0001:00069f88       DeleteFileA                000000018006af88 f   kernel32:KERNEL32.dll
 0001:00069f8e       FindClose                  000000018006af8e f   kernel32:KERNEL32.dll
 0001:00069f94       FindFirstFileA             000000018006af94 f   kernel32:KERNEL32.dll
 0001:00069f9a       FindNextFileA              000000018006af9a f   kernel32:KERNEL32.dll
 0001:00069fa0       GetFileAttributesExA       000000018006afa0 f   kernel32:KERNEL32.dll
 0001:00069fa6       LockFileEx                 000000018006afa6 f   kernel32:KERNEL32.dll
 0001:00069fac       RemoveDirectoryA           000000018006afac f   kernel32:KERNEL32.dll
 0001:00069fb2       UnlockFileEx               000000018006afb2 f   kernel32:KERNEL32.dll
 0001:00069fb8       CloseHandle                000000018006afb8 f   kernel32:KERNEL32.dll
 0001:00069fbe       GetLastError               000000018006afbe f   kernel32:KERNEL32.dll
 0001:00069fc4       QueryPerformanceCounter    000000018006afc4 f   kernel32:KERNEL32.dll
 0001:00069fca       QueryPerformanceFrequency  000000018006afca f   kernel32:KERNEL32.dll
 0001:00069fd0       HeapCreate                 000000018006afd0 f   kernel32:KERNEL32.dll
 0001:00069fd6       HeapDestroy                000000018006afd6 f   kernel32:KERNEL32.dll
 0001:00069fdc       HeapAlloc                  000000018006afdc f   kernel32:KERNEL32.dll
 0001:00069fe2       HeapReAlloc                000000018006afe2 f   kernel32:KERNEL32.dll
 0001:00069fe8       HeapFree                   000000018006afe8 f   kernel32:KERNEL32.dll
 0001:00069fee       InitializeSRWLock          000000018006afee f   kernel32:KERNEL32.dll
 0001:00069ff4       ReleaseSRWLockExclusive    000000018006aff4 f   kernel32:KERNEL32.dll
 0001:00069ffa       ReleaseSRWLockShared       000000018006affa f   kernel32:KERNEL32.dll
 0001:0006a000       AcquireSRWLockExclusive    000000018006b000 f   kernel32:KERNEL32.dll
 0001:0006a006       AcquireSRWLockShared       000000018006b006 f   kernel32:KERNEL32.dll
 0001:0006a00c       TryAcquireSRWLockExclusive 000000018006b00c f   kernel32:KERNEL32.dll
 0001:0006a012       TryAcquireSRWLockShared    000000018006b012 f   kernel32:KERNEL32.dll
 0001:0006a018       InitializeCriticalSection  000000018006b018 f   kernel32:KERNEL32.dll
 0001:0006a01e       EnterCriticalSection       000000018006b01e f   kernel32:KERNEL32.dll
 0001:0006a024       LeaveCriticalSection       000000018006b024 f   kernel32:KERNEL32.dll
 0001:0006a02a       TryEnterCriticalSection    000000018006b02a f   kernel32:KERNEL32.dll
 0001:0006a030       DeleteCriticalSection      000000018006b030 f   kernel32:KERNEL32.dll
 0001:0006a036       InitializeConditionVariable 000000018006b036 f   kernel32:KERNEL32.dll
 0001:0006a03c       WakeConditionVariable      000000018006b03c f   kernel32:KERNEL32.dll
 0001:0006a042       WakeAllConditionVariable   000000018006b042 f   kernel32:KERNEL32.dll
 0001:0006a048       SleepConditionVariableCS   000000018006b048 f   kernel32:KERNEL32.dll
 0001:0006a04e       SetEvent                   000000018006b04e f   kernel32:KERNEL32.dll
 0001:0006a054       ResetEvent                 000000018006b054 f   kernel32:KERNEL32.dll
 0001:0006a05a       ReleaseSemaphore           000000018006b05a f   kernel32:KERNEL32.dll
 0001:0006a060       WaitForSingleObject        000000018006b060 f   kernel32:KERNEL32.dll
 0001:0006a066       CreateEventA               000000018006b066 f   kernel32:KERNEL32.dll
 0001:0006a06c       Sleep                      000000018006b06c f   kernel32:KERNEL32.dll
 0001:0006a072       GetCurrentProcess          000000018006b072 f   kernel32:KERNEL32.dll
 0001:0006a078       GetCurrentProcessId        000000018006b078 f   kernel32:KERNEL32.dll
 0001:0006a07e       SwitchToThread             000000018006b07e f   kernel32:KERNEL32.dll
 0001:0006a084       GetCurrentThread           000000018006b084 f   kernel32:KERNEL32.dll
 0001:0006a08a       GetCurrentThreadId         000000018006b08a f   kernel32:KERNEL32.dll
 0001:0006a090       TlsAlloc                   000000018006b090 f   kernel32:KERNEL32.dll
 0001:0006a096       TlsGetValue                000000018006b096 f   kernel32:KERNEL32.dll
 0001:0006a09c       TlsSetValue                000000018006b09c f   kernel32:KERNEL32.dll
 0001:0006a0a2       TlsFree                    000000018006b0a2 f   kernel32:KERNEL32.dll
 0001:0006a0a8       GlobalMemoryStatusEx       000000018006b0a8 f   kernel32:KERNEL32.dll
 0001:0006a0ae       GetLocalTime               000000018006b0ae f   kernel32:KERNEL32.dll
 0001:0006a0b4       GetSystemInfo              000000018006b0b4 f   kernel32:KERNEL32.dll
 0001:0006a0ba       GetNativeSystemInfo        000000018006b0ba f   kernel32:KERNEL32.dll
 0001:0006a0c0       VirtualAlloc               000000018006b0c0 f   kernel32:KERNEL32.dll
 0001:0006a0c6       VirtualFree                000000018006b0c6 f   kernel32:KERNEL32.dll
 0001:0006a0cc       VirtualProtect             000000018006b0cc f   kernel32:KERNEL32.dll
 0001:0006a0d2       VirtualQuery               000000018006b0d2 f   kernel32:KERNEL32.dll
 0001:0006a0d8       FreeLibrary                000000018006b0d8 f   kernel32:KERNEL32.dll
 0001:0006a0de       FreeLibraryAndExitThread   000000018006b0de f   kernel32:KERNEL32.dll
 0001:0006a0e4       GetModuleFileNameA         000000018006b0e4 f   kernel32:KERNEL32.dll
 0001:0006a0ea       GetModuleHandleA           000000018006b0ea f   kernel32:KERNEL32.dll
 0001:0006a0f0       GetModuleHandleExA         000000018006b0f0 f   kernel32:KERNEL32.dll
 0001:0006a0f6       GetProcAddress             000000018006b0f6 f   kernel32:KERNEL32.dll
 0001:0006a0fc       GetProcessAffinityMask     000000018006b0fc f   kernel32:KERNEL32.dll
 0001:0006a102       SetThreadAffinityMask      000000018006b102 f   kernel32:KERNEL32.dll
 0001:0006a108       WaitForMultipleObjects     000000018006b108 f   kernel32:KERNEL32.dll
 0001:0006a10e       CreateSemaphoreA           000000018006b10e f   kernel32:KERNEL32.dll
 0001:0006a114       LoadLibraryA               000000018006b114 f   kernel32:KERNEL32.dll
 0001:0006a11a       GetComputerNameA           000000018006b11a f   kernel32:KERNEL32.dll
 0001:0006a120       LoadLibraryExA             000000018006b120 f   kernel32:KERNEL32.dll
 0001:0006a126       VerSetConditionMask        000000018006b126 f   kernel32:KERNEL32.dll
 0001:0006a12c       CompareFileTime            000000018006b12c f   kernel32:KERNEL32.dll
 0001:0006a132       CreateFileW                000000018006b132 f   kernel32:KERNEL32.dll
 0001:0006a138       GetFileAttributesW         000000018006b138 f   kernel32:KERNEL32.dll
 0001:0006a13e       GetFullPathNameW           000000018006b13e f   kernel32:KERNEL32.dll
 0001:0006a144       OutputDebugStringW         000000018006b144 f   kernel32:KERNEL32.dll
 0001:0006a14a       SetLastError               000000018006b14a f   kernel32:KERNEL32.dll
 0001:0006a150       CreateProcessA             000000018006b150 f   kernel32:KERNEL32.dll
 0001:0006a156       CreateProcessW             000000018006b156 f   kernel32:KERNEL32.dll
 0001:0006a15c       GetSystemDirectoryW        000000018006b15c f   kernel32:KERNEL32.dll
 0001:0006a162       GetModuleFileNameW         000000018006b162 f   kernel32:KERNEL32.dll
 0001:0006a168       GetModuleHandleW           000000018006b168 f   kernel32:KERNEL32.dll
 0001:0006a16e       LoadLibraryExW             000000018006b16e f   kernel32:KERNEL32.dll
 0001:0006a174       LocalAlloc                 000000018006b174 f   kernel32:KERNEL32.dll
 0001:0006a17a       LocalFree                  000000018006b17a f   kernel32:KERNEL32.dll
 0001:0006a180       lstrcmpA                   000000018006b180 f   kernel32:KERNEL32.dll
 0001:0006a186       VerifyVersionInfoW         000000018006b186 f   kernel32:KERNEL32.dll
 0001:0006a18c       FileTimeToSystemTime       000000018006b18c f   kernel32:KERNEL32.dll
 0001:0006a192       RtlCaptureContext          000000018006b192 f   kernel32:KERNEL32.dll
 0001:0006a198       RtlLookupFunctionEntry     000000018006b198 f   kernel32:KERNEL32.dll
 0001:0006a19e       RtlVirtualUnwind           000000018006b19e f   kernel32:KERNEL32.dll
 0001:0006a1a4       UnhandledExceptionFilter   000000018006b1a4 f   kernel32:KERNEL32.dll
 0001:0006a1aa       SetUnhandledExceptionFilter 000000018006b1aa f   kernel32:KERNEL32.dll
 0001:0006a1b0       TerminateProcess           000000018006b1b0 f   kernel32:KERNEL32.dll
 0001:0006a1b6       IsProcessorFeaturePresent  000000018006b1b6 f   kernel32:KERNEL32.dll
 0001:0006a1bc       IsDebuggerPresent          000000018006b1bc f   kernel32:KERNEL32.dll
 0001:0006a1c2       GetStartupInfoW            000000018006b1c2 f   kernel32:KERNEL32.dll
 0001:0006a1c8       GetSystemTimeAsFileTime    000000018006b1c8 f   kernel32:KERNEL32.dll
 0001:0006a1ce       DisableThreadLibraryCalls  000000018006b1ce f   kernel32:KERNEL32.dll
 0001:0006a1d4       InitializeSListHead        000000018006b1d4 f   kernel32:KERNEL32.dll
 0001:0006a1da       memcpy                     000000018006b1da f   vcruntime:VCRUNTIME140.dll
 0001:0006a1e0       _purecall                  000000018006b1e0 f   vcruntime:VCRUNTIME140.dll
 0001:0006a1e6       memmove                    000000018006b1e6 f   vcruntime:VCRUNTIME140.dll
 0001:0006a1ec       memset                     000000018006b1ec f   vcruntime:VCRUNTIME140.dll
 0001:0006a1f2       strrchr                    000000018006b1f2 f   vcruntime:VCRUNTIME140.dll
 0001:0006a1f8       __std_exception_copy       000000018006b1f8 f   vcruntime:VCRUNTIME140.dll
 0001:0006a1fe       __std_exception_destroy    000000018006b1fe f   vcruntime:VCRUNTIME140.dll
 0001:0006a204       _CxxThrowException         000000018006b204 f   vcruntime:VCRUNTIME140.dll
 0001:0006a20a       __CxxFrameHandler4         000000018006b20a f   vcruntime:VCRUNTIME140_1.dll
 0001:0006a210       __RTDynamicCast            000000018006b210 f   vcruntime:VCRUNTIME140.dll
 0001:0006a216       memcmp                     000000018006b216 f   vcruntime:VCRUNTIME140.dll
 0001:0006a21c       wcsrchr                    000000018006b21c f   vcruntime:VCRUNTIME140.dll
 0001:0006a222       wcsstr                     000000018006b222 f   vcruntime:VCRUNTIME140.dll
 0001:0006a228       __C_specific_handler       000000018006b228 f   vcruntime:VCRUNTIME140.dll
 0001:0006a22e       __current_exception        000000018006b22e f   vcruntime:VCRUNTIME140.dll
 0001:0006a234       __current_exception_context 000000018006b234 f   vcruntime:VCRUNTIME140.dll
 0001:0006a23a       __std_type_info_destroy_list 000000018006b23a f   vcruntime:VCRUNTIME140.dll
 0001:0006a240       strcmp                     000000018006b240 f   ucrt:api-ms-win-crt-string-l1-1-0.dll
 0001:0006a246       labs                       000000018006b246 f   ucrt:api-ms-win-crt-utility-l1-1-0.dll
 0001:0006a24c       llabs                      000000018006b24c f   ucrt:api-ms-win-crt-utility-l1-1-0.dll
 0001:0006a252       fabs                       000000018006b252 f   ucrt:api-ms-win-crt-math-l1-1-0.dll
 0001:0006a258       fminf                      000000018006b258 f   ucrt:api-ms-win-crt-math-l1-1-0.dll
 0001:0006a25e       fmaxf                      000000018006b25e f   ucrt:api-ms-win-crt-math-l1-1-0.dll
 0001:0006a264       exp2f                      000000018006b264 f   ucrt:api-ms-win-crt-math-l1-1-0.dll
 0001:0006a26a       expm1f                     000000018006b26a f   ucrt:api-ms-win-crt-math-l1-1-0.dll
 0001:0006a270       log2f                      000000018006b270 f   ucrt:api-ms-win-crt-math-l1-1-0.dll
 0001:0006a276       log1pf                     000000018006b276 f   ucrt:api-ms-win-crt-math-l1-1-0.dll
 0001:0006a27c       acoshf                     000000018006b27c f   ucrt:api-ms-win-crt-math-l1-1-0.dll
 0001:0006a282       asinhf                     000000018006b282 f   ucrt:api-ms-win-crt-math-l1-1-0.dll
 0001:0006a288       atanhf                     000000018006b288 f   ucrt:api-ms-win-crt-math-l1-1-0.dll
 0001:0006a28e       ldexp                      000000018006b28e f   ucrt:api-ms-win-crt-math-l1-1-0.dll
 0001:0006a294       logbf                      000000018006b294 f   ucrt:api-ms-win-crt-math-l1-1-0.dll
 0001:0006a29a       ilogbf                     000000018006b29a f   ucrt:api-ms-win-crt-math-l1-1-0.dll
 0001:0006a2a0       scalblnf                   000000018006b2a0 f   ucrt:api-ms-win-crt-math-l1-1-0.dll
 0001:0006a2a6       frexp                      000000018006b2a6 f   ucrt:api-ms-win-crt-math-l1-1-0.dll
 0001:0006a2ac       roundf                     000000018006b2ac f   ucrt:api-ms-win-crt-math-l1-1-0.dll
 0001:0006a2b2       lroundf                    000000018006b2b2 f   ucrt:api-ms-win-crt-math-l1-1-0.dll
 0001:0006a2b8       llroundf                   000000018006b2b8 f   ucrt:api-ms-win-crt-math-l1-1-0.dll
 0001:0006a2be       rintf                      000000018006b2be f   ucrt:api-ms-win-crt-math-l1-1-0.dll
 0001:0006a2c4       lrintf                     000000018006b2c4 f   ucrt:api-ms-win-crt-math-l1-1-0.dll
 0001:0006a2ca       llrintf                    000000018006b2ca f   ucrt:api-ms-win-crt-math-l1-1-0.dll
 0001:0006a2d0       nearbyintf                 000000018006b2d0 f   ucrt:api-ms-win-crt-math-l1-1-0.dll
 0001:0006a2d6       truncf                     000000018006b2d6 f   ucrt:api-ms-win-crt-math-l1-1-0.dll
 0001:0006a2dc       fdimf                      000000018006b2dc f   ucrt:api-ms-win-crt-math-l1-1-0.dll
 0001:0006a2e2       cbrtf                      000000018006b2e2 f   ucrt:api-ms-win-crt-math-l1-1-0.dll
 0001:0006a2e8       remainderf                 000000018006b2e8 f   ucrt:api-ms-win-crt-math-l1-1-0.dll
 0001:0006a2ee       remquof                    000000018006b2ee f   ucrt:api-ms-win-crt-math-l1-1-0.dll
 0001:0006a2f4       erff                       000000018006b2f4 f   ucrt:api-ms-win-crt-math-l1-1-0.dll
 0001:0006a2fa       erfcf                      000000018006b2fa f   ucrt:api-ms-win-crt-math-l1-1-0.dll
 0001:0006a300       lgammaf                    000000018006b300 f   ucrt:api-ms-win-crt-math-l1-1-0.dll
 0001:0006a306       tgammaf                    000000018006b306 f   ucrt:api-ms-win-crt-math-l1-1-0.dll
 0001:0006a30c       copysignf                  000000018006b30c f   ucrt:api-ms-win-crt-math-l1-1-0.dll
 0001:0006a312       nextafterf                 000000018006b312 f   ucrt:api-ms-win-crt-math-l1-1-0.dll
 0001:0006a318       fmaf                       000000018006b318 f   ucrt:api-ms-win-crt-math-l1-1-0.dll
 0001:0006a31e       acosf                      000000018006b31e f   ucrt:api-ms-win-crt-math-l1-1-0.dll
 0001:0006a324       asinf                      000000018006b324 f   ucrt:api-ms-win-crt-math-l1-1-0.dll
 0001:0006a32a       atanf                      000000018006b32a f   ucrt:api-ms-win-crt-math-l1-1-0.dll
 0001:0006a330       atan2f                     000000018006b330 f   ucrt:api-ms-win-crt-math-l1-1-0.dll
 0001:0006a336       cosf                       000000018006b336 f   ucrt:api-ms-win-crt-math-l1-1-0.dll
 0001:0006a33c       sinf                       000000018006b33c f   ucrt:api-ms-win-crt-math-l1-1-0.dll
 0001:0006a342       tanf                       000000018006b342 f   ucrt:api-ms-win-crt-math-l1-1-0.dll
 0001:0006a348       coshf                      000000018006b348 f   ucrt:api-ms-win-crt-math-l1-1-0.dll
 0001:0006a34e       sinhf                      000000018006b34e f   ucrt:api-ms-win-crt-math-l1-1-0.dll
 0001:0006a354       tanhf                      000000018006b354 f   ucrt:api-ms-win-crt-math-l1-1-0.dll
 0001:0006a35a       expf                       000000018006b35a f   ucrt:api-ms-win-crt-math-l1-1-0.dll
 0001:0006a360       logf                       000000018006b360 f   ucrt:api-ms-win-crt-math-l1-1-0.dll
 0001:0006a366       log10f                     000000018006b366 f   ucrt:api-ms-win-crt-math-l1-1-0.dll
 0001:0006a36c       modff                      000000018006b36c f   ucrt:api-ms-win-crt-math-l1-1-0.dll
 0001:0006a372       powf                       000000018006b372 f   ucrt:api-ms-win-crt-math-l1-1-0.dll
 0001:0006a378       sqrtf                      000000018006b378 f   ucrt:api-ms-win-crt-math-l1-1-0.dll
 0001:0006a37e       ceilf                      000000018006b37e f   ucrt:api-ms-win-crt-math-l1-1-0.dll
 0001:0006a384       floorf                     000000018006b384 f   ucrt:api-ms-win-crt-math-l1-1-0.dll
 0001:0006a38a       fmodf                      000000018006b38a f   ucrt:api-ms-win-crt-math-l1-1-0.dll
 0001:0006a390       _dsign                     000000018006b390 f   ucrt:api-ms-win-crt-math-l1-1-0.dll
 0001:0006a396       _ldsign                    000000018006b396 f   ucrt:api-ms-win-crt-math-l1-1-0.dll
 0001:0006a39c       _fdsign                    000000018006b39c f   ucrt:api-ms-win-crt-math-l1-1-0.dll
 0001:0006a3a2       _hypotf                    000000018006b3a2 f   ucrt:api-ms-win-crt-math-l1-1-0.dll
 0001:0006a3a8       strlen                     000000018006b3a8 f   ucrt:api-ms-win-crt-string-l1-1-0.dll
 0001:0006a3ae       free                       000000018006b3ae f   ucrt:api-ms-win-crt-heap-l1-1-0.dll
 0001:0006a3b4       malloc                     000000018006b3b4 f   ucrt:api-ms-win-crt-heap-l1-1-0.dll
 0001:0006a3ba       __stdio_common_vsprintf    000000018006b3ba f   ucrt:api-ms-win-crt-stdio-l1-1-0.dll
 0001:0006a3c0       _invalid_parameter_noinfo_noreturn 000000018006b3c0 f   ucrt:api-ms-win-crt-runtime-l1-1-0.dll
 0001:0006a3c6       strcat                     000000018006b3c6 f   ucrt:api-ms-win-crt-string-l1-1-0.dll
 0001:0006a3cc       calloc                     000000018006b3cc f   ucrt:api-ms-win-crt-heap-l1-1-0.dll
 0001:0006a3d2       _wassert                   000000018006b3d2 f   ucrt:api-ms-win-crt-runtime-l1-1-0.dll
 0001:0006a3d8       exit                       000000018006b3d8 f   ucrt:api-ms-win-crt-runtime-l1-1-0.dll
 0001:0006a3de       _get_osfhandle             000000018006b3de f   ucrt:api-ms-win-crt-stdio-l1-1-0.dll
 0001:0006a3e4       fclose                     000000018006b3e4 f   ucrt:api-ms-win-crt-stdio-l1-1-0.dll
 0001:0006a3ea       feof                       000000018006b3ea f   ucrt:api-ms-win-crt-stdio-l1-1-0.dll
 0001:0006a3f0       ferror                     000000018006b3f0 f   ucrt:api-ms-win-crt-stdio-l1-1-0.dll
 0001:0006a3f6       fflush                     000000018006b3f6 f   ucrt:api-ms-win-crt-stdio-l1-1-0.dll
 0001:0006a3fc       fgetc                      000000018006b3fc f   ucrt:api-ms-win-crt-stdio-l1-1-0.dll
 0001:0006a402       _fileno                    000000018006b402 f   ucrt:api-ms-win-crt-stdio-l1-1-0.dll
 0001:0006a408       fopen                      000000018006b408 f   ucrt:api-ms-win-crt-stdio-l1-1-0.dll
 0001:0006a40e       fread                      000000018006b40e f   ucrt:api-ms-win-crt-stdio-l1-1-0.dll
 0001:0006a414       fseek                      000000018006b414 f   ucrt:api-ms-win-crt-stdio-l1-1-0.dll
 0001:0006a41a       ftell                      000000018006b41a f   ucrt:api-ms-win-crt-stdio-l1-1-0.dll
 0001:0006a420       fwrite                     000000018006b420 f   ucrt:api-ms-win-crt-stdio-l1-1-0.dll
 0001:0006a426       strncat                    000000018006b426 f   ucrt:api-ms-win-crt-string-l1-1-0.dll
 0001:0006a42c       strncpy                    000000018006b42c f   ucrt:api-ms-win-crt-string-l1-1-0.dll
 0001:0006a432       realloc                    000000018006b432 f   ucrt:api-ms-win-crt-heap-l1-1-0.dll
 0001:0006a438       _beginthreadex             000000018006b438 f   ucrt:api-ms-win-crt-runtime-l1-1-0.dll
 0001:0006a43e       strncmp                    000000018006b43e f   ucrt:api-ms-win-crt-string-l1-1-0.dll
 0001:0006a444       _time64                    000000018006b444 f   ucrt:api-ms-win-crt-time-l1-1-0.dll
 0001:0006a44a       isalpha                    000000018006b44a f   ucrt:api-ms-win-crt-string-l1-1-0.dll
 0001:0006a450       isdigit                    000000018006b450 f   ucrt:api-ms-win-crt-string-l1-1-0.dll
 0001:0006a456       wcstok                     000000018006b456 f   ucrt:api-ms-win-crt-string-l1-1-0.dll
 0001:0006a45c       _wcsicmp                   000000018006b45c f   ucrt:api-ms-win-crt-string-l1-1-0.dll
 0001:0006a462       _wcsnicmp                  000000018006b462 f   ucrt:api-ms-win-crt-string-l1-1-0.dll
 0001:0006a468       _seh_filter_dll            000000018006b468 f   ucrt:api-ms-win-crt-runtime-l1-1-0.dll
 0001:0006a46e       _configure_narrow_argv     000000018006b46e f   ucrt:api-ms-win-crt-runtime-l1-1-0.dll
 0001:0006a474       _initialize_narrow_environment 000000018006b474 f   ucrt:api-ms-win-crt-runtime-l1-1-0.dll
 0001:0006a47a       _initialize_onexit_table   000000018006b47a f   ucrt:api-ms-win-crt-runtime-l1-1-0.dll
 0001:0006a480       _register_onexit_function  000000018006b480 f   ucrt:api-ms-win-crt-runtime-l1-1-0.dll
 0001:0006a486       _execute_onexit_table      000000018006b486 f   ucrt:api-ms-win-crt-runtime-l1-1-0.dll
 0001:0006a48c       _crt_atexit                000000018006b48c f   ucrt:api-ms-win-crt-runtime-l1-1-0.dll
 0001:0006a492       _crt_at_quick_exit         000000018006b492 f   ucrt:api-ms-win-crt-runtime-l1-1-0.dll
 0001:0006a498       _cexit                     000000018006b498 f   ucrt:api-ms-win-crt-runtime-l1-1-0.dll
 0001:0006a49e       _callnewh                  000000018006b49e f   ucrt:api-ms-win-crt-heap-l1-1-0.dll
 0001:0006a4a4       _initterm                  000000018006b4a4 f   ucrt:api-ms-win-crt-runtime-l1-1-0.dll
 0001:0006a4aa       _initterm_e                000000018006b4aa f   ucrt:api-ms-win-crt-runtime-l1-1-0.dll
 0001:0006a4b0       terminate                  000000018006b4b0 f   ucrt:api-ms-win-crt-runtime-l1-1-0.dll
 0001:0006a4b8       __scrt_stub_for_acrt_initialize 000000018006b4b8 f   MSVCRT:ucrt_stubs.obj
 0001:0006a4b8       __acrt_initialize          000000018006b4b8 f   MSVCRT:ucrt_stubs.obj
 0001:0006a4b8       __vcrt_initialize          000000018006b4b8 f   MSVCRT:ucrt_stubs.obj
 0001:0006a4bc       __vcrt_thread_attach       000000018006b4bc f   MSVCRT:ucrt_stubs.obj
 0001:0006a4bc       __acrt_thread_attach       000000018006b4bc f   MSVCRT:ucrt_stubs.obj
 0001:0006a4bc       __scrt_stub_for_acrt_thread_attach 000000018006b4bc f   MSVCRT:ucrt_stubs.obj
 0001:0006a4c0       __scrt_stub_for_acrt_thread_detach 000000018006b4c0 f   MSVCRT:ucrt_stubs.obj
 0001:0006a4c0       __acrt_thread_detach       000000018006b4c0 f   MSVCRT:ucrt_stubs.obj
 0001:0006a4c0       __vcrt_thread_detach       000000018006b4c0 f   MSVCRT:ucrt_stubs.obj
 0001:0006a4c4       __acrt_uninitialize        000000018006b4c4 f   MSVCRT:ucrt_stubs.obj
 0001:0006a4c4       __vcrt_uninitialize        000000018006b4c4 f   MSVCRT:ucrt_stubs.obj
 0001:0006a4c4       __scrt_stub_for_acrt_uninitialize 000000018006b4c4 f   MSVCRT:ucrt_stubs.obj
 0001:0006a4c8       __acrt_uninitialize_critical 000000018006b4c8 f   MSVCRT:ucrt_stubs.obj
 0001:0006a4c8       __vcrt_uninitialize_critical 000000018006b4c8 f   MSVCRT:ucrt_stubs.obj
 0001:0006a4c8       __scrt_stub_for_acrt_uninitialize_critical 000000018006b4c8 f   MSVCRT:ucrt_stubs.obj
 0001:0006a4cc       __scrt_stub_for_is_c_termination_complete 000000018006b4cc f   MSVCRT:ucrt_stubs.obj
 0001:0006a4cc       _is_c_termination_complete 000000018006b4cc f   MSVCRT:ucrt_stubs.obj
 0001:0006a4e0       _guard_dispatch_icall_nop  000000018006b4e0 f   MSVCRT:guard_dispatch.obj
 0001:0006a500       _guard_xfg_dispatch_icall_nop 000000018006b500 f   MSVCRT:guard_xfg_dispatch.obj
 0002:00000000       __imp_GetProcAddress       000000018006c000     kernel32:KERNEL32.dll
 0002:00000008       __imp_InitializeSListHead  000000018006c008     kernel32:KERNEL32.dll
 0002:00000010       __imp_DisableThreadLibraryCalls 000000018006c010     kernel32:KERNEL32.dll
 0002:00000018       __imp_GetSystemTimeAsFileTime 000000018006c018     kernel32:KERNEL32.dll
 0002:00000020       __imp_GetStartupInfoW      000000018006c020     kernel32:KERNEL32.dll
 0002:00000028       __imp_IsDebuggerPresent    000000018006c028     kernel32:KERNEL32.dll
 0002:00000030       __imp_IsProcessorFeaturePresent 000000018006c030     kernel32:KERNEL32.dll
 0002:00000038       __imp_TerminateProcess     000000018006c038     kernel32:KERNEL32.dll
 0002:00000040       __imp_SetUnhandledExceptionFilter 000000018006c040     kernel32:KERNEL32.dll
 0002:00000048       __imp_UnhandledExceptionFilter 000000018006c048     kernel32:KERNEL32.dll
 0002:00000050       __imp_RtlVirtualUnwind     000000018006c050     kernel32:KERNEL32.dll
 0002:00000058       __imp_RtlLookupFunctionEntry 000000018006c058     kernel32:KERNEL32.dll
 0002:00000060       __imp_RtlCaptureContext    000000018006c060     kernel32:KERNEL32.dll
 0002:00000068       __imp_FileTimeToSystemTime 000000018006c068     kernel32:KERNEL32.dll
 0002:00000070       __imp_VerifyVersionInfoW   000000018006c070     kernel32:KERNEL32.dll
 0002:00000078       __imp_lstrcmpA             000000018006c078     kernel32:KERNEL32.dll
 0002:00000080       __imp_LocalFree            000000018006c080     kernel32:KERNEL32.dll
 0002:00000088       __imp_LocalAlloc           000000018006c088     kernel32:KERNEL32.dll
 0002:00000090       __imp_LoadLibraryExW       000000018006c090     kernel32:KERNEL32.dll
 0002:00000098       __imp_GetModuleHandleW     000000018006c098     kernel32:KERNEL32.dll
 0002:000000a0       __imp_GetModuleFileNameW   000000018006c0a0     kernel32:KERNEL32.dll
 0002:000000a8       __imp_GetSystemDirectoryW  000000018006c0a8     kernel32:KERNEL32.dll
 0002:000000b0       __imp_CreateProcessW       000000018006c0b0     kernel32:KERNEL32.dll
 0002:000000b8       __imp_CreateProcessA       000000018006c0b8     kernel32:KERNEL32.dll
 0002:000000c0       __imp_SetLastError         000000018006c0c0     kernel32:KERNEL32.dll
 0002:000000c8       __imp_OutputDebugStringW   000000018006c0c8     kernel32:KERNEL32.dll
 0002:000000d0       __imp_GetFullPathNameW     000000018006c0d0     kernel32:KERNEL32.dll
 0002:000000d8       __imp_GetFileAttributesW   000000018006c0d8     kernel32:KERNEL32.dll
 0002:000000e0       __imp_CreateFileW          000000018006c0e0     kernel32:KERNEL32.dll
 0002:000000e8       __imp_CompareFileTime      000000018006c0e8     kernel32:KERNEL32.dll
 0002:000000f0       __imp_VerSetConditionMask  000000018006c0f0     kernel32:KERNEL32.dll
 0002:000000f8       __imp_LoadLibraryExA       000000018006c0f8     kernel32:KERNEL32.dll
 0002:00000100       __imp_GetComputerNameA     000000018006c100     kernel32:KERNEL32.dll
 0002:00000108       __imp_LoadLibraryA         000000018006c108     kernel32:KERNEL32.dll
 0002:00000110       __imp_CreateSemaphoreA     000000018006c110     kernel32:KERNEL32.dll
 0002:00000118       __imp_WaitForMultipleObjects 000000018006c118     kernel32:KERNEL32.dll
 0002:00000120       __imp_SetThreadAffinityMask 000000018006c120     kernel32:KERNEL32.dll
 0002:00000128       __imp_GetProcessAffinityMask 000000018006c128     kernel32:KERNEL32.dll
 0002:00000130       __imp_GetModuleHandleExA   000000018006c130     kernel32:KERNEL32.dll
 0002:00000138       __imp_GetModuleHandleA     000000018006c138     kernel32:KERNEL32.dll
 0002:00000140       __imp_GetModuleFileNameA   000000018006c140     kernel32:KERNEL32.dll
 0002:00000148       __imp_FreeLibraryAndExitThread 000000018006c148     kernel32:KERNEL32.dll
 0002:00000150       __imp_FreeLibrary          000000018006c150     kernel32:KERNEL32.dll
 0002:00000158       __imp_VirtualQuery         000000018006c158     kernel32:KERNEL32.dll
 0002:00000160       __imp_VirtualProtect       000000018006c160     kernel32:KERNEL32.dll
 0002:00000168       __imp_VirtualFree          000000018006c168     kernel32:KERNEL32.dll
 0002:00000170       __imp_VirtualAlloc         000000018006c170     kernel32:KERNEL32.dll
 0002:00000178       __imp_GetNativeSystemInfo  000000018006c178     kernel32:KERNEL32.dll
 0002:00000180       __imp_GetSystemInfo        000000018006c180     kernel32:KERNEL32.dll
 0002:00000188       __imp_GetLocalTime         000000018006c188     kernel32:KERNEL32.dll
 0002:00000190       __imp_GlobalMemoryStatusEx 000000018006c190     kernel32:KERNEL32.dll
 0002:00000198       __imp_TlsFree              000000018006c198     kernel32:KERNEL32.dll
 0002:000001a0       __imp_TlsSetValue          000000018006c1a0     kernel32:KERNEL32.dll
 0002:000001a8       __imp_TlsGetValue          000000018006c1a8     kernel32:KERNEL32.dll
 0002:000001b0       __imp_TlsAlloc             000000018006c1b0     kernel32:KERNEL32.dll
 0002:000001b8       __imp_GetCurrentThreadId   000000018006c1b8     kernel32:KERNEL32.dll
 0002:000001c0       __imp_GetCurrentThread     000000018006c1c0     kernel32:KERNEL32.dll
 0002:000001c8       __imp_SwitchToThread       000000018006c1c8     kernel32:KERNEL32.dll
 0002:000001d0       __imp_GetCurrentProcessId  000000018006c1d0     kernel32:KERNEL32.dll
 0002:000001d8       __imp_GetCurrentProcess    000000018006c1d8     kernel32:KERNEL32.dll
 0002:000001e0       __imp_Sleep                000000018006c1e0     kernel32:KERNEL32.dll
 0002:000001e8       __imp_CreateEventA         000000018006c1e8     kernel32:KERNEL32.dll
 0002:000001f0       __imp_WaitForSingleObject  000000018006c1f0     kernel32:KERNEL32.dll
 0002:000001f8       __imp_ReleaseSemaphore     000000018006c1f8     kernel32:KERNEL32.dll
 0002:00000200       __imp_ResetEvent           000000018006c200     kernel32:KERNEL32.dll
 0002:00000208       __imp_SetEvent             000000018006c208     kernel32:KERNEL32.dll
 0002:00000210       __imp_SleepConditionVariableCS 000000018006c210     kernel32:KERNEL32.dll
 0002:00000218       __imp_WakeAllConditionVariable 000000018006c218     kernel32:KERNEL32.dll
 0002:00000220       __imp_WakeConditionVariable 000000018006c220     kernel32:KERNEL32.dll
 0002:00000228       __imp_InitializeConditionVariable 000000018006c228     kernel32:KERNEL32.dll
 0002:00000230       __imp_DeleteCriticalSection 000000018006c230     kernel32:KERNEL32.dll
 0002:00000238       __imp_TryEnterCriticalSection 000000018006c238     kernel32:KERNEL32.dll
 0002:00000240       __imp_LeaveCriticalSection 000000018006c240     kernel32:KERNEL32.dll
 0002:00000248       __imp_EnterCriticalSection 000000018006c248     kernel32:KERNEL32.dll
 0002:00000250       __imp_InitializeCriticalSection 000000018006c250     kernel32:KERNEL32.dll
 0002:00000258       __imp_TryAcquireSRWLockShared 000000018006c258     kernel32:KERNEL32.dll
 0002:00000260       __imp_TryAcquireSRWLockExclusive 000000018006c260     kernel32:KERNEL32.dll
 0002:00000268       __imp_AcquireSRWLockShared 000000018006c268     kernel32:KERNEL32.dll
 0002:00000270       __imp_AcquireSRWLockExclusive 000000018006c270     kernel32:KERNEL32.dll
 0002:00000278       __imp_ReleaseSRWLockShared 000000018006c278     kernel32:KERNEL32.dll
 0002:00000280       __imp_ReleaseSRWLockExclusive 000000018006c280     kernel32:KERNEL32.dll
 0002:00000288       __imp_InitializeSRWLock    000000018006c288     kernel32:KERNEL32.dll
 0002:00000290       __imp_HeapFree             000000018006c290     kernel32:KERNEL32.dll
 0002:00000298       __imp_HeapReAlloc          000000018006c298     kernel32:KERNEL32.dll
 0002:000002a0       __imp_HeapAlloc            000000018006c2a0     kernel32:KERNEL32.dll
 0002:000002a8       __imp_HeapDestroy          000000018006c2a8     kernel32:KERNEL32.dll
 0002:000002b0       __imp_HeapCreate           000000018006c2b0     kernel32:KERNEL32.dll
 0002:000002b8       __imp_QueryPerformanceFrequency 000000018006c2b8     kernel32:KERNEL32.dll
 0002:000002c0       __imp_QueryPerformanceCounter 000000018006c2c0     kernel32:KERNEL32.dll
 0002:000002c8       __imp_GetLastError         000000018006c2c8     kernel32:KERNEL32.dll
 0002:000002d0       __imp_CloseHandle          000000018006c2d0     kernel32:KERNEL32.dll
 0002:000002d8       __imp_UnlockFileEx         000000018006c2d8     kernel32:KERNEL32.dll
 0002:000002e0       __imp_RemoveDirectoryA     000000018006c2e0     kernel32:KERNEL32.dll
 0002:000002e8       __imp_LockFileEx           000000018006c2e8     kernel32:KERNEL32.dll
 0002:000002f0       __imp_GetFileAttributesExA 000000018006c2f0     kernel32:KERNEL32.dll
 0002:000002f8       __imp_FindNextFileA        000000018006c2f8     kernel32:KERNEL32.dll
 0002:00000300       __imp_FindFirstFileA       000000018006c300     kernel32:KERNEL32.dll
 0002:00000308       __imp_FindClose            000000018006c308     kernel32:KERNEL32.dll
 0002:00000310       __imp_DeleteFileA          000000018006c310     kernel32:KERNEL32.dll
 0002:00000318       __imp_CreateDirectoryA     000000018006c318     kernel32:KERNEL32.dll
 0002:00000320       __imp_GetCurrentDirectoryA 000000018006c320     kernel32:KERNEL32.dll
 0002:00000328       __imp_SetEnvironmentVariableA 000000018006c328     kernel32:KERNEL32.dll
 0002:00000330       __imp_GetEnvironmentVariableA 000000018006c330     kernel32:KERNEL32.dll
 0002:00000338       \177KERNEL32_NULL_THUNK_DATA 000000018006c338     kernel32:KERNEL32.dll
 0002:00000340       __imp_?_Xlength_error@std@@YAXPEBD@Z 000000018006c340     msvcprt:MSVCP140.dll
 0002:00000348       \177MSVCP140_NULL_THUNK_DATA 000000018006c348     msvcprt:MSVCP140.dll
 0002:00000350       __imp_memcpy               000000018006c350     vcruntime:VCRUNTIME140.dll
 0002:00000358       __imp__purecall            000000018006c358     vcruntime:VCRUNTIME140.dll
 0002:00000360       __imp_memmove              000000018006c360     vcruntime:VCRUNTIME140.dll
 0002:00000368       __imp___std_type_info_destroy_list 000000018006c368     vcruntime:VCRUNTIME140.dll
 0002:00000370       __imp_memset               000000018006c370     vcruntime:VCRUNTIME140.dll
 0002:00000378       __imp_strrchr              000000018006c378     vcruntime:VCRUNTIME140.dll
 0002:00000380       __imp___std_exception_copy 000000018006c380     vcruntime:VCRUNTIME140.dll
 0002:00000388       __imp___std_exception_destroy 000000018006c388     vcruntime:VCRUNTIME140.dll
 0002:00000390       __imp__CxxThrowException   000000018006c390     vcruntime:VCRUNTIME140.dll
 0002:00000398       __imp___current_exception_context 000000018006c398     vcruntime:VCRUNTIME140.dll
 0002:000003a0       __imp___RTDynamicCast      000000018006c3a0     vcruntime:VCRUNTIME140.dll
 0002:000003a8       __imp_memcmp               000000018006c3a8     vcruntime:VCRUNTIME140.dll
 0002:000003b0       __imp_wcsrchr              000000018006c3b0     vcruntime:VCRUNTIME140.dll
 0002:000003b8       __imp_wcsstr               000000018006c3b8     vcruntime:VCRUNTIME140.dll
 0002:000003c0       __imp___C_specific_handler 000000018006c3c0     vcruntime:VCRUNTIME140.dll
 0002:000003c8       __imp___current_exception  000000018006c3c8     vcruntime:VCRUNTIME140.dll
 0002:000003d0       \177VCRUNTIME140_NULL_THUNK_DATA 000000018006c3d0     vcruntime:VCRUNTIME140.dll
 0002:000003d8       __imp___CxxFrameHandler4   000000018006c3d8     vcruntime:VCRUNTIME140_1.dll
 0002:000003e0       \177VCRUNTIME140_1_NULL_THUNK_DATA 000000018006c3e0     vcruntime:VCRUNTIME140_1.dll
 0002:000003e8       __imp_realloc              000000018006c3e8     ucrt:api-ms-win-crt-heap-l1-1-0.dll
 0002:000003f0       __imp_calloc               000000018006c3f0     ucrt:api-ms-win-crt-heap-l1-1-0.dll
 0002:000003f8       __imp_malloc               000000018006c3f8     ucrt:api-ms-win-crt-heap-l1-1-0.dll
 0002:00000400       __imp_free                 000000018006c400     ucrt:api-ms-win-crt-heap-l1-1-0.dll
 0002:00000408       __imp__callnewh            000000018006c408     ucrt:api-ms-win-crt-heap-l1-1-0.dll
 0002:00000410       \177api-ms-win-crt-heap-l1-1-0_NULL_THUNK_DATA 000000018006c410     ucrt:api-ms-win-crt-heap-l1-1-0.dll
 0002:00000418       __imp_copysignf            000000018006c418     ucrt:api-ms-win-crt-math-l1-1-0.dll
 0002:00000420       __imp_nextafterf           000000018006c420     ucrt:api-ms-win-crt-math-l1-1-0.dll
 0002:00000428       __imp_fmaf                 000000018006c428     ucrt:api-ms-win-crt-math-l1-1-0.dll
 0002:00000430       __imp_acosf                000000018006c430     ucrt:api-ms-win-crt-math-l1-1-0.dll
 0002:00000438       __imp_asinf                000000018006c438     ucrt:api-ms-win-crt-math-l1-1-0.dll
 0002:00000440       __imp_atanf                000000018006c440     ucrt:api-ms-win-crt-math-l1-1-0.dll
 0002:00000448       __imp_atan2f               000000018006c448     ucrt:api-ms-win-crt-math-l1-1-0.dll
 0002:00000450       __imp_cosf                 000000018006c450     ucrt:api-ms-win-crt-math-l1-1-0.dll
 0002:00000458       __imp_sinf                 000000018006c458     ucrt:api-ms-win-crt-math-l1-1-0.dll
 0002:00000460       __imp_tanf                 000000018006c460     ucrt:api-ms-win-crt-math-l1-1-0.dll
 0002:00000468       __imp_coshf                000000018006c468     ucrt:api-ms-win-crt-math-l1-1-0.dll
 0002:00000470       __imp_sinhf                000000018006c470     ucrt:api-ms-win-crt-math-l1-1-0.dll
 0002:00000478       __imp_tanhf                000000018006c478     ucrt:api-ms-win-crt-math-l1-1-0.dll
 0002:00000480       __imp_expf                 000000018006c480     ucrt:api-ms-win-crt-math-l1-1-0.dll
 0002:00000488       __imp_lgammaf              000000018006c488     ucrt:api-ms-win-crt-math-l1-1-0.dll
 0002:00000490       __imp_log10f               000000018006c490     ucrt:api-ms-win-crt-math-l1-1-0.dll
 0002:00000498       __imp_modff                000000018006c498     ucrt:api-ms-win-crt-math-l1-1-0.dll
 0002:000004a0       __imp_powf                 000000018006c4a0     ucrt:api-ms-win-crt-math-l1-1-0.dll
 0002:000004a8       __imp_sqrtf                000000018006c4a8     ucrt:api-ms-win-crt-math-l1-1-0.dll
 0002:000004b0       __imp_ceilf                000000018006c4b0     ucrt:api-ms-win-crt-math-l1-1-0.dll
 0002:000004b8       __imp_floorf               000000018006c4b8     ucrt:api-ms-win-crt-math-l1-1-0.dll
 0002:000004c0       __imp_fmodf                000000018006c4c0     ucrt:api-ms-win-crt-math-l1-1-0.dll
 0002:000004c8       __imp__dsign               000000018006c4c8     ucrt:api-ms-win-crt-math-l1-1-0.dll
 0002:000004d0       __imp__ldsign              000000018006c4d0     ucrt:api-ms-win-crt-math-l1-1-0.dll
 0002:000004d8       __imp__fdsign              000000018006c4d8     ucrt:api-ms-win-crt-math-l1-1-0.dll
 0002:000004e0       __imp__hypotf              000000018006c4e0     ucrt:api-ms-win-crt-math-l1-1-0.dll
 0002:000004e8       __imp_fminf                000000018006c4e8     ucrt:api-ms-win-crt-math-l1-1-0.dll
 0002:000004f0       __imp_erfcf                000000018006c4f0     ucrt:api-ms-win-crt-math-l1-1-0.dll
 0002:000004f8       __imp_erff                 000000018006c4f8     ucrt:api-ms-win-crt-math-l1-1-0.dll
 0002:00000500       __imp_fabs                 000000018006c500     ucrt:api-ms-win-crt-math-l1-1-0.dll
 0002:00000508       __imp_exp2f                000000018006c508     ucrt:api-ms-win-crt-math-l1-1-0.dll
 0002:00000510       __imp_expm1f               000000018006c510     ucrt:api-ms-win-crt-math-l1-1-0.dll
 0002:00000518       __imp_remquof              000000018006c518     ucrt:api-ms-win-crt-math-l1-1-0.dll
 0002:00000520       __imp_remainderf           000000018006c520     ucrt:api-ms-win-crt-math-l1-1-0.dll
 0002:00000528       __imp_cbrtf                000000018006c528     ucrt:api-ms-win-crt-math-l1-1-0.dll
 0002:00000530       __imp_fdimf                000000018006c530     ucrt:api-ms-win-crt-math-l1-1-0.dll
 0002:00000538       __imp_truncf               000000018006c538     ucrt:api-ms-win-crt-math-l1-1-0.dll
 0002:00000540       __imp_fmaxf                000000018006c540     ucrt:api-ms-win-crt-math-l1-1-0.dll
 0002:00000548       __imp_nearbyintf           000000018006c548     ucrt:api-ms-win-crt-math-l1-1-0.dll
 0002:00000550       __imp_llrintf              000000018006c550     ucrt:api-ms-win-crt-math-l1-1-0.dll
 0002:00000558       __imp_lrintf               000000018006c558     ucrt:api-ms-win-crt-math-l1-1-0.dll
 0002:00000560       __imp_rintf                000000018006c560     ucrt:api-ms-win-crt-math-l1-1-0.dll
 0002:00000568       __imp_llroundf             000000018006c568     ucrt:api-ms-win-crt-math-l1-1-0.dll
 0002:00000570       __imp_lroundf              000000018006c570     ucrt:api-ms-win-crt-math-l1-1-0.dll
 0002:00000578       __imp_roundf               000000018006c578     ucrt:api-ms-win-crt-math-l1-1-0.dll
 0002:00000580       __imp_frexp                000000018006c580     ucrt:api-ms-win-crt-math-l1-1-0.dll
 0002:00000588       __imp_scalblnf             000000018006c588     ucrt:api-ms-win-crt-math-l1-1-0.dll
 0002:00000590       __imp_ilogbf               000000018006c590     ucrt:api-ms-win-crt-math-l1-1-0.dll
 0002:00000598       __imp_logbf                000000018006c598     ucrt:api-ms-win-crt-math-l1-1-0.dll
 0002:000005a0       __imp_ldexp                000000018006c5a0     ucrt:api-ms-win-crt-math-l1-1-0.dll
 0002:000005a8       __imp_atanhf               000000018006c5a8     ucrt:api-ms-win-crt-math-l1-1-0.dll
 0002:000005b0       __imp_asinhf               000000018006c5b0     ucrt:api-ms-win-crt-math-l1-1-0.dll
 0002:000005b8       __imp_acoshf               000000018006c5b8     ucrt:api-ms-win-crt-math-l1-1-0.dll
 0002:000005c0       __imp_log1pf               000000018006c5c0     ucrt:api-ms-win-crt-math-l1-1-0.dll
 0002:000005c8       __imp_log2f                000000018006c5c8     ucrt:api-ms-win-crt-math-l1-1-0.dll
 0002:000005d0       __imp_tgammaf              000000018006c5d0     ucrt:api-ms-win-crt-math-l1-1-0.dll
 0002:000005d8       __imp_logf                 000000018006c5d8     ucrt:api-ms-win-crt-math-l1-1-0.dll
 0002:000005e0       \177api-ms-win-crt-math-l1-1-0_NULL_THUNK_DATA 000000018006c5e0     ucrt:api-ms-win-crt-math-l1-1-0.dll
 0002:000005e8       __imp_exit                 000000018006c5e8     ucrt:api-ms-win-crt-runtime-l1-1-0.dll
 0002:000005f0       __imp__seh_filter_dll      000000018006c5f0     ucrt:api-ms-win-crt-runtime-l1-1-0.dll
 0002:000005f8       __imp__configure_narrow_argv 000000018006c5f8     ucrt:api-ms-win-crt-runtime-l1-1-0.dll
 0002:00000600       __imp__initialize_narrow_environment 000000018006c600     ucrt:api-ms-win-crt-runtime-l1-1-0.dll
 0002:00000608       __imp__initialize_onexit_table 000000018006c608     ucrt:api-ms-win-crt-runtime-l1-1-0.dll
 0002:00000610       __imp__register_onexit_function 000000018006c610     ucrt:api-ms-win-crt-runtime-l1-1-0.dll
 0002:00000618       __imp__execute_onexit_table 000000018006c618     ucrt:api-ms-win-crt-runtime-l1-1-0.dll
 0002:00000620       __imp__crt_atexit          000000018006c620     ucrt:api-ms-win-crt-runtime-l1-1-0.dll
 0002:00000628       __imp__crt_at_quick_exit   000000018006c628     ucrt:api-ms-win-crt-runtime-l1-1-0.dll
 0002:00000630       __imp__cexit               000000018006c630     ucrt:api-ms-win-crt-runtime-l1-1-0.dll
 0002:00000638       __imp__invalid_parameter_noinfo_noreturn 000000018006c638     ucrt:api-ms-win-crt-runtime-l1-1-0.dll
 0002:00000640       __imp__initterm            000000018006c640     ucrt:api-ms-win-crt-runtime-l1-1-0.dll
 0002:00000648       __imp__initterm_e          000000018006c648     ucrt:api-ms-win-crt-runtime-l1-1-0.dll
 0002:00000650       __imp_terminate            000000018006c650     ucrt:api-ms-win-crt-runtime-l1-1-0.dll
 0002:00000658       __imp__wassert             000000018006c658     ucrt:api-ms-win-crt-runtime-l1-1-0.dll
 0002:00000660       __imp__beginthreadex       000000018006c660     ucrt:api-ms-win-crt-runtime-l1-1-0.dll
 0002:00000668       \177api-ms-win-crt-runtime-l1-1-0_NULL_THUNK_DATA 000000018006c668     ucrt:api-ms-win-crt-runtime-l1-1-0.dll
 0002:00000670       __imp__get_osfhandle       000000018006c670     ucrt:api-ms-win-crt-stdio-l1-1-0.dll
 0002:00000678       __imp___stdio_common_vsprintf 000000018006c678     ucrt:api-ms-win-crt-stdio-l1-1-0.dll
 0002:00000680       __imp_fclose               000000018006c680     ucrt:api-ms-win-crt-stdio-l1-1-0.dll
 0002:00000688       __imp_ferror               000000018006c688     ucrt:api-ms-win-crt-stdio-l1-1-0.dll
 0002:00000690       __imp_fflush               000000018006c690     ucrt:api-ms-win-crt-stdio-l1-1-0.dll
 0002:00000698       __imp_feof                 000000018006c698     ucrt:api-ms-win-crt-stdio-l1-1-0.dll
 0002:000006a0       __imp_fgetc                000000018006c6a0     ucrt:api-ms-win-crt-stdio-l1-1-0.dll
 0002:000006a8       __imp__fileno              000000018006c6a8     ucrt:api-ms-win-crt-stdio-l1-1-0.dll
 0002:000006b0       __imp_fwrite               000000018006c6b0     ucrt:api-ms-win-crt-stdio-l1-1-0.dll
 0002:000006b8       __imp_ftell                000000018006c6b8     ucrt:api-ms-win-crt-stdio-l1-1-0.dll
 0002:000006c0       __imp_fseek                000000018006c6c0     ucrt:api-ms-win-crt-stdio-l1-1-0.dll
 0002:000006c8       __imp_fread                000000018006c6c8     ucrt:api-ms-win-crt-stdio-l1-1-0.dll
 0002:000006d0       __imp_fopen                000000018006c6d0     ucrt:api-ms-win-crt-stdio-l1-1-0.dll
 0002:000006d8       \177api-ms-win-crt-stdio-l1-1-0_NULL_THUNK_DATA 000000018006c6d8     ucrt:api-ms-win-crt-stdio-l1-1-0.dll
 0002:000006e0       __imp_strncmp              000000018006c6e0     ucrt:api-ms-win-crt-string-l1-1-0.dll
 0002:000006e8       __imp_strlen               000000018006c6e8     ucrt:api-ms-win-crt-string-l1-1-0.dll
 0002:000006f0       __imp__wcsnicmp            000000018006c6f0     ucrt:api-ms-win-crt-string-l1-1-0.dll
 0002:000006f8       __imp_isalpha              000000018006c6f8     ucrt:api-ms-win-crt-string-l1-1-0.dll
 0002:00000700       __imp_strncpy              000000018006c700     ucrt:api-ms-win-crt-string-l1-1-0.dll
 0002:00000708       __imp_strncat              000000018006c708     ucrt:api-ms-win-crt-string-l1-1-0.dll
 0002:00000710       __imp_isdigit              000000018006c710     ucrt:api-ms-win-crt-string-l1-1-0.dll
 0002:00000718       __imp_wcstok               000000018006c718     ucrt:api-ms-win-crt-string-l1-1-0.dll
 0002:00000720       __imp_strcmp               000000018006c720     ucrt:api-ms-win-crt-string-l1-1-0.dll
 0002:00000728       __imp_strcat               000000018006c728     ucrt:api-ms-win-crt-string-l1-1-0.dll
 0002:00000730       __imp__wcsicmp             000000018006c730     ucrt:api-ms-win-crt-string-l1-1-0.dll
 0002:00000738       \177api-ms-win-crt-string-l1-1-0_NULL_THUNK_DATA 000000018006c738     ucrt:api-ms-win-crt-string-l1-1-0.dll
 0002:00000740       __imp__time64              000000018006c740     ucrt:api-ms-win-crt-time-l1-1-0.dll
 0002:00000748       \177api-ms-win-crt-time-l1-1-0_NULL_THUNK_DATA 000000018006c748     ucrt:api-ms-win-crt-time-l1-1-0.dll
 0002:00000750       __imp_labs                 000000018006c750     ucrt:api-ms-win-crt-utility-l1-1-0.dll
 0002:00000758       __imp_llabs                000000018006c758     ucrt:api-ms-win-crt-utility-l1-1-0.dll
 0002:00000760       \177api-ms-win-crt-utility-l1-1-0_NULL_THUNK_DATA 000000018006c760     ucrt:api-ms-win-crt-utility-l1-1-0.dll
 0002:00000768       __imp_?setProposedWorkSpaceSize@MWTargetNetworkImpl@MWCudnnTarget@@QEAAX_K@Z 000000018006c768     cudnn_layers:cudnn_layers.dll
 0002:00000770       __imp_?setAutoTune@MWTargetNetworkImpl@MWCudnnTarget@@QEAAX_N@Z 000000018006c770     cudnn_layers:cudnn_layers.dll
 0002:00000778       __imp_??0MWTargetNetworkImpl@MWCudnnTarget@@QEAA@XZ 000000018006c778     cudnn_layers:cudnn_layers.dll
 0002:00000780       __imp_?postSetup@MWTargetNetworkImpl@MWCudnnTarget@@QEAAXQEAPEAVMWCNNLayer@@H@Z 000000018006c780     cudnn_layers:cudnn_layers.dll
 0002:00000788       __imp_?allocate@MWTargetNetworkImpl@MWCudnnTarget@@QEAAXHH@Z 000000018006c788     cudnn_layers:cudnn_layers.dll
 0002:00000790       \177cudnn_layers_NULL_THUNK_DATA 000000018006c790     cudnn_layers:cudnn_layers.dll
 0002:00000798       __imp_emlrtThinCUDAError   000000018006c798     libemlrt:libemlrt.dll
 0002:000007a0       __imp_emlrtInitGPU         000000018006c7a0     libemlrt:libemlrt.dll
 0002:000007a8       __imp_emlrtNameCaptureMxArrayR2016a 000000018006c7a8     libemlrt:libemlrt.dll
 0002:000007b0       __imp_emlrtLicenseCheckR2022a 000000018006c7b0     libemlrt:libemlrt.dll
 0002:000007b8       __imp_emlrtCUDAWarning     000000018006c7b8     libemlrt:libemlrt.dll
 0002:000007c0       \177libemlrt_NULL_THUNK_DATA 000000018006c7c0     libemlrt:libemlrt.dll
 0002:000007c8       __imp_mexCallMATLAB_800    000000018006c7c8     libmex:libmex.dll
 0002:000007d0       __imp_mexWarnMsgTxt_800    000000018006c7d0     libmex:libmex.dll
 0002:000007d8       __imp_mexErrMsgTxt_800     000000018006c7d8     libmex:libmex.dll
 0002:000007e0       __imp_mexMakeArrayPersistent_800 000000018006c7e0     libmex:libmex.dll
 0002:000007e8       __imp_mexUnlock_800        000000018006c7e8     libmex:libmex.dll
 0002:000007f0       __imp_mexIsLocked_800      000000018006c7f0     libmex:libmex.dll
 0002:000007f8       __imp_mexLock_800          000000018006c7f8     libmex:libmex.dll
 0002:00000800       \177libmex_NULL_THUNK_DATA 000000018006c800     libmex:libmex.dll
 0002:00000808       __imp_mxSetCell_800        000000018006c808     libmx:libmx.dll
 0002:00000810       __imp_mxCreateString_800   000000018006c810     libmx:libmx.dll
 0002:00000818       __imp_mxCreateDoubleScalar_800 000000018006c818     libmx:libmx.dll
 0002:00000820       __imp_mxGetN_800           000000018006c820     libmx:libmx.dll
 0002:00000828       __imp_mxCreateCellMatrix_800 000000018006c828     libmx:libmx.dll
 0002:00000830       __imp_mxCreateStructMatrix_800 000000018006c830     libmx:libmx.dll
 0002:00000838       __imp_mxGetClassID_800     000000018006c838     libmx:libmx.dll
 0002:00000840       __imp_mxGetM_800           000000018006c840     libmx:libmx.dll
 0002:00000848       __imp_mxCalloc_800         000000018006c848     libmx:libmx.dll
 0002:00000850       __imp_mxDuplicateArray_800 000000018006c850     libmx:libmx.dll
 0002:00000858       __imp_mxGetString_800      000000018006c858     libmx:libmx.dll
 0002:00000860       __imp_mxCreateDoubleMatrix_800 000000018006c860     libmx:libmx.dll
 0002:00000868       __imp_mxDestroyArray_800   000000018006c868     libmx:libmx.dll
 0002:00000870       __imp_mxGetPr_800          000000018006c870     libmx:libmx.dll
 0002:00000878       __imp_mxGetScalar_800      000000018006c878     libmx:libmx.dll
 0002:00000880       __imp_mxIsChar_800         000000018006c880     libmx:libmx.dll
 0002:00000888       __imp_mxSetField_800       000000018006c888     libmx:libmx.dll
 0002:00000890       __imp_mxIsNumeric_800      000000018006c890     libmx:libmx.dll
 0002:00000898       __imp_mxIsComplex_800      000000018006c898     libmx:libmx.dll
 0002:000008a0       \177libmx_NULL_THUNK_DATA  000000018006c8a0     libmx:libmx.dll
 0002:000008a8       __imp_utFree               000000018006c8a8     libut:libut.dll
 0002:000008b0       __imp_utMalloc             000000018006c8b0     libut:libut.dll
 0002:000008b8       \177libut_NULL_THUNK_DATA  000000018006c8b8     libut:libut.dll
 0002:000008c0       __imp_sf_mex_getcell       000000018006c8c0     sf_runtime:sf_runtime.dll
 0002:000008c8       __imp_sf_mex_setcell       000000018006c8c8     sf_runtime:sf_runtime.dll
 0002:000008d0       __imp_sf_mex_createcellmatrix 000000018006c8d0     sf_runtime:sf_runtime.dll
 0002:000008d8       __imp_sf_mex_create        000000018006c8d8     sf_runtime:sf_runtime.dll
 0002:000008e0       __imp_sf_mex_error_message 000000018006c8e0     sf_runtime:sf_runtime.dll
 0002:000008e8       __imp_supportsLegacyBehaviorForPersistentVarInContinuousTime 000000018006c8e8     sf_runtime:sf_runtime.dll
 0002:000008f0       __imp_sf_error_out_about_continuous_sample_time_with_persistent_vars 000000018006c8f0     sf_runtime:sf_runtime.dll
 0002:000008f8       __imp_sf_set_work_widths   000000018006c8f8     sf_runtime:sf_runtime.dll
 0002:00000900       __imp_sf_warn_if_symbolic_dimension_param_changed 000000018006c900     sf_runtime:sf_runtime.dll
 0002:00000908       __imp_setDebuggerFlag      000000018006c908     sf_runtime:sf_runtime.dll
 0002:00000910       __imp_sfDoAnimationWrapper 000000018006c910     sf_runtime:sf_runtime.dll
 0002:00000918       __imp_sf_get_time          000000018006c918     sf_runtime:sf_runtime.dll
 0002:00000920       __imp_sf_clear_rtw_identifier 000000018006c920     sf_runtime:sf_runtime.dll
 0002:00000928       __imp_sim_mode_is_external 000000018006c928     sf_runtime:sf_runtime.dll
 0002:00000930       __imp_sf_get_chart_instance_ptr 000000018006c930     sf_runtime:sf_runtime.dll
 0002:00000938       __imp_sfrtGetEmlrtCtx      000000018006c938     sf_runtime:sf_runtime.dll
 0002:00000940       __imp_sf_free_ChartRunTimeInfo 000000018006c940     sf_runtime:sf_runtime.dll
 0002:00000948       __imp_sf_init_ChartRunTimeInfo 000000018006c948     sf_runtime:sf_runtime.dll
 0002:00000950       __imp_sf_clear_error_manager_info 000000018006c950     sf_runtime:sf_runtime.dll
 0002:00000958       __imp_sf_mex_error_direct_call 000000018006c958     sf_runtime:sf_runtime.dll
 0002:00000960       __imp_getRuntimeInstanceInfoAsVoid 000000018006c960     sf_runtime:sf_runtime.dll
 0002:00000968       __imp_call_sf_machine_global_method_dispatcher 000000018006c968     sf_runtime:sf_runtime.dll
 0002:00000970       __imp_sim_mode_is_rtw_gen  000000018006c970     sf_runtime:sf_runtime.dll
 0002:00000978       __imp_callMdlMethodAndReportError 000000018006c978     sf_runtime:sf_runtime.dll
 0002:00000980       __imp_sf_get_hasSeparateUpdateOutputs 000000018006c980     sf_runtime:sf_runtime.dll
 0002:00000988       __imp_sf_get_ChartInfoStruct_CodeGen 000000018006c988     sf_runtime:sf_runtime.dll
 0002:00000990       __imp_sf_mex_decode        000000018006c990     sf_runtime:sf_runtime.dll
 0002:00000998       __imp_sf_load_rtw_optimization_info 000000018006c998     sf_runtime:sf_runtime.dll
 0002:000009a0       __imp_sf_mex_assign        000000018006c9a0     sf_runtime:sf_runtime.dll
 0002:000009a8       __imp_sf_mex_dup           000000018006c9a8     sf_runtime:sf_runtime.dll
 0002:000009b0       __imp_sf_mex_import        000000018006c9b0     sf_runtime:sf_runtime.dll
 0002:000009b8       __imp_ssGetInputPortSignal_wrapper 000000018006c9b8     sf_runtime:sf_runtime.dll
 0002:000009c0       __imp_sf_mex_destroy       000000018006c9c0     sf_runtime:sf_runtime.dll
 0002:000009c8       __imp_ssGetOutputPortSignal_wrapper 000000018006c9c8     sf_runtime:sf_runtime.dll
 0002:000009d0       \177sf_runtime_NULL_THUNK_DATA 000000018006c9d0     sf_runtime:sf_runtime.dll
 0002:000009d8       __imp_??$createReLULayer@MM@MWReLULayer@@QEAAXPEAVMWTargetNetworkImplBase@@PEAVMWTensorBase@@HPEBDH2H@Z 000000018006c9d8     shared_layers:shared_layers.dll
 0002:000009e0       __imp_?propagateSize@MWOutputLayer@@UEAAXXZ 000000018006c9e0     shared_layers:shared_layers.dll
 0002:000009e8       __imp_?predict@MWOutputLayer@@UEAAXXZ 000000018006c9e8     shared_layers:shared_layers.dll
 0002:000009f0       __imp_?createOutputLayer@MWOutputLayer@@QEAAXPEAVMWTargetNetworkImplBase@@PEAVMWTensorBase@@PEBDH@Z 000000018006c9f0     shared_layers:shared_layers.dll
 0002:000009f8       __imp_?updateState@MWRNNLayer@@QEAAXXZ 000000018006c9f8     shared_layers:shared_layers.dll
 0002:00000a00       __imp_?resetState@MWRNNLayer@@QEAAXXZ 000000018006ca00     shared_layers:shared_layers.dll
 0002:00000a08       __imp_?propagateSize@MWRNNLayer@@UEAAXXZ 000000018006ca08     shared_layers:shared_layers.dll
 0002:00000a10       __imp_?createRNNLayer@MWRNNLayer@@QEAAXPEAVMWTargetNetworkImplBase@@PEAVMWTensorBase@@HH_N2HHHPEBD3H33333H@Z 000000018006ca10     shared_layers:shared_layers.dll
 0002:00000a18       __imp_?propagateSize@MWReLULayer@@UEAAXXZ 000000018006ca18     shared_layers:shared_layers.dll
 0002:00000a20       __imp_?propagateSize@MWFCLayer@@UEAAXXZ 000000018006ca20     shared_layers:shared_layers.dll
 0002:00000a28       __imp_?createFCLayer@MWFCLayer@@QEAAXPEAVMWTargetNetworkImplBase@@PEAVMWTensorBase@@HHPEBD22H@Z 000000018006ca28     shared_layers:shared_layers.dll
 0002:00000a30       __imp_?createElementwiseAffineLayer@MWElementwiseAffineLayer@@QEAAXPEAVMWTargetNetworkImplBase@@PEAVMWTensorBase@@HHHHHH_NHHPEBD33H@Z 000000018006ca30     shared_layers:shared_layers.dll
 0002:00000a38       __imp_??0MWCNNLayer@@QEAA@XZ 000000018006ca38     shared_layers:shared_layers.dll
 0002:00000a40       __imp_?propagateSize@MWSequenceInputLayer@@UEAAXXZ 000000018006ca40     shared_layers:shared_layers.dll
 0002:00000a48       __imp_?createSequenceInputLayer@MWSequenceInputLayer@@QEAAXPEAVMWTargetNetworkImplBase@@PEAVMWTensorBase@@_NPEBDH@Z 000000018006ca48     shared_layers:shared_layers.dll
 0002:00000a50       __imp_?setName@MWCNNLayer@@QEAAXAEBV?$basic_string@DU?$char_traits@D@std@@V?$allocator@D@2@@std@@@Z 000000018006ca50     shared_layers:shared_layers.dll
 0002:00000a58       __imp_?getOutputTensor@MWCNNLayer@@QEAAPEAVMWTensorBase@@_K@Z 000000018006ca58     shared_layers:shared_layers.dll
 0002:00000a60       __imp_?getLayerOutput@MWCNNLayer@@QEAAPEAMH@Z 000000018006ca60     shared_layers:shared_layers.dll
 0002:00000a68       __imp_?deallocate@MWCNNLayer@@QEAAXXZ 000000018006ca68     shared_layers:shared_layers.dll
 0002:00000a70       __imp_??0MWElementwiseAffineLayer@@QEAA@XZ 000000018006ca70     shared_layers:shared_layers.dll
 0002:00000a78       __imp_?allocate@MWCNNLayer@@UEAAXXZ 000000018006ca78     shared_layers:shared_layers.dll
 0002:00000a80       __imp_?cleanup@MWCNNLayer@@UEAAXXZ 000000018006ca80     shared_layers:shared_layers.dll
 0002:00000a88       __imp_?predict@MWCNNLayer@@UEAAXXZ 000000018006ca88     shared_layers:shared_layers.dll
 0002:00000a90       __imp_??1MWCNNLayer@@UEAA@XZ 000000018006ca90     shared_layers:shared_layers.dll
 0002:00000a98       \177shared_layers_NULL_THUNK_DATA 000000018006ca98     shared_layers:shared_layers.dll
 0002:00000aa0       __guard_check_icall_fptr   000000018006caa0     MSVCRT:guard_support.obj
 0002:00000aa8       __guard_xfg_check_icall_fptr 000000018006caa8     MSVCRT:guard_support.obj
 0002:00000ab0       __guard_dispatch_icall_fptr 000000018006cab0     MSVCRT:guard_support.obj
 0002:00000ab8       __guard_xfg_dispatch_icall_fptr 000000018006cab8     MSVCRT:guard_support.obj
 0002:00000ac0       __guard_xfg_table_dispatch_icall_fptr 000000018006cac0     MSVCRT:guard_support.obj
 0002:00000ac8       __xc_a                     000000018006cac8     MSVCRT:initializers.obj
 0002:00000b60       __xc_z                     000000018006cb60     MSVCRT:initializers.obj
 0002:00000b68       __xi_a                     000000018006cb68     MSVCRT:initializers.obj
 0002:00000b70       __xi_z                     000000018006cb70     MSVCRT:initializers.obj
 0002:00000b78       __xl_a                     000000018006cb78     MSVCRT:tlssup.obj
 0002:00000b80       __xl_z                     000000018006cb80     MSVCRT:tlssup.obj
 0002:00000b88       __xp_a                     000000018006cb88     MSVCRT:initializers.obj
 0002:00000b90       __xp_z                     000000018006cb90     MSVCRT:initializers.obj
 0002:00000b98       __xt_a                     000000018006cb98     MSVCRT:initializers.obj
 0002:00000ba0       __xt_z                     000000018006cba0     MSVCRT:initializers.obj
 0002:00000d30       __real@4184adf768000000    000000018006cd30     ex_sdl_flexible_shaft_lstm_sfun.obj
 0002:00000d38       __real@41b501b493000000    000000018006cd38     ex_sdl_flexible_shaft_lstm_sfun.obj
 0002:00000d40       __real@41c807790b800000    000000018006cd40     ex_sdl_flexible_shaft_lstm_sfun.obj
 0002:00000d48       __real@41d8e16498c00000    000000018006cd48     ex_sdl_flexible_shaft_lstm_sfun.obj
 0002:00000d50       __real@41dca278d6c00000    000000018006cd50     ex_sdl_flexible_shaft_lstm_sfun.obj
 0002:00000d58       __real@41e20b3814c00000    000000018006cd58     ex_sdl_flexible_shaft_lstm_sfun.obj
 0002:00000d60       __real@41e49a1d9ba00000    000000018006cd60     ex_sdl_flexible_shaft_lstm_sfun.obj
 0002:00000d68       __real@41e786e97aa00000    000000018006cd68     ex_sdl_flexible_shaft_lstm_sfun.obj
 0002:00000d70       __real@41e8f63847000000    000000018006cd70     ex_sdl_flexible_shaft_lstm_sfun.obj
 0002:00000d78       __real@41ece7cabb200000    000000018006cd78     ex_sdl_flexible_shaft_lstm_sfun.obj
 0002:00000d80       __real@41ee599ef9a00000    000000018006cd80     ex_sdl_flexible_shaft_lstm_sfun.obj
 0002:00000d88       __real@41eeb4f9dbc00000    000000018006cd88     ex_sdl_flexible_shaft_lstm_sfun.obj
 0002:000032d8       __real@0000000000000000    000000018006f2d8     ex_sdl_flexible_shaft_lstm_sfun_registry.obj
 0002:000032e0       __real@4010000000000000    000000018006f2e0     ex_sdl_flexible_shaft_lstm_sfun_registry.obj
 0002:000032e8       __real@41602cbca0000000    000000018006f2e8     ex_sdl_flexible_shaft_lstm_sfun_registry.obj
 0002:000032f0       __real@bff0000000000000    000000018006f2f0     ex_sdl_flexible_shaft_lstm_sfun_registry.obj
 0002:00006870       ??_7exception@std@@6B@     0000000180072870     c2_ex_sdl_flexible_shaft_lstm.obj
 0002:00006880       ??_C@_0BC@EOODALEL@Unknown?5exception@ 0000000180072880     c2_ex_sdl_flexible_shaft_lstm.obj
 0002:000068a0       ??_7bad_alloc@std@@6B@     00000001800728a0     c2_ex_sdl_flexible_shaft_lstm.obj
 0002:000068b8       ??_7bad_array_new_length@std@@6B@ 00000001800728b8     c2_ex_sdl_flexible_shaft_lstm.obj
 0002:000068c8       ??_C@_0BF@KINCDENJ@bad?5array?5new?5length@ 00000001800728c8     c2_ex_sdl_flexible_shaft_lstm.obj
 0002:000068e0       ??_C@_0BA@JFNIOLAK@string?5too?5long@ 00000001800728e0     c2_ex_sdl_flexible_shaft_lstm.obj
 0002:000068f8       ??_7MWTensorBase@@6B@      00000001800728f8     c2_ex_sdl_flexible_shaft_lstm.obj
 0002:00006910       ??_C@_00CNPNBAHC@@         0000000180072910     c2_ex_sdl_flexible_shaft_lstm.obj
 0002:00006918       ??_C@_0BB@GCADKGJO@map?1set?5too?5long@ 0000000180072918     c2_ex_sdl_flexible_shaft_lstm.obj
 0002:00006930       ??_C@_1BDE@FMAKJLLK@?$AAC?$AA?3?$AA?2?$AAP?$AAr?$AAo?$AAg?$AAr?$AAa?$AAm?$AA?5?$AAF?$AAi?$AAl?$AAe@ 0000000180072930     c2_ex_sdl_flexible_shaft_lstm.obj
 0002:00006a68       ??_C@_1DM@NNECBPBL@?$AAi?$AAt?$AA?5?$AA?$DN?$AA?$DN?$AA?5?$AAm?$AA_?$AAi?$AAn?$AAP?$AAl?$AAa?$AAc?$AAe@ 0000000180072a68     c2_ex_sdl_flexible_shaft_lstm.obj
 0002:00006ab0       ??_7MWSequenceInputLayer@@6B@ 0000000180072ab0     c2_ex_sdl_flexible_shaft_lstm.obj
 0002:00006ae8       ??_7MWFCLayer@@6B@         0000000180072ae8     c2_ex_sdl_flexible_shaft_lstm.obj
 0002:00006b20       ??_7MWReLULayer@@6B@       0000000180072b20     c2_ex_sdl_flexible_shaft_lstm.obj
 0002:00006b58       ??_7MWRNNLayer@@6B@        0000000180072b58     c2_ex_sdl_flexible_shaft_lstm.obj
 0002:00006b90       ??_7MWOutputLayer@@6B@     0000000180072b90     c2_ex_sdl_flexible_shaft_lstm.obj
 0002:00006bc8       ??_7?$MWTensor@M@@6B@      0000000180072bc8     c2_ex_sdl_flexible_shaft_lstm.obj
 0002:00006be0       __real@419246aee8000000    0000000180072be0     c2_ex_sdl_flexible_shaft_lstm.obj
 0002:00006be8       __real@41c1279cdb800000    0000000180072be8     c2_ex_sdl_flexible_shaft_lstm.obj
 0002:00006bf0       __real@41d275480b000000    0000000180072bf0     c2_ex_sdl_flexible_shaft_lstm.obj
 0002:00006bf8       __real@41e8e828efc00000    0000000180072bf8     c2_ex_sdl_flexible_shaft_lstm.obj
 0002:00006c00       __real@3f800000            0000000180072c00     half_type.obj
 0002:00006c04       __real@77800000            0000000180072c04     half_type.obj
 0002:00006c08       ??_C@_0BI@IHNDNKAP@unrecognized?5error?5code?$AA@ 0000000180072c08     cudart_static:cuda_runtime_api.obj
 0002:00006c20       ??_C@_0BB@LDJPDCNC@__cudaInitModule?$AA@ 0000000180072c20     cudart_static:cuda_runtime_api.obj
 0002:00006c38       ??_C@_0BA@ICMILBFE@cudaDeviceReset?$AA@ 0000000180072c38     cudart_static:generated_cuda_runtime_api.obj
 0002:00006c48       ??_C@_0BG@PNHCFANL@cudaDeviceSynchronize?$AA@ 0000000180072c48     cudart_static:generated_cuda_runtime_api.obj
 0002:00006c60       ??_C@_0BD@KMMCBNBG@cudaDeviceSetLimit?$AA@ 0000000180072c60     cudart_static:generated_cuda_runtime_api.obj
 0002:00006c78       ??_C@_0BD@FNOOAOGL@cudaDeviceGetLimit?$AA@ 0000000180072c78     cudart_static:generated_cuda_runtime_api.obj
 0002:00006c90       ??_C@_0CF@EHMDOJKP@cudaDeviceGetTexture1DLinearMaxW@ 0000000180072c90     cudart_static:generated_cuda_runtime_api.obj
 0002:00006cb8       ??_C@_0BJ@CHIHBPDG@cudaDeviceGetCacheConfig?$AA@ 0000000180072cb8     cudart_static:generated_cuda_runtime_api.obj
 0002:00006cd8       ??_C@_0CB@EPCKKHFN@cudaDeviceGetStreamPriorityRange@ 0000000180072cd8     cudart_static:generated_cuda_runtime_api.obj
 0002:00006d00       ??_C@_0BJ@OJJJOFBK@cudaDeviceSetCacheConfig?$AA@ 0000000180072d00     cudart_static:generated_cuda_runtime_api.obj
 0002:00006d20       ??_C@_0BN@FMKJGMG@cudaDeviceGetSharedMemConfig?$AA@ 0000000180072d20     cudart_static:generated_cuda_runtime_api.obj
 0002:00006d40       ??_C@_0BN@PPOAKACO@cudaDeviceSetSharedMemConfig?$AA@ 0000000180072d40     cudart_static:generated_cuda_runtime_api.obj
 0002:00006d60       ??_C@_0BI@NNACALPN@cudaDeviceGetByPCIBusId?$AA@ 0000000180072d60     cudart_static:generated_cuda_runtime_api.obj
 0002:00006d78       ??_C@_0BG@NDFINPMC@cudaDeviceGetPCIBusId?$AA@ 0000000180072d78     cudart_static:generated_cuda_runtime_api.obj
 0002:00006d90       ??_C@_0BG@LADADCG@cudaIpcGetEventHandle?$AA@ 0000000180072d90     cudart_static:generated_cuda_runtime_api.obj
 0002:00006da8       ??_C@_0BH@NBJHIJE@cudaIpcOpenEventHandle?$AA@ 0000000180072da8     cudart_static:generated_cuda_runtime_api.obj
 0002:00006dc0       ??_C@_0BE@FMOBENHM@cudaIpcGetMemHandle?$AA@ 0000000180072dc0     cudart_static:generated_cuda_runtime_api.obj
 0002:00006dd8       ??_C@_0BF@COLFEIFH@cudaIpcOpenMemHandle?$AA@ 0000000180072dd8     cudart_static:generated_cuda_runtime_api.obj
 0002:00006df0       ??_C@_0BG@NMMEGKL@cudaIpcCloseMemHandle?$AA@ 0000000180072df0     cudart_static:generated_cuda_runtime_api.obj
 0002:00006e08       ??_C@_0P@KIHOCIKB@cudaThreadExit?$AA@ 0000000180072e08     cudart_static:generated_cuda_runtime_api.obj
 0002:00006e18       ??_C@_0BG@GMFDFHJK@cudaThreadSynchronize?$AA@ 0000000180072e18     cudart_static:generated_cuda_runtime_api.obj
 0002:00006e30       ??_C@_0BD@CNEHAHOK@cudaThreadSetLimit?$AA@ 0000000180072e30     cudart_static:generated_cuda_runtime_api.obj
 0002:00006e48       ??_C@_0BD@NMGLBEJH@cudaThreadGetLimit?$AA@ 0000000180072e48     cudart_static:generated_cuda_runtime_api.obj
 0002:00006e60       ??_C@_0BJ@FFPHHOMJ@cudaThreadGetCacheConfig?$AA@ 0000000180072e60     cudart_static:generated_cuda_runtime_api.obj
 0002:00006e80       ??_C@_0BJ@JLOJIEOF@cudaThreadSetCacheConfig?$AA@ 0000000180072e80     cudart_static:generated_cuda_runtime_api.obj
 0002:00006ea0       ??_C@_0BB@OCGBEIAO@cudaGetLastError?$AA@ 0000000180072ea0     cudart_static:generated_cuda_runtime_api.obj
 0002:00006eb8       ??_C@_0BE@CFCPNMOF@cudaPeekAtLastError?$AA@ 0000000180072eb8     cudart_static:generated_cuda_runtime_api.obj
 0002:00006ed0       ??_C@_0BB@BLEPBPMB@cudaGetErrorName?$AA@ 0000000180072ed0     cudart_static:generated_cuda_runtime_api.obj
 0002:00006ee8       ??_C@_0BD@MKGIDKDC@cudaGetErrorString?$AA@ 0000000180072ee8     cudart_static:generated_cuda_runtime_api.obj
 0002:00006f00       ??_C@_0BD@CNHMBCKL@cudaGetDeviceCount?$AA@ 0000000180072f00     cudart_static:generated_cuda_runtime_api.obj
 0002:00006f18       ??_C@_0BI@LCIMFPOE@cudaGetDeviceProperties?$AA@ 0000000180072f18     cudart_static:generated_cuda_runtime_api.obj
 0002:00006f30       ??_C@_0BH@NGOLFICJ@cudaDeviceGetAttribute?$AA@ 0000000180072f30     cudart_static:generated_cuda_runtime_api.obj
 0002:00006f48       ??_C@_0BM@IFHJNOOK@cudaDeviceGetDefaultMemPool?$AA@ 0000000180072f48     cudart_static:generated_cuda_runtime_api.obj
 0002:00006f68       ??_C@_0BF@NFHOLNPJ@cudaDeviceSetMemPool?$AA@ 0000000180072f68     cudart_static:generated_cuda_runtime_api.obj
 0002:00006f80       ??_C@_0BF@MLFBAKLA@cudaDeviceGetMemPool?$AA@ 0000000180072f80     cudart_static:generated_cuda_runtime_api.obj
 0002:00006f98       ??_C@_0CB@BJDOOHJK@cudaDeviceGetNvSciSyncAttributes@ 0000000180072f98     cudart_static:generated_cuda_runtime_api.obj
 0002:00006fc0       ??_C@_0BK@EJGPFIKF@cudaDeviceGetP2PAttribute?$AA@ 0000000180072fc0     cudart_static:generated_cuda_runtime_api.obj
 0002:00006fe0       ??_C@_0BB@HMOGCBLJ@cudaChooseDevice?$AA@ 0000000180072fe0     cudart_static:generated_cuda_runtime_api.obj
 0002:00006ff8       ??_C@_0O@CFDKBDOG@cudaSetDevice?$AA@ 0000000180072ff8     cudart_static:generated_cuda_runtime_api.obj
 0002:00007008       ??_C@_0O@LHPDCHE@cudaGetDevice?$AA@ 0000000180073008     cudart_static:generated_cuda_runtime_api.obj
 0002:00007018       ??_C@_0BE@HPLONBBC@cudaSetValidDevices?$AA@ 0000000180073018     cudart_static:generated_cuda_runtime_api.obj
 0002:00007030       ??_C@_0BD@GLOEGOGE@cudaSetDeviceFlags?$AA@ 0000000180073030     cudart_static:generated_cuda_runtime_api.obj
 0002:00007048       ??_C@_0BD@KFPKJEEI@cudaGetDeviceFlags?$AA@ 0000000180073048     cudart_static:generated_cuda_runtime_api.obj
 0002:00007060       ??_C@_0BB@MCIJDDLM@cudaStreamCreate?$AA@ 0000000180073060     cudart_static:generated_cuda_runtime_api.obj
 0002:00007078       ??_C@_0BK@JACEFEGE@cudaStreamCreateWithFlags?$AA@ 0000000180073078     cudart_static:generated_cuda_runtime_api.obj
 0002:00007098       ??_C@_0BN@BCBGFIAP@cudaStreamCreateWithPriority?$AA@ 0000000180073098     cudart_static:generated_cuda_runtime_api.obj
 0002:000070b8       ??_C@_0BL@GBHDDFIL@cudaStreamGetPriority_ptsz?$AA@ 00000001800730b8     cudart_static:generated_cuda_runtime_api.obj
 0002:000070d8       ??_C@_0BI@OAEAGJLA@cudaStreamGetFlags_ptsz?$AA@ 00000001800730d8     cudart_static:generated_cuda_runtime_api.obj
 0002:000070f0       ??_C@_0BO@CJOEIAAA@cudaCtxResetPersistingL2Cache?$AA@ 00000001800730f0     cudart_static:generated_cuda_runtime_api.obj
 0002:00007110       ??_C@_0BO@EIONMCAE@cudaStreamCopyAttributes_ptsz?$AA@ 0000000180073110     cudart_static:generated_cuda_runtime_api.obj
 0002:00007130       ??_C@_0BM@KPDKMMKF@cudaStreamGetAttribute_ptsz?$AA@ 0000000180073130     cudart_static:generated_cuda_runtime_api.obj
 0002:00007150       ??_C@_0BM@IKDBEHLL@cudaStreamSetAttribute_ptsz?$AA@ 0000000180073150     cudart_static:generated_cuda_runtime_api.obj
 0002:00007170       ??_C@_0BC@MBCHDMAM@cudaStreamDestroy?$AA@ 0000000180073170     cudart_static:generated_cuda_runtime_api.obj
 0002:00007188       ??_C@_0BJ@OFILEEDO@cudaStreamWaitEvent_ptsz?$AA@ 0000000180073188     cudart_static:generated_cuda_runtime_api.obj
 0002:000071a8       ??_C@_0BL@CEFLNIMK@cudaStreamAddCallback_ptsz?$AA@ 00000001800731a8     cudart_static:generated_cuda_runtime_api.obj
 0002:000071c8       ??_C@_0BL@MLEBOJLJ@cudaStreamSynchronize_ptsz?$AA@ 00000001800731c8     cudart_static:generated_cuda_runtime_api.obj
 0002:000071e8       ??_C@_0BF@FCAOKPLE@cudaStreamQuery_ptsz?$AA@ 00000001800731e8     cudart_static:generated_cuda_runtime_api.obj
 0002:00007200       ??_C@_0BO@EGBOKDKJ@cudaStreamAttachMemAsync_ptsz?$AA@ 0000000180073200     cudart_static:generated_cuda_runtime_api.obj
 0002:00007220       ??_C@_0BM@EPAOOFNN@cudaStreamBeginCapture_ptsz?$AA@ 0000000180073220     cudart_static:generated_cuda_runtime_api.obj
 0002:00007240       ??_C@_0CE@HHKEDIC@cudaThreadExchangeStreamCaptureM@ 0000000180073240     cudart_static:generated_cuda_runtime_api.obj
 0002:00007268       ??_C@_0BK@KCNALJOP@cudaStreamEndCapture_ptsz?$AA@ 0000000180073268     cudart_static:generated_cuda_runtime_api.obj
 0002:00007288       ??_C@_0BL@JALGJOAI@cudaStreamIsCapturing_ptsz?$AA@ 0000000180073288     cudart_static:generated_cuda_runtime_api.obj
 0002:000072a8       ??_C@_0BO@KKDCIOMG@cudaStreamGetCaptureInfo_ptsz?$AA@ 00000001800732a8     cudart_static:generated_cuda_runtime_api.obj
 0002:000072c8       ??_C@_0BA@OPBDEMDC@cudaEventCreate?$AA@ 00000001800732c8     cudart_static:generated_cuda_runtime_api.obj
 0002:000072d8       ??_C@_0BJ@LLEJDDBP@cudaEventCreateWithFlags?$AA@ 00000001800732d8     cudart_static:generated_cuda_runtime_api.obj
 0002:000072f8       ??_C@_0BF@BLCBANAH@cudaEventRecord_ptsz?$AA@ 00000001800732f8     cudart_static:generated_cuda_runtime_api.obj
 0002:00007310       ??_C@_0BO@EDHFBPLE@cudaEventRecordWithFlags_ptsz?$AA@ 0000000180073310     cudart_static:generated_cuda_runtime_api.obj
 0002:00007330       ??_C@_0P@KMHEJBHA@cudaEventQuery?$AA@ 0000000180073330     cudart_static:generated_cuda_runtime_api.obj
 0002:00007340       ??_C@_0BF@GFIFHPMK@cudaEventSynchronize?$AA@ 0000000180073340     cudart_static:generated_cuda_runtime_api.obj
 0002:00007358       ??_C@_0BB@MLAKAIFE@cudaEventDestroy?$AA@ 0000000180073358     cudart_static:generated_cuda_runtime_api.obj
 0002:00007370       ??_C@_0BF@CGNABAEK@cudaEventElapsedTime?$AA@ 0000000180073370     cudart_static:generated_cuda_runtime_api.obj
 0002:00007388       ??_C@_0BJ@KJGPBEOL@cudaImportExternalMemory?$AA@ 0000000180073388     cudart_static:generated_cuda_runtime_api.obj
 0002:000073a8       ??_C@_0CC@HIHDKFCB@cudaExternalMemoryGetMappedBuffe@ 00000001800733a8     cudart_static:generated_cuda_runtime_api.obj
 0002:000073d0       ??_C@_0CK@ILFBDOCP@cudaExternalMemoryGetMappedMipma@ 00000001800733d0     cudart_static:generated_cuda_runtime_api.obj
 0002:00007400       ??_C@_0BK@KCJHMPNK@cudaDestroyExternalMemory?$AA@ 0000000180073400     cudart_static:generated_cuda_runtime_api.obj
 0002:00007420       ??_C@_0BM@DLOIFMC@cudaImportExternalSemaphore?$AA@ 0000000180073420     cudart_static:generated_cuda_runtime_api.obj
 0002:00007440       ??_C@_0CK@GPGNLNEH@cudaSignalExternalSemaphoresAsyn@ 0000000180073440     cudart_static:generated_cuda_runtime_api.obj
 0002:00007470       ??_C@_0CI@NBIHCDF@cudaWaitExternalSemaphoresAsync_@ 0000000180073470     cudart_static:generated_cuda_runtime_api.obj
 0002:00007498       ??_C@_0BN@PHLNGMJE@cudaDestroyExternalSemaphore?$AA@ 0000000180073498     cudart_static:generated_cuda_runtime_api.obj
 0002:000074b8       ??_C@_0BG@BJFNCPOO@cudaLaunchKernel_ptsz?$AA@ 00000001800734b8     cudart_static:generated_cuda_runtime_api.obj
 0002:000074d0       ??_C@_0CB@CDMOKJEK@cudaLaunchCooperativeKernel_ptsz@ 00000001800734d0     cudart_static:generated_cuda_runtime_api.obj
 0002:000074f8       ??_C@_0CH@MGOPHIKD@cudaLaunchCooperativeKernelMulti@ 00000001800734f8     cudart_static:generated_cuda_runtime_api.obj
 0002:00007520       ??_C@_0BH@BPCDABLJ@cudaFuncSetCacheConfig?$AA@ 0000000180073520     cudart_static:generated_cuda_runtime_api.obj
 0002:00007538       ??_C@_0BL@EECBHPKC@cudaFuncSetSharedMemConfig?$AA@ 0000000180073538     cudart_static:generated_cuda_runtime_api.obj
 0002:00007558       ??_C@_0BG@EFLEKBNE@cudaFuncGetAttributes?$AA@ 0000000180073558     cudart_static:generated_cuda_runtime_api.obj
 0002:00007570       ??_C@_0BF@NGEPENOH@cudaFuncSetAttribute?$AA@ 0000000180073570     cudart_static:generated_cuda_runtime_api.obj
 0002:00007588       ??_C@_0BH@BKIIPPKO@cudaSetDoubleForDevice?$AA@ 0000000180073588     cudart_static:generated_cuda_runtime_api.obj
 0002:000075a0       ??_C@_0BF@MEGALBKG@cudaSetDoubleForHost?$AA@ 00000001800735a0     cudart_static:generated_cuda_runtime_api.obj
 0002:000075b8       ??_C@_0BI@IMFEPJB@cudaLaunchHostFunc_ptsz?$AA@ 00000001800735b8     cudart_static:generated_cuda_runtime_api.obj
 0002:000075d0       ??_C@_0CO@LBKPMKIC@cudaOccupancyMaxActiveBlocksPerM@ 00000001800735d0     cudart_static:generated_cuda_runtime_api.obj
 0002:00007600       ??_C@_0CK@IFHKONAC@cudaOccupancyAvailableDynamicSMe@ 0000000180073600     cudart_static:generated_cuda_runtime_api.obj
 0002:00007630       ??_C@_0DH@LHCIDDIM@cudaOccupancyMaxActiveBlocksPerM@ 0000000180073630     cudart_static:generated_cuda_runtime_api.obj
 0002:00007668       ??_C@_0BC@OEDNNDIH@cudaMallocManaged?$AA@ 0000000180073668     cudart_static:generated_cuda_runtime_api.obj
 0002:00007680       ??_C@_0L@JGPNCOLD@cudaMalloc?$AA@ 0000000180073680     cudart_static:generated_cuda_runtime_api.obj
 0002:00007690       ??_C@_0P@JDEILNDJ@cudaMallocHost?$AA@ 0000000180073690     cudart_static:generated_cuda_runtime_api.obj
 0002:000076a0       ??_C@_0BA@BGMJNJAA@cudaMallocPitch?$AA@ 00000001800736a0     cudart_static:generated_cuda_runtime_api.obj
 0002:000076b0       ??_C@_0BA@LMEFAGAP@cudaMallocArray?$AA@ 00000001800736b0     cudart_static:generated_cuda_runtime_api.obj
 0002:000076c0       ??_C@_08GEOKCOBK@cudaFree?$AA@ 00000001800736c0     cudart_static:generated_cuda_runtime_api.obj
 0002:000076d0       ??_C@_0N@PFBLPMBA@cudaFreeHost?$AA@ 00000001800736d0     cudart_static:generated_cuda_runtime_api.obj
 0002:000076e0       ??_C@_0O@POJBMNCC@cudaFreeArray?$AA@ 00000001800736e0     cudart_static:generated_cuda_runtime_api.obj
 0002:000076f0       ??_C@_0BH@OGEPGPLO@cudaFreeMipmappedArray?$AA@ 00000001800736f0     cudart_static:generated_cuda_runtime_api.obj
 0002:00007708       ??_C@_0O@BDAPCJPP@cudaHostAlloc?$AA@ 0000000180073708     cudart_static:generated_cuda_runtime_api.obj
 0002:00007718       ??_C@_0BB@ODJFNGAK@cudaHostRegister?$AA@ 0000000180073718     cudart_static:generated_cuda_runtime_api.obj
 0002:00007730       ??_C@_0BD@EAHLAGCC@cudaHostUnregister?$AA@ 0000000180073730     cudart_static:generated_cuda_runtime_api.obj
 0002:00007748       ??_C@_0BJ@NEALOGO@cudaHostGetDevicePointer?$AA@ 0000000180073748     cudart_static:generated_cuda_runtime_api.obj
 0002:00007768       ??_C@_0BB@DKOGKCFF@cudaHostGetFlags?$AA@ 0000000180073768     cudart_static:generated_cuda_runtime_api.obj
 0002:00007780       ??_C@_0N@KBAGLHIB@cudaMalloc3D?$AA@ 0000000180073780     cudart_static:generated_cuda_runtime_api.obj
 0002:00007790       ??_C@_0BC@IOHKHPMC@cudaMalloc3DArray?$AA@ 0000000180073790     cudart_static:generated_cuda_runtime_api.obj
 0002:000077a8       ??_C@_0BJ@KPCBNNBK@cudaMallocMipmappedArray?$AA@ 00000001800737a8     cudart_static:generated_cuda_runtime_api.obj
 0002:000077c8       ??_C@_0BL@OOBAKBEE@cudaGetMipmappedArrayLevel?$AA@ 00000001800737c8     cudart_static:generated_cuda_runtime_api.obj
 0002:000077e8       ??_C@_0BC@DDIGPKEB@cudaMemcpy3D_ptds?$AA@ 00000001800737e8     cudart_static:generated_cuda_runtime_api.obj
 0002:00007800       ??_C@_0BG@MMJMAIPH@cudaMemcpy3DPeer_ptds?$AA@ 0000000180073800     cudart_static:generated_cuda_runtime_api.obj
 0002:00007818       ??_C@_0BH@OOENJMPE@cudaMemcpy3DAsync_ptsz?$AA@ 0000000180073818     cudart_static:generated_cuda_runtime_api.obj
 0002:00007830       ??_C@_0BL@NPDAGELI@cudaMemcpy3DPeerAsync_ptsz?$AA@ 0000000180073830     cudart_static:generated_cuda_runtime_api.obj
 0002:00007850       ??_C@_0P@KFGAPOLJ@cudaMemGetInfo?$AA@ 0000000180073850     cudart_static:generated_cuda_runtime_api.obj
 0002:00007860       ??_C@_0BB@EMIBBJDM@cudaArrayGetInfo?$AA@ 0000000180073860     cudart_static:generated_cuda_runtime_api.obj
 0002:00007878       ??_C@_0BC@PFKFDAMB@cudaArrayGetPlane?$AA@ 0000000180073878     cudart_static:generated_cuda_runtime_api.obj
 0002:00007890       ??_C@_0BN@NBDJJABN@cudaArrayGetSparseProperties?$AA@ 0000000180073890     cudart_static:generated_cuda_runtime_api.obj
 0002:000078b0       ??_C@_0CG@NPGMMIME@cudaMipmappedArrayGetSparsePrope@ 00000001800738b0     cudart_static:generated_cuda_runtime_api.obj
 0002:000078d8       ??_C@_0BA@MAIBHEFD@cudaMemcpy_ptds?$AA@ 00000001800738d8     cudart_static:generated_cuda_runtime_api.obj
 0002:000078e8       ??_C@_0P@BGPPJCBF@cudaMemcpyPeer?$AA@ 00000001800738e8     cudart_static:generated_cuda_runtime_api.obj
 0002:000078f8       ??_C@_0BC@PPCMPKNP@cudaMemcpy2D_ptds?$AA@ 00000001800738f8     cudart_static:generated_cuda_runtime_api.obj
 0002:00007910       ??_C@_0BJ@CPFDIJ@cudaMemcpy2DToArray_ptds?$AA@ 0000000180073910     cudart_static:generated_cuda_runtime_api.obj
 0002:00007930       ??_C@_0BL@MGBAEMDC@cudaMemcpy2DFromArray_ptds?$AA@ 0000000180073930     cudart_static:generated_cuda_runtime_api.obj
 0002:00007950       ??_C@_0BO@GOAJGOLH@cudaMemcpy2DArrayToArray_ptds?$AA@ 0000000180073950     cudart_static:generated_cuda_runtime_api.obj
 0002:00007970       ??_C@_0BI@IPEHHEBC@cudaMemcpyToSymbol_ptds?$AA@ 0000000180073970     cudart_static:generated_cuda_runtime_api.obj
 0002:00007988       ??_C@_0BK@LELBBIOA@cudaMemcpyFromSymbol_ptds?$AA@ 0000000180073988     cudart_static:generated_cuda_runtime_api.obj
 0002:000079a8       ??_C@_0BF@MDDFDNOF@cudaMemcpyAsync_ptsz?$AA@ 00000001800739a8     cudart_static:generated_cuda_runtime_api.obj
 0002:000079c0       ??_C@_0BE@HNJBMCGJ@cudaMemcpyPeerAsync?$AA@ 00000001800739c0     cudart_static:generated_cuda_runtime_api.obj
 0002:000079d8       ??_C@_0BH@DDNLEFHB@cudaMemcpy2DAsync_ptsz?$AA@ 00000001800739d8     cudart_static:generated_cuda_runtime_api.obj
 0002:000079f0       ??_C@_0BO@CFIJGKLO@cudaMemcpy2DToArrayAsync_ptsz?$AA@ 00000001800739f0     cudart_static:generated_cuda_runtime_api.obj
 0002:00007a10       ??_C@_0CA@PIHDMGBH@cudaMemcpy2DFromArrayAsync_ptsz?$AA@ 0000000180073a10     cudart_static:generated_cuda_runtime_api.obj
 0002:00007a30       ??_C@_0BN@EEGFPFCE@cudaMemcpyToSymbolAsync_ptsz?$AA@ 0000000180073a30     cudart_static:generated_cuda_runtime_api.obj
 0002:00007a50       ??_C@_0BP@IKJKFOPI@cudaMemcpyFromSymbolAsync_ptsz?$AA@ 0000000180073a50     cudart_static:generated_cuda_runtime_api.obj
 0002:00007a70       ??_C@_0BA@DJMNGIKN@cudaMemset_ptds?$AA@ 0000000180073a70     cudart_static:generated_cuda_runtime_api.obj
 0002:00007a80       ??_C@_0BC@GBBCJDOP@cudaMemset2D_ptds?$AA@ 0000000180073a80     cudart_static:generated_cuda_runtime_api.obj
 0002:00007a98       ??_C@_0BC@KNLIJDHB@cudaMemset3D_ptds?$AA@ 0000000180073a98     cudart_static:generated_cuda_runtime_api.obj
 0002:00007ab0       ??_C@_0BF@JCAABFKO@cudaMemsetAsync_ptsz?$AA@ 0000000180073ab0     cudart_static:generated_cuda_runtime_api.obj
 0002:00007ac8       ??_C@_0BH@BFODCKHA@cudaMemset2DAsync_ptsz?$AA@ 0000000180073ac8     cudart_static:generated_cuda_runtime_api.obj
 0002:00007ae0       ??_C@_0BH@MIHFPDPF@cudaMemset3DAsync_ptsz?$AA@ 0000000180073ae0     cudart_static:generated_cuda_runtime_api.obj
 0002:00007af8       ??_C@_0BF@OMAEBMAE@cudaGetSymbolAddress?$AA@ 0000000180073af8     cudart_static:generated_cuda_runtime_api.obj
 0002:00007b10       ??_C@_0BC@KNLJIOBK@cudaGetSymbolSize?$AA@ 0000000180073b10     cudart_static:generated_cuda_runtime_api.obj
 0002:00007b28       ??_C@_0BK@KMCFICIO@cudaMemPrefetchAsync_ptsz?$AA@ 0000000180073b28     cudart_static:generated_cuda_runtime_api.obj
 0002:00007b48       ??_C@_0O@PKOLNHMP@cudaMemAdvise?$AA@ 0000000180073b48     cudart_static:generated_cuda_runtime_api.obj
 0002:00007b58       ??_C@_0BJ@PGIAOJDN@cudaMemRangeGetAttribute?$AA@ 0000000180073b58     cudart_static:generated_cuda_runtime_api.obj
 0002:00007b78       ??_C@_0BK@FMIMOGMN@cudaMemRangeGetAttributes?$AA@ 0000000180073b78     cudart_static:generated_cuda_runtime_api.obj
 0002:00007b98       ??_C@_0BH@ELNMBFHH@cudaMemcpyToArray_ptds?$AA@ 0000000180073b98     cudart_static:generated_cuda_runtime_api.obj
 0002:00007bb0       ??_C@_0BJ@NDJACPFH@cudaMemcpyFromArray_ptds?$AA@ 0000000180073bb0     cudart_static:generated_cuda_runtime_api.obj
 0002:00007bd0       ??_C@_0BM@IDHNNMCN@cudaMemcpyArrayToArray_ptds?$AA@ 0000000180073bd0     cudart_static:generated_cuda_runtime_api.obj
 0002:00007bf0       ??_C@_0BM@MIPNNICE@cudaMemcpyToArrayAsync_ptsz?$AA@ 0000000180073bf0     cudart_static:generated_cuda_runtime_api.obj
 0002:00007c10       ??_C@_0BO@FGLCJLFD@cudaMemcpyFromArrayAsync_ptsz?$AA@ 0000000180073c10     cudart_static:generated_cuda_runtime_api.obj
 0002:00007c30       ??_C@_0BF@INDDGIAO@cudaMallocAsync_ptsz?$AA@ 0000000180073c30     cudart_static:generated_cuda_runtime_api.obj
 0002:00007c48       ??_C@_0BD@FNOBFKNH@cudaFreeAsync_ptsz?$AA@ 0000000180073c48     cudart_static:generated_cuda_runtime_api.obj
 0002:00007c60       ??_C@_0BC@FJGGAIKF@cudaMemPoolTrimTo?$AA@ 0000000180073c60     cudart_static:generated_cuda_runtime_api.obj
 0002:00007c78       ??_C@_0BI@DCDMAFGG@cudaMemPoolSetAttribute?$AA@ 0000000180073c78     cudart_static:generated_cuda_runtime_api.obj
 0002:00007c90       ??_C@_0BI@EGICMJCK@cudaMemPoolGetAttribute?$AA@ 0000000180073c90     cudart_static:generated_cuda_runtime_api.obj
 0002:00007ca8       ??_C@_0BF@PELHLDHN@cudaMemPoolSetAccess?$AA@ 0000000180073ca8     cudart_static:generated_cuda_runtime_api.obj
 0002:00007cc0       ??_C@_0BF@NKPCJCOP@cudaMemPoolGetAccess?$AA@ 0000000180073cc0     cudart_static:generated_cuda_runtime_api.obj
 0002:00007cd8       ??_C@_0BC@LGJLFGDG@cudaMemPoolCreate?$AA@ 0000000180073cd8     cudart_static:generated_cuda_runtime_api.obj
 0002:00007cf0       ??_C@_0BD@MMDOEEFH@cudaMemPoolDestroy?$AA@ 0000000180073cf0     cudart_static:generated_cuda_runtime_api.obj
 0002:00007d08       ??_C@_0BN@HJPJLDHH@cudaMallocFromPoolAsync_ptsz?$AA@ 0000000180073d08     cudart_static:generated_cuda_runtime_api.obj
 0002:00007d28       ??_C@_0CD@JENLFPG@cudaMemPoolExportToShareableHand@ 0000000180073d28     cudart_static:generated_cuda_runtime_api.obj
 0002:00007d50       ??_C@_0CF@DBAKOIHK@cudaMemPoolImportFromShareableHa@ 0000000180073d50     cudart_static:generated_cuda_runtime_api.obj
 0002:00007d78       ??_C@_0BJ@KLDHLLMK@cudaMemPoolExportPointer?$AA@ 0000000180073d78     cudart_static:generated_cuda_runtime_api.obj
 0002:00007d98       ??_C@_0BJ@CIOKDPCO@cudaMemPoolImportPointer?$AA@ 0000000180073d98     cudart_static:generated_cuda_runtime_api.obj
 0002:00007db8       ??_C@_0BJ@BHBGBGJJ@cudaPointerGetAttributes?$AA@ 0000000180073db8     cudart_static:generated_cuda_runtime_api.obj
 0002:00007dd8       ??_C@_0BI@PBFKIHHL@cudaDeviceCanAccessPeer?$AA@ 0000000180073dd8     cudart_static:generated_cuda_runtime_api.obj
 0002:00007df0       ??_C@_0BL@FKLEPMND@cudaDeviceEnablePeerAccess?$AA@ 0000000180073df0     cudart_static:generated_cuda_runtime_api.obj
 0002:00007e10       ??_C@_0BM@FMOCPBNL@cudaDeviceDisablePeerAccess?$AA@ 0000000180073e10     cudart_static:generated_cuda_runtime_api.obj
 0002:00007e30       ??_C@_0BP@FNDDKLDK@cudaGraphicsUnregisterResource?$AA@ 0000000180073e30     cudart_static:generated_cuda_runtime_api.obj
 0002:00007e50       ??_C@_0CA@PMLEHOKA@cudaGraphicsResourceSetMapFlags?$AA@ 0000000180073e50     cudart_static:generated_cuda_runtime_api.obj
 0002:00007e70       ??_C@_0BJ@JELINGOB@cudaGraphicsMapResources?$AA@ 0000000180073e70     cudart_static:generated_cuda_runtime_api.obj
 0002:00007e90       ??_C@_0BL@FCBIEEJP@cudaGraphicsUnmapResources?$AA@ 0000000180073e90     cudart_static:generated_cuda_runtime_api.obj
 0002:00007eb0       ??_C@_0CF@CFKPPDI@cudaGraphicsResourceGetMappedPoi@ 0000000180073eb0     cudart_static:generated_cuda_runtime_api.obj
 0002:00007ed8       ??_C@_0CG@PDHHFJPI@cudaGraphicsSubResourceGetMapped@ 0000000180073ed8     cudart_static:generated_cuda_runtime_api.obj
 0002:00007f00       ??_C@_0CM@EFKKCKHM@cudaGraphicsResourceGetMappedMip@ 0000000180073f00     cudart_static:generated_cuda_runtime_api.obj
 0002:00007f30       ??_C@_0BA@LJLNKLAH@cudaBindTexture?$AA@ 0000000180073f30     cudart_static:generated_cuda_runtime_api.obj
 0002:00007f40       ??_C@_0BC@LNLPOOOF@cudaBindTexture2D?$AA@ 0000000180073f40     cudart_static:generated_cuda_runtime_api.obj
 0002:00007f58       ??_C@_0BH@KDALLCPP@cudaBindTextureToArray?$AA@ 0000000180073f58     cudart_static:generated_cuda_runtime_api.obj
 0002:00007f70       ??_C@_0CA@INNPHILH@cudaBindTextureToMipmappedArray?$AA@ 0000000180073f70     cudart_static:generated_cuda_runtime_api.obj
 0002:00007f90       ??_C@_0BC@JFDFLBIE@cudaUnbindTexture?$AA@ 0000000180073f90     cudart_static:generated_cuda_runtime_api.obj
 0002:00007fa8       ??_C@_0BO@HHOPDFGO@cudaGetTextureAlignmentOffset?$AA@ 0000000180073fa8     cudart_static:generated_cuda_runtime_api.obj
 0002:00007fc8       ??_C@_0BI@BEFMPGPN@cudaGetTextureReference?$AA@ 0000000180073fc8     cudart_static:generated_cuda_runtime_api.obj
 0002:00007fe0       ??_C@_0BH@FCIHMJFD@cudaBindSurfaceToArray?$AA@ 0000000180073fe0     cudart_static:generated_cuda_runtime_api.obj
 0002:00007ff8       ??_C@_0BI@NBDJFMCA@cudaGetSurfaceReference?$AA@ 0000000180073ff8     cudart_static:generated_cuda_runtime_api.obj
 0002:00008010       ??_C@_0BD@KJOJBOHG@cudaGetChannelDesc?$AA@ 0000000180074010     cudart_static:generated_cuda_runtime_api.obj
 0002:00008028       ??_C@_0BG@DBAMOIJO@cudaCreateChannelDesc?$AA@ 0000000180074028     cudart_static:generated_cuda_runtime_api.obj
 0002:00008040       ??_C@_0BI@IGFDAIEI@cudaCreateTextureObject?$AA@ 0000000180074040     cudart_static:generated_cuda_runtime_api.obj
 0002:00008058       ??_C@_0BJ@IHOKPNFH@cudaDestroyTextureObject?$AA@ 0000000180074058     cudart_static:generated_cuda_runtime_api.obj
 0002:00008078       ??_C@_0CB@GPGPMFIB@cudaGetTextureObjectResourceDesc@ 0000000180074078     cudart_static:generated_cuda_runtime_api.obj
 0002:000080a0       ??_C@_0CA@FCFODCOO@cudaGetTextureObjectTextureDesc?$AA@ 00000001800740a0     cudart_static:generated_cuda_runtime_api.obj
 0002:000080c0       ??_C@_0CF@NNFAPEA@cudaGetTextureObjectResourceView@ 00000001800740c0     cudart_static:generated_cuda_runtime_api.obj
 0002:000080e8       ??_C@_0BI@NOMKOGJJ@cudaCreateSurfaceObject?$AA@ 00000001800740e8     cudart_static:generated_cuda_runtime_api.obj
 0002:00008100       ??_C@_0BJ@NPHDBDIG@cudaDestroySurfaceObject?$AA@ 0000000180074100     cudart_static:generated_cuda_runtime_api.obj
 0002:00008120       ??_C@_0CB@CJABHEOO@cudaGetSurfaceObjectResourceDesc@ 0000000180074120     cudart_static:generated_cuda_runtime_api.obj
 0002:00008148       ??_C@_0BF@GKELDGAE@cudaDriverGetVersion?$AA@ 0000000180074148     cudart_static:generated_cuda_runtime_api.obj
 0002:00008160       ??_C@_0BG@DCMGFCMH@cudaRuntimeGetVersion?$AA@ 0000000180074160     cudart_static:generated_cuda_runtime_api.obj
 0002:00008178       ??_C@_0BA@PFAMLMNC@cudaGraphCreate?$AA@ 0000000180074178     cudart_static:generated_cuda_runtime_api.obj
 0002:00008188       ??_C@_0BH@JPMAMKIH@cudaGraphAddKernelNode?$AA@ 0000000180074188     cudart_static:generated_cuda_runtime_api.obj
 0002:000081a0       ??_C@_0BN@PIKEDOOA@cudaGraphKernelNodeGetParams?$AA@ 00000001800741a0     cudart_static:generated_cuda_runtime_api.obj
 0002:000081c0       ??_C@_0BN@NGOBBPHC@cudaGraphKernelNodeSetParams?$AA@ 00000001800741c0     cudart_static:generated_cuda_runtime_api.obj
 0002:000081e0       ??_C@_0CC@PGODCPDB@cudaGraphKernelNodeCopyAttribute@ 00000001800741e0     cudart_static:generated_cuda_runtime_api.obj
 0002:00008208       ??_C@_0CA@FGHMDNAM@cudaGraphKernelNodeGetAttribute?$AA@ 0000000180074208     cudart_static:generated_cuda_runtime_api.obj
 0002:00008228       ??_C@_0CA@CCMCPBEA@cudaGraphKernelNodeSetAttribute?$AA@ 0000000180074228     cudart_static:generated_cuda_runtime_api.obj
 0002:00008248       ??_C@_0BH@PJPELIPE@cudaGraphAddMemcpyNode?$AA@ 0000000180074248     cudart_static:generated_cuda_runtime_api.obj
 0002:00008260       ??_C@_0BP@MBLHFLNI@cudaGraphAddMemcpyNodeToSymbol?$AA@ 0000000180074260     cudart_static:generated_cuda_runtime_api.obj
 0002:00008280       ??_C@_0CB@CAPHNNCL@cudaGraphAddMemcpyNodeFromSymbol@ 0000000180074280     cudart_static:generated_cuda_runtime_api.obj
 0002:000082a8       ??_C@_0BJ@ENGODFF@cudaGraphAddMemcpyNode1D?$AA@ 00000001800742a8     cudart_static:generated_cuda_runtime_api.obj
 0002:000082c8       ??_C@_0BN@FNHODKBL@cudaGraphMemcpyNodeGetParams?$AA@ 00000001800742c8     cudart_static:generated_cuda_runtime_api.obj
 0002:000082e8       ??_C@_0BN@HDDLBLIJ@cudaGraphMemcpyNodeSetParams?$AA@ 00000001800742e8     cudart_static:generated_cuda_runtime_api.obj
 0002:00008308       ??_C@_0CF@JLEJBCDI@cudaGraphMemcpyNodeSetParamsToSy@ 0000000180074308     cudart_static:generated_cuda_runtime_api.obj
 0002:00008330       ??_C@_0CH@HBIJINAN@cudaGraphMemcpyNodeSetParamsFrom@ 0000000180074330     cudart_static:generated_cuda_runtime_api.obj
 0002:00008358       ??_C@_0BP@NBJIJMHD@cudaGraphMemcpyNodeSetParams1D?$AA@ 0000000180074358     cudart_static:generated_cuda_runtime_api.obj
 0002:00008378       ??_C@_0BH@MDHCJGI@cudaGraphAddMemsetNode?$AA@ 0000000180074378     cudart_static:generated_cuda_runtime_api.obj
 0002:00008390       ??_C@_0BN@CKFPDCOC@cudaGraphMemsetNodeGetParams?$AA@ 0000000180074390     cudart_static:generated_cuda_runtime_api.obj
 0002:000083b0       ??_C@_0BN@EBKBDHA@cudaGraphMemsetNodeSetParams?$AA@ 00000001800743b0     cudart_static:generated_cuda_runtime_api.obj
 0002:000083d0       ??_C@_0BF@MJBGMIGL@cudaGraphAddHostNode?$AA@ 00000001800743d0     cudart_static:generated_cuda_runtime_api.obj
 0002:000083e8       ??_C@_0BL@HCEFKND@cudaGraphHostNodeGetParams?$AA@ 00000001800743e8     cudart_static:generated_cuda_runtime_api.obj
 0002:00008408       ??_C@_0BL@CJGBHLEB@cudaGraphHostNodeSetParams?$AA@ 0000000180074408     cudart_static:generated_cuda_runtime_api.obj
 0002:00008428       ??_C@_0BL@NHBLKPMG@cudaGraphAddChildGraphNode?$AA@ 0000000180074428     cudart_static:generated_cuda_runtime_api.obj
 0002:00008448       ??_C@_0CA@IIDDCMPO@cudaGraphChildGraphNodeGetGraph?$AA@ 0000000180074448     cudart_static:generated_cuda_runtime_api.obj
 0002:00008468       ??_C@_0BG@KELJEJLI@cudaGraphAddEmptyNode?$AA@ 0000000180074468     cudart_static:generated_cuda_runtime_api.obj
 0002:00008480       ??_C@_0BM@ICODDMH@cudaGraphAddEventRecordNode?$AA@ 0000000180074480     cudart_static:generated_cuda_runtime_api.obj
 0002:000084a0       ??_C@_0CB@HGLMHKPM@cudaGraphEventRecordNodeGetEvent@ 00000001800744a0     cudart_static:generated_cuda_runtime_api.obj
 0002:000084c8       ??_C@_0CB@IHJAGJIB@cudaGraphEventRecordNodeSetEvent@ 00000001800744c8     cudart_static:generated_cuda_runtime_api.obj
 0002:000084f0       ??_C@_0BK@FCIFJNNF@cudaGraphAddEventWaitNode?$AA@ 00000001800744f0     cudart_static:generated_cuda_runtime_api.obj
 0002:00008510       ??_C@_0BP@GOPHJNHB@cudaGraphEventWaitNodeGetEvent?$AA@ 0000000180074510     cudart_static:generated_cuda_runtime_api.obj
 0002:00008530       ??_C@_0BP@JPNLIOAM@cudaGraphEventWaitNodeSetEvent?$AA@ 0000000180074530     cudart_static:generated_cuda_runtime_api.obj
 0002:00008550       ??_C@_0CJ@KDOAJCGF@cudaGraphAddExternalSemaphoresSi@ 0000000180074550     cudart_static:generated_cuda_runtime_api.obj
 0002:00008580       ??_C@_0CP@GJBNLPJN@cudaGraphExternalSemaphoresSigna@ 0000000180074580     cudart_static:generated_cuda_runtime_api.obj
 0002:000085b0       ??_C@_0CP@EHFIJOAP@cudaGraphExternalSemaphoresSigna@ 00000001800745b0     cudart_static:generated_cuda_runtime_api.obj
 0002:000085e0       ??_C@_0CH@IJMOOPAB@cudaGraphAddExternalSemaphoresWa@ 00000001800745e0     cudart_static:generated_cuda_runtime_api.obj
 0002:00008608       ??_C@_0CN@EFOGKPDO@cudaGraphExternalSemaphoresWaitN@ 0000000180074608     cudart_static:generated_cuda_runtime_api.obj
 0002:00008638       ??_C@_0CN@GLKDIOKM@cudaGraphExternalSemaphoresWaitN@ 0000000180074638     cudart_static:generated_cuda_runtime_api.obj
 0002:00008668       ??_C@_0P@NGEILNCK@cudaGraphClone?$AA@ 0000000180074668     cudart_static:generated_cuda_runtime_api.obj
 0002:00008678       ??_C@_0BJ@OILNCACJ@cudaGraphNodeFindInClone?$AA@ 0000000180074678     cudart_static:generated_cuda_runtime_api.obj
 0002:00008698       ??_C@_0BF@IBINOJHB@cudaGraphNodeGetType?$AA@ 0000000180074698     cudart_static:generated_cuda_runtime_api.obj
 0002:000086b0       ??_C@_0BC@IIJKAGJJ@cudaGraphGetNodes?$AA@ 00000001800746b0     cudart_static:generated_cuda_runtime_api.obj
 0002:000086c8       ??_C@_0BG@FAJFOGBB@cudaGraphGetRootNodes?$AA@ 00000001800746c8     cudart_static:generated_cuda_runtime_api.obj
 0002:000086e0       ??_C@_0BC@IHDIGIKF@cudaGraphGetEdges?$AA@ 00000001800746e0     cudart_static:generated_cuda_runtime_api.obj
 0002:000086f8       ??_C@_0BN@JMLNIFLM@cudaGraphNodeGetDependencies?$AA@ 00000001800746f8     cudart_static:generated_cuda_runtime_api.obj
 0002:00008718       ??_C@_0BP@KAACMJBB@cudaGraphNodeGetDependentNodes?$AA@ 0000000180074718     cudart_static:generated_cuda_runtime_api.obj
 0002:00008738       ??_C@_0BJ@GNCBFGBM@cudaGraphAddDependencies?$AA@ 0000000180074738     cudart_static:generated_cuda_runtime_api.obj
 0002:00008758       ??_C@_0BM@LLJJNGPB@cudaGraphRemoveDependencies?$AA@ 0000000180074758     cudart_static:generated_cuda_runtime_api.obj
 0002:00008778       ??_C@_0BF@GGBCAIHC@cudaGraphDestroyNode?$AA@ 0000000180074778     cudart_static:generated_cuda_runtime_api.obj
 0002:00008790       ??_C@_0BF@LMFJIHCN@cudaGraphInstantiate?$AA@ 0000000180074790     cudart_static:generated_cuda_runtime_api.obj
 0002:000087a8       ??_C@_0CB@GCKECBGF@cudaGraphExecKernelNodeSetParams@ 00000001800747a8     cudart_static:generated_cuda_runtime_api.obj
 0002:000087d0       ??_C@_0CB@MHHOCFJO@cudaGraphExecMemcpyNodeSetParams@ 00000001800747d0     cudart_static:generated_cuda_runtime_api.obj
 0002:000087f8       ??_C@_0CJ@KPLJMBAO@cudaGraphExecMemcpyNodeSetParams@ 00000001800747f8     cudart_static:generated_cuda_runtime_api.obj
 0002:00008828       ??_C@_0CL@OHEPKLOG@cudaGraphExecMemcpyNodeSetParams@ 0000000180074828     cudart_static:generated_cuda_runtime_api.obj
 0002:00008858       ??_C@_0CD@BFHKLBAL@cudaGraphExecMemcpyNodeSetParams@ 0000000180074858     cudart_static:generated_cuda_runtime_api.obj
 0002:00008880       ??_C@_0CB@LAFPCNGH@cudaGraphExecMemsetNodeSetParams@ 0000000180074880     cudart_static:generated_cuda_runtime_api.obj
 0002:000088a8       ??_C@_0BP@KNMCNDKD@cudaGraphExecHostNodeSetParams?$AA@ 00000001800748a8     cudart_static:generated_cuda_runtime_api.obj
 0002:000088c8       ??_C@_0CF@DMPGEBMP@cudaGraphExecChildGraphNodeSetPa@ 00000001800748c8     cudart_static:generated_cuda_runtime_api.obj
 0002:000088f0       ??_C@_0CF@CFKJACOI@cudaGraphExecEventRecordNodeSetE@ 00000001800748f0     cudart_static:generated_cuda_runtime_api.obj
 0002:00008918       ??_C@_0CD@FLDJKDHE@cudaGraphExecEventWaitNodeSetEve@ 0000000180074918     cudart_static:generated_cuda_runtime_api.obj
 0002:00008940       ??_C@_0DD@KMHIIEIH@cudaGraphExecExternalSemaphoresS@ 0000000180074940     cudart_static:generated_cuda_runtime_api.obj
 0002:00008978       ??_C@_0DB@PDBJMKNB@cudaGraphExecExternalSemaphoresW@ 0000000180074978     cudart_static:generated_cuda_runtime_api.obj
 0002:000089b0       ??_C@_0BE@CECNNIL@cudaGraphExecUpdate?$AA@ 00000001800749b0     cudart_static:generated_cuda_runtime_api.obj
 0002:000089c8       ??_C@_0BF@LKMCCOKK@cudaGraphUpload_ptsz?$AA@ 00000001800749c8     cudart_static:generated_cuda_runtime_api.obj
 0002:000089e0       ??_C@_0BF@NEODBKE@cudaGraphLaunch_ptsz?$AA@ 00000001800749e0     cudart_static:generated_cuda_runtime_api.obj
 0002:000089f8       ??_C@_0BF@JPENKIMN@cudaGraphExecDestroy?$AA@ 00000001800749f8     cudart_static:generated_cuda_runtime_api.obj
 0002:00008a10       ??_C@_0BB@GLBKPFNM@cudaGraphDestroy?$AA@ 0000000180074a10     cudart_static:generated_cuda_runtime_api.obj
 0002:00008a28       ??_C@_0BE@OBMICPIP@cudaGetFuncBySymbol?$AA@ 0000000180074a28     cudart_static:generated_cuda_runtime_api.obj
 0002:00008a40       ??_C@_0L@MPDIELNF@cudaMemcpy?$AA@ 0000000180074a40     cudart_static:generated_cuda_runtime_api.obj
 0002:00008a50       ??_C@_0BD@OJLGIKLN@cudaMemcpyToSymbol?$AA@ 0000000180074a50     cudart_static:generated_cuda_runtime_api.obj
 0002:00008a68       ??_C@_0BF@MJKJIIIK@cudaMemcpyFromSymbol?$AA@ 0000000180074a68     cudart_static:generated_cuda_runtime_api.obj
 0002:00008a80       ??_C@_0N@KOLLNNIF@cudaMemcpy2D?$AA@ 0000000180074a80     cudart_static:generated_cuda_runtime_api.obj
 0002:00008a90       ??_C@_0BC@LOEBHLLD@cudaMemcpyToArray?$AA@ 0000000180074a90     cudart_static:generated_cuda_runtime_api.obj
 0002:00008aa8       ??_C@_0BE@CDHHDNHO@cudaMemcpy2DToArray?$AA@ 0000000180074aa8     cudart_static:generated_cuda_runtime_api.obj
 0002:00008ac0       ??_C@_0BE@MOMGPPMG@cudaMemcpyFromArray?$AA@ 0000000180074ac0     cudart_static:generated_cuda_runtime_api.obj
 0002:00008ad8       ??_C@_0BG@CPCNCPFG@cudaMemcpy2DFromArray?$AA@ 0000000180074ad8     cudart_static:generated_cuda_runtime_api.obj
 0002:00008af0       ??_C@_0BH@NMHHNEFM@cudaMemcpyArrayToArray?$AA@ 0000000180074af0     cudart_static:generated_cuda_runtime_api.obj
 0002:00008b08       ??_C@_0BJ@JHIEJCKC@cudaMemcpy2DArrayToArray?$AA@ 0000000180074b08     cudart_static:generated_cuda_runtime_api.obj
 0002:00008b28       ??_C@_0N@KPHJLHLC@cudaMemcpy3D?$AA@ 0000000180074b28     cudart_static:generated_cuda_runtime_api.obj
 0002:00008b38       ??_C@_0BB@KIAAMIAH@cudaMemcpy3DPeer?$AA@ 0000000180074b38     cudart_static:generated_cuda_runtime_api.obj
 0002:00008b50       ??_C@_0L@DAGCADJM@cudaMemset?$AA@ 0000000180074b50     cudart_static:generated_cuda_runtime_api.obj
 0002:00008b60       ??_C@_0N@PHAHBPDB@cudaMemset2D?$AA@ 0000000180074b60     cudart_static:generated_cuda_runtime_api.obj
 0002:00008b70       ??_C@_0N@PGMFHFAG@cudaMemset3D?$AA@ 0000000180074b70     cudart_static:generated_cuda_runtime_api.obj
 0002:00008b80       ??_C@_0BA@LMCCCDC@cudaMemcpyAsync?$AA@ 0000000180074b80     cudart_static:generated_cuda_runtime_api.obj
 0002:00008b90       ??_C@_0BI@EEAECCHD@cudaMemcpyToSymbolAsync?$AA@ 0000000180074b90     cudart_static:generated_cuda_runtime_api.obj
 0002:00008ba8       ??_C@_0BK@HPPCEOIB@cudaMemcpyFromSymbolAsync?$AA@ 0000000180074ba8     cudart_static:generated_cuda_runtime_api.obj
 0002:00008bc8       ??_C@_0BC@DEGPKMLO@cudaMemcpy2DAsync?$AA@ 0000000180074bc8     cudart_static:generated_cuda_runtime_api.obj
 0002:00008be0       ??_C@_0BH@IAJPEDBG@cudaMemcpyToArrayAsync?$AA@ 0000000180074be0     cudart_static:generated_cuda_runtime_api.obj
 0002:00008bf8       ??_C@_0BJ@MLGMAFOI@cudaMemcpy2DToArrayAsync?$AA@ 0000000180074bf8     cudart_static:generated_cuda_runtime_api.obj
 0002:00008c18       ??_C@_0BJ@BINDHJDG@cudaMemcpyFromArrayAsync?$AA@ 0000000180074c18     cudart_static:generated_cuda_runtime_api.obj
 0002:00008c38       ??_C@_0BL@NFDBKFD@cudaMemcpy2DFromArrayAsync?$AA@ 0000000180074c38     cudart_static:generated_cuda_runtime_api.obj
 0002:00008c58       ??_C@_0BC@PIMFKMCA@cudaMemcpy3DAsync?$AA@ 0000000180074c58     cudart_static:generated_cuda_runtime_api.obj
 0002:00008c70       ??_C@_0BG@HNPFOJG@cudaMemcpy3DPeerAsync?$AA@ 0000000180074c70     cudart_static:generated_cuda_runtime_api.obj
 0002:00008c88       ??_C@_0BA@PCIODOMM@cudaMemsetAsync?$AA@ 0000000180074c88     cudart_static:generated_cuda_runtime_api.obj
 0002:00008c98       ??_C@_0BC@KKFBMFIO@cudaMemset2DAsync?$AA@ 0000000180074c98     cudart_static:generated_cuda_runtime_api.obj
 0002:00008cb0       ??_C@_0BC@GGPLMFBA@cudaMemset3DAsync?$AA@ 0000000180074cb0     cudart_static:generated_cuda_runtime_api.obj
 0002:00008cc8       ??_C@_0BA@DEOEJCIP@cudaStreamQuery?$AA@ 0000000180074cc8     cudart_static:generated_cuda_runtime_api.obj
 0002:00008cd8       ??_C@_0BD@JBEKDFGF@cudaStreamGetFlags?$AA@ 0000000180074cd8     cudart_static:generated_cuda_runtime_api.obj
 0002:00008cf0       ??_C@_0BG@MFDICEIA@cudaStreamGetPriority?$AA@ 0000000180074cf0     cudart_static:generated_cuda_runtime_api.obj
 0002:00008d08       ??_C@_0BA@ECGACGAL@cudaEventRecord?$AA@ 0000000180074d08     cudart_static:generated_cuda_runtime_api.obj
 0002:00008d18       ??_C@_0BJ@PCDBGD@cudaEventRecordWithFlags?$AA@ 0000000180074d18     cudart_static:generated_cuda_runtime_api.obj
 0002:00008d38       ??_C@_0BE@JIIOMELB@cudaStreamWaitEvent?$AA@ 0000000180074d38     cudart_static:generated_cuda_runtime_api.obj
 0002:00008d50       ??_C@_0BG@LLDJLAHG@cudaStreamAddCallback?$AA@ 0000000180074d50     cudart_static:generated_cuda_runtime_api.obj
 0002:00008d68       ??_C@_0BJ@MEDBEICI@cudaStreamAttachMemAsync?$AA@ 0000000180074d68     cudart_static:generated_cuda_runtime_api.obj
 0002:00008d88       ??_C@_0BG@IIKBKGDK@cudaStreamSynchronize?$AA@ 0000000180074d88     cudart_static:generated_cuda_runtime_api.obj
 0002:00008da0       ??_C@_0BB@BJDBEHKH@cudaLaunchKernel?$AA@ 0000000180074da0     cudart_static:generated_cuda_runtime_api.obj
 0002:00008db8       ??_C@_0BM@NJLIPGPI@cudaLaunchCooperativeKernel?$AA@ 0000000180074db8     cudart_static:generated_cuda_runtime_api.obj
 0002:00008dd8       ??_C@_0BD@CGAHOOH@cudaLaunchHostFunc?$AA@ 0000000180074dd8     cudart_static:generated_cuda_runtime_api.obj
 0002:00008df0       ??_C@_0BF@JDHONMOG@cudaMemPrefetchAsync?$AA@ 0000000180074df0     cudart_static:generated_cuda_runtime_api.obj
 0002:00008e08       ??_C@_0CC@FNGDACMM@cudaSignalExternalSemaphoresAsyn@ 0000000180074e08     cudart_static:generated_cuda_runtime_api.obj
 0002:00008e30       ??_C@_0CH@KAFILBGC@cudaSignalExternalSemaphoresAsyn@ 0000000180074e30     cudart_static:generated_cuda_runtime_api.obj
 0002:00008e58       ??_C@_0CF@FAFKGCHO@cudaSignalExternalSemaphoresAsyn@ 0000000180074e58     cudart_static:generated_cuda_runtime_api.obj
 0002:00008e80       ??_C@_0CA@MDMMCBHN@cudaWaitExternalSemaphoresAsync?$AA@ 0000000180074e80     cudart_static:generated_cuda_runtime_api.obj
 0002:00008ea0       ??_C@_0CF@CJOCNNP@cudaWaitExternalSemaphoresAsync_@ 0000000180074ea0     cudart_static:generated_cuda_runtime_api.obj
 0002:00008ec8       ??_C@_0CD@GMAGDPNP@cudaWaitExternalSemaphoresAsync_@ 0000000180074ec8     cudart_static:generated_cuda_runtime_api.obj
 0002:00008ef0       ??_C@_0BA@FCPDPBLF@cudaGraphUpload?$AA@ 0000000180074ef0     cudart_static:generated_cuda_runtime_api.obj
 0002:00008f00       ??_C@_0BA@BCECPAGC@cudaGraphLaunch?$AA@ 0000000180074f00     cudart_static:generated_cuda_runtime_api.obj
 0002:00008f10       ??_C@_0BH@FIAGFCNH@cudaStreamBeginCapture?$AA@ 0000000180074f10     cudart_static:generated_cuda_runtime_api.obj
 0002:00008f28       ??_C@_0BF@OOBMOFAE@cudaStreamEndCapture?$AA@ 0000000180074f28     cudart_static:generated_cuda_runtime_api.obj
 0002:00008f40       ??_C@_0BG@PKLOHGDB@cudaStreamIsCapturing?$AA@ 0000000180074f40     cudart_static:generated_cuda_runtime_api.obj
 0002:00008f58       ??_C@_0BJ@PCBCEBGK@cudaStreamGetCaptureInfo?$AA@ 0000000180074f58     cudart_static:generated_cuda_runtime_api.obj
 0002:00008f78       ??_C@_0BJ@NGNEJFCB@cudaStreamCopyAttributes?$AA@ 0000000180074f78     cudart_static:generated_cuda_runtime_api.obj
 0002:00008f98       ??_C@_0BH@BJDFJDB@cudaStreamGetAttribute?$AA@ 0000000180074f98     cudart_static:generated_cuda_runtime_api.obj
 0002:00008fb0       ??_C@_0BH@HFCNJFHN@cudaStreamSetAttribute?$AA@ 0000000180074fb0     cudart_static:generated_cuda_runtime_api.obj
 0002:00008fc8       ??_C@_0BA@ONFFBFFI@cudaMallocAsync?$AA@ 0000000180074fc8     cudart_static:generated_cuda_runtime_api.obj
 0002:00008fd8       ??_C@_0O@KPIBNOHF@cudaFreeAsync?$AA@ 0000000180074fd8     cudart_static:generated_cuda_runtime_api.obj
 0002:00008fe8       ??_C@_0BI@NIKFANCO@cudaMallocFromPoolAsync?$AA@ 0000000180074fe8     cudart_static:generated_cuda_runtime_api.obj
 0002:00009000       ??_C@_02KHDDNBB@?2?$CK?$AA@ 0000000180075000     cudart_static:cuoswin32.obj
 0002:00009004       ??_C@_01LFCBOECM@?4?$AA@   0000000180075004     cudart_static:cuoswin32.obj
 0002:00009008       ??_C@_02DJGKEECL@?4?4?$AA@ 0000000180075008     cudart_static:cuoswin32.obj
 0002:0000900c       ??_C@_01KMDKNFGN@?1?$AA@   000000018007500c     cudart_static:cuoswin32.obj
 0002:00009010       ??_C@_07FMLNDKFM@APPDATA?$AA@ 0000000180075010     cudart_static:cuoswin32.obj
 0002:00009018       ??_C@_0N@MDJJJHMB@kernel32?4dll?$AA@ 0000000180075018     cudart_static:cuoswin32.obj
 0002:00009028       ??_C@_0BK@DFNBACLA@GetCurrentProcessorNumber?$AA@ 0000000180075028     cudart_static:cuoswin32.obj
 0002:00009048       __real@408f400000000000    0000000180075048     cudart_static:cuoswin32.obj
 0002:00009050       __real@412e848000000000    0000000180075050     cudart_static:cuoswin32.obj
 0002:00009058       __real@43e0000000000000    0000000180075058     cudart_static:cuoswin32.obj
 0002:00009060       __real@5f000000            0000000180075060     cudart_static:cuoswin32.obj
 0002:00009410       ??_C@_0L@BCLCHHLA@nvcuda?4dll?$AA@ 0000000180075410     cudart_static:cudart_global.obj
 0002:0000941c       ??_C@_06BGNBMNO@cuInit?$AA@ 000000018007541c     cudart_static:cudart_global.obj
 0002:00009428       ??_C@_0M@HNBJNLLN@cuDeviceGet?$AA@ 0000000180075428     cudart_static:cudart_global.obj
 0002:00009438       ??_C@_0BB@FHDBPPFB@cuDeviceGetCount?$AA@ 0000000180075438     cudart_static:cudart_global.obj
 0002:00009450       ??_C@_0BA@OHKMFJNA@cuDeviceGetName?$AA@ 0000000180075450     cudart_static:cudart_global.obj
 0002:00009460       ??_C@_0BE@KGPMMCLE@cuDeviceTotalMem_v2?$AA@ 0000000180075460     cudart_static:cudart_global.obj
 0002:00009478       ??_C@_0BF@PDOGFPNC@cuDeviceGetAttribute?$AA@ 0000000180075478     cudart_static:cudart_global.obj
 0002:00009490       ??_C@_0BI@MBAOCOML@cuDeviceGetP2PAttribute?$AA@ 0000000180075490     cudart_static:cudart_global.obj
 0002:000094a8       ??_C@_0BD@GCANFLFI@cuDriverGetVersion?$AA@ 00000001800754a8     cudart_static:cudart_global.obj
 0002:000094c0       ??_C@_0BG@PHEICNGO@cuDeviceGetByPCIBusId?$AA@ 00000001800754c0     cudart_static:cudart_global.obj
 0002:000094d8       ??_C@_0BE@LBINIEHA@cuDeviceGetPCIBusId?$AA@ 00000001800754d8     cudart_static:cudart_global.obj
 0002:000094f0       ??_C@_0BA@DBPFKGBG@cuDeviceGetUuid?$AA@ 00000001800754f0     cudart_static:cudart_global.obj
 0002:00009500       ??_C@_0CD@HFPAKKMG@cuDeviceGetTexture1DLinearMaxWid@ 0000000180075500     cudart_static:cudart_global.obj
 0002:00009528       ??_C@_0BK@MHGBMEKL@cuDeviceGetDefaultMemPool?$AA@ 0000000180075528     cudart_static:cudart_global.obj
 0002:00009548       ??_C@_0BD@NNDINAKF@cuDeviceSetMemPool?$AA@ 0000000180075548     cudart_static:cudart_global.obj
 0002:00009560       ??_C@_0BD@MDBHGHOM@cuDeviceGetMemPool?$AA@ 0000000180075560     cudart_static:cudart_global.obj
 0002:00009578       ??_C@_0BA@FMAFFDOF@cuDeviceGetLuid?$AA@ 0000000180075578     cudart_static:cudart_global.obj
 0002:00009588       ??_C@_0BJ@FCIECOCP@cuDevicePrimaryCtxRetain?$AA@ 0000000180075588     cudart_static:cudart_global.obj
 0002:000095a8       ??_C@_0BK@HIEGBIGP@cuDevicePrimaryCtxRelease?$AA@ 00000001800755a8     cudart_static:cudart_global.obj
 0002:000095c8       ??_C@_0BO@CLLBMLEA@cuDevicePrimaryCtxSetFlags_v2?$AA@ 00000001800755c8     cudart_static:cudart_global.obj
 0002:000095e8       ??_C@_0BL@OKEONKLF@cuDevicePrimaryCtxGetState?$AA@ 00000001800755e8     cudart_static:cudart_global.obj
 0002:00009608       ??_C@_0BI@CDHEKJJF@cuDevicePrimaryCtxReset?$AA@ 0000000180075608     cudart_static:cudart_global.obj
 0002:00009620       ??_C@_0P@IHFIKMAB@cuCtxCreate_v2?$AA@ 0000000180075620     cudart_static:cudart_global.obj
 0002:00009630       ??_C@_0O@OALHECKC@cuCtxGetFlags?$AA@ 0000000180075630     cudart_static:cudart_global.obj
 0002:00009640       ??_C@_0BA@PBEAEEAM@cuCtxSetCurrent?$AA@ 0000000180075640     cudart_static:cudart_global.obj
 0002:00009650       ??_C@_0BA@OPGPPDEF@cuCtxGetCurrent?$AA@ 0000000180075650     cudart_static:cudart_global.obj
 0002:00009660       ??_C@_0M@HDOEFALK@cuCtxDetach?$AA@ 0000000180075660     cudart_static:cudart_global.obj
 0002:00009670       ??_C@_0BD@EBMOCPLL@cuCtxGetApiVersion?$AA@ 0000000180075670     cudart_static:cudart_global.obj
 0002:00009688       ??_C@_0P@LOBLDFFE@cuCtxGetDevice?$AA@ 0000000180075688     cudart_static:cudart_global.obj
 0002:00009698       ??_C@_0O@IGMFOKMB@cuCtxGetLimit?$AA@ 0000000180075698     cudart_static:cudart_global.obj
 0002:000096a8       ??_C@_0O@HHOJPJLM@cuCtxSetLimit?$AA@ 00000001800756a8     cudart_static:cudart_global.obj
 0002:000096b8       ??_C@_0BE@LELLLOEP@cuCtxGetCacheConfig?$AA@ 00000001800756b8     cudart_static:cudart_global.obj
 0002:000096d0       ??_C@_0BE@HKKFEEGD@cuCtxSetCacheConfig?$AA@ 00000001800756d0     cudart_static:cudart_global.obj
 0002:000096e8       ??_C@_0BI@NBLCPFIG@cuCtxGetSharedMemConfig?$AA@ 00000001800756e8     cudart_static:cudart_global.obj
 0002:00009700       ??_C@_0BM@PIPHGPCK@cuCtxGetStreamPriorityRange?$AA@ 0000000180075700     cudart_static:cudart_global.obj
 0002:00009720       ??_C@_0BI@CLJIMDGO@cuCtxSetSharedMemConfig?$AA@ 0000000180075720     cudart_static:cudart_global.obj
 0002:00009738       ??_C@_0BB@LPDDEHBO@cuCtxSynchronize?$AA@ 0000000180075738     cudart_static:cudart_global.obj
 0002:00009750       ??_C@_0BM@DNOEEFCG@cuCtxResetPersistingL2Cache?$AA@ 0000000180075750     cudart_static:cudart_global.obj
 0002:00009770       ??_C@_0N@IFLJFIJB@cuModuleLoad?$AA@ 0000000180075770     cudart_static:cudart_global.obj
 0002:00009780       ??_C@_0BB@MOHBGPBC@cuModuleLoadData?$AA@ 0000000180075780     cudart_static:cudart_global.obj
 0002:00009798       ??_C@_0BG@KAGEFBHF@cuModuleLoadFatBinary?$AA@ 0000000180075798     cudart_static:cudart_global.obj
 0002:000097b0       ??_C@_0P@FDOFKBJI@cuModuleUnload?$AA@ 00000001800757b0     cudart_static:cudart_global.obj
 0002:000097c0       ??_C@_0BE@NDFPCGHH@cuModuleGetFunction?$AA@ 00000001800757c0     cudart_static:cudart_global.obj
 0002:000097d8       ??_C@_0BF@NPFLGNMH@cuModuleGetGlobal_v2?$AA@ 00000001800757d8     cudart_static:cudart_global.obj
 0002:000097f0       ??_C@_0BC@BCHGFMCM@cuModuleGetTexRef?$AA@ 00000001800757f0     cudart_static:cudart_global.obj
 0002:00009808       ??_C@_0BD@PGPGAACI@cuModuleGetSurfRef?$AA@ 0000000180075808     cudart_static:cudart_global.obj
 0002:00009820       ??_C@_0N@LNOIEPFL@cuLinkCreate?$AA@ 0000000180075820     cudart_static:cudart_global.obj
 0002:00009830       ??_C@_0O@HOJHIJGH@cuLinkAddData?$AA@ 0000000180075830     cudart_static:cudart_global.obj
 0002:00009840       ??_C@_0O@LHLKMFCE@cuLinkAddFile?$AA@ 0000000180075840     cudart_static:cudart_global.obj
 0002:00009850       ??_C@_0P@LIBFFNPI@cuLinkComplete?$AA@ 0000000180075850     cudart_static:cudart_global.obj
 0002:00009860       ??_C@_0O@PPDGCKKL@cuLinkDestroy?$AA@ 0000000180075860     cudart_static:cudart_global.obj
 0002:00009870       ??_C@_0BA@GHAIGLK@cuMemGetInfo_v2?$AA@ 0000000180075870     cudart_static:cudart_global.obj
 0002:00009880       ??_C@_0BC@NKBPPAGK@cuMemAllocManaged?$AA@ 0000000180075880     cudart_static:cudart_global.obj
 0002:00009898       ??_C@_0O@NJJMILKN@cuMemAlloc_v2?$AA@ 0000000180075898     cudart_static:cudart_global.obj
 0002:000098a8       ??_C@_0BD@ECKFOHNF@cuMemAllocPitch_v2?$AA@ 00000001800758a8     cudart_static:cudart_global.obj
 0002:000098c0       ??_C@_0N@MLOJDHPN@cuMemFree_v2?$AA@ 00000001800758c0     cudart_static:cudart_global.obj
 0002:000098d0       ??_C@_0BI@CBNHHFPK@cuMemGetAddressRange_v2?$AA@ 00000001800758d0     cudart_static:cudart_global.obj
 0002:000098e8       ??_C@_0O@GBNGPBE@cuMemFreeHost?$AA@ 00000001800758e8     cudart_static:cudart_global.obj
 0002:000098f8       ??_C@_0P@BEJBOLHF@cuMemHostAlloc?$AA@ 00000001800758f8     cudart_static:cudart_global.obj
 0002:00009908       ??_C@_0BN@OAJLALOJ@cuMemHostGetDevicePointer_v2?$AA@ 0000000180075908     cudart_static:cudart_global.obj
 0002:00009928       ??_C@_0BC@DIDPDHIL@cuMemHostGetFlags?$AA@ 0000000180075928     cudart_static:cudart_global.obj
 0002:00009940       ??_C@_0BF@NMNDBH@cuMemHostRegister_v2?$AA@ 0000000180075940     cudart_static:cudart_global.obj
 0002:00009958       ??_C@_0BE@NPKFILKB@cuMemHostUnregister?$AA@ 0000000180075958     cudart_static:cudart_global.obj
 0002:00009970       ??_C@_0BG@ECOONMIL@cuPointerGetAttribute?$AA@ 0000000180075970     cudart_static:cudart_global.obj
 0002:00009988       ??_C@_0BH@HODKJOEB@cuPointerGetAttributes?$AA@ 0000000180075988     cudart_static:cudart_global.obj
 0002:000099a0       ??_C@_0BA@NAHDKMHJ@cuMemAllocAsync?$AA@ 00000001800759a0     cudart_static:cudart_global.obj
 0002:000099b0       ??_C@_0BF@EHMABNEG@cuMemAllocAsync_ptsz?$AA@ 00000001800759b0     cudart_static:cudart_global.obj
 0002:000099c8       ??_C@_0BI@NANAPPIJ@cuMemAllocFromPoolAsync?$AA@ 00000001800759c8     cudart_static:cudart_global.obj
 0002:000099e0       ??_C@_0BN@NHCAOGO@cuMemAllocFromPoolAsync_ptsz?$AA@ 00000001800759e0     cudart_static:cudart_global.obj
 0002:00009a00       ??_C@_0P@KIBPBMPP@cuMemFreeAsync?$AA@ 0000000180075a00     cudart_static:cudart_global.obj
 0002:00009a10       ??_C@_0BE@MCDPNHFE@cuMemFreeAsync_ptsz?$AA@ 0000000180075a10     cudart_static:cudart_global.obj
 0002:00009a28       ??_C@_0BA@HMHGLJCJ@cuMemPoolTrimTo?$AA@ 0000000180075a28     cudart_static:cudart_global.obj
 0002:00009a38       ??_C@_0BG@BIHGCDPF@cuMemPoolSetAttribute?$AA@ 0000000180075a38     cudart_static:cudart_global.obj
 0002:00009a50       ??_C@_0BG@GMMIOPLJ@cuMemPoolGetAttribute?$AA@ 0000000180075a50     cudart_static:cudart_global.obj
 0002:00009a68       ??_C@_0BD@PMPBNOCB@cuMemPoolSetAccess?$AA@ 0000000180075a68     cudart_static:cudart_global.obj
 0002:00009a80       ??_C@_0BD@NCLEPPLD@cuMemPoolGetAccess?$AA@ 0000000180075a80     cudart_static:cudart_global.obj
 0002:00009a98       ??_C@_0BA@JDILOHLK@cuMemPoolCreate?$AA@ 0000000180075a98     cudart_static:cudart_global.obj
 0002:00009aa8       ??_C@_0BB@CIBFJLON@cuMemPoolDestroy?$AA@ 0000000180075aa8     cudart_static:cudart_global.obj
 0002:00009ac0       ??_C@_0CB@CIPBKGDD@cuMemPoolExportToShareableHandle@ 0000000180075ac0     cudart_static:cudart_global.obj
 0002:00009ae8       ??_C@_0CD@DDJKLBD@cuMemPoolImportFromShareableHand@ 0000000180075ae8     cudart_static:cudart_global.obj
 0002:00009b10       ??_C@_0BH@MCBLDDBC@cuMemPoolExportPointer?$AA@ 0000000180075b10     cudart_static:cudart_global.obj
 0002:00009b28       ??_C@_0BH@EBMGLHPG@cuMemPoolImportPointer?$AA@ 0000000180075b28     cudart_static:cudart_global.obj
 0002:00009b40       ??_C@_08HHAACGK@cuMemcpy?$AA@ 0000000180075b40     cudart_static:cudart_global.obj
 0002:00009b50       ??_C@_0O@MJKAHNBP@cuMemcpy_ptds?$AA@ 0000000180075b50     cudart_static:cudart_global.obj
 0002:00009b60       ??_C@_0O@CODCLHO@cuMemcpyAsync?$AA@ 0000000180075b60     cudart_static:cudart_global.obj
 0002:00009b70       ??_C@_0BD@MLHDFALJ@cuMemcpyAsync_ptsz?$AA@ 0000000180075b70     cudart_static:cudart_global.obj
 0002:00009b88       ??_C@_0N@IBLKPFBJ@cuMemcpyPeer?$AA@ 0000000180075b88     cudart_static:cudart_global.obj
 0002:00009b98       ??_C@_0BC@JNICOFEF@cuMemcpyPeer_ptds?$AA@ 0000000180075b98     cudart_static:cudart_global.obj
 0002:00009bb0       ??_C@_0BC@FGMBLDCE@cuMemcpyPeerAsync?$AA@ 0000000180075bb0     cudart_static:cudart_global.obj
 0002:00009bc8       ??_C@_0BH@CEDKEEEG@cuMemcpyPeerAsync_ptsz?$AA@ 0000000180075bc8     cudart_static:cudart_global.obj
 0002:00009be0       ??_C@_0BA@JOOHFLNH@cuMemcpyHtoD_v2?$AA@ 0000000180075be0     cudart_static:cudart_global.obj
 0002:00009bf0       ??_C@_0BF@MPCNGOLE@cuMemcpyHtoD_v2_ptds?$AA@ 0000000180075bf0     cudart_static:cudart_global.obj
 0002:00009c08       ??_C@_0BF@MMFGMAIP@cuMemcpyHtoDAsync_v2?$AA@ 0000000180075c08     cudart_static:cudart_global.obj
 0002:00009c20       ??_C@_0BK@CJLFCJFG@cuMemcpyHtoDAsync_v2_ptsz?$AA@ 0000000180075c20     cudart_static:cudart_global.obj
 0002:00009c40       ??_C@_0BA@MLIKDJJ@cuMemcpyDtoH_v2?$AA@ 0000000180075c40     cudart_static:cudart_global.obj
 0002:00009c50       ??_C@_0BF@EPKLDHMB@cuMemcpyDtoH_v2_ptds?$AA@ 0000000180075c50     cudart_static:cudart_global.obj
 0002:00009c68       ??_C@_0BF@EMNAJJPK@cuMemcpyDtoHAsync_v2?$AA@ 0000000180075c68     cudart_static:cudart_global.obj
 0002:00009c80       ??_C@_0BK@HALJPJLI@cuMemcpyDtoHAsync_v2_ptsz?$AA@ 0000000180075c80     cudart_static:cudart_global.obj
 0002:00009ca0       ??_C@_0BA@MJEIEOJI@cuMemcpyDtoD_v2?$AA@ 0000000180075ca0     cudart_static:cudart_global.obj
 0002:00009cb0       ??_C@_0BF@FFJHNHEP@cuMemcpyDtoD_v2_ptds?$AA@ 0000000180075cb0     cudart_static:cudart_global.obj
 0002:00009cc8       ??_C@_0BF@FGOMHJHE@cuMemcpyDtoDAsync_v2?$AA@ 0000000180075cc8     cudart_static:cudart_global.obj
 0002:00009ce0       ??_C@_0BK@DFEMFAFM@cuMemcpyDtoDAsync_v2_ptsz?$AA@ 0000000180075ce0     cudart_static:cudart_global.obj
 0002:00009d00       ??_C@_0BH@GLDKDDLA@cuMemcpy2DUnaligned_v2?$AA@ 0000000180075d00     cudart_static:cudart_global.obj
 0002:00009d18       ??_C@_0BM@PGDHKJJO@cuMemcpy2DUnaligned_v2_ptds?$AA@ 0000000180075d18     cudart_static:cudart_global.obj
 0002:00009d38       ??_C@_0BD@DGFLGODJ@cuMemcpy2DAsync_v2?$AA@ 0000000180075d38     cudart_static:cudart_global.obj
 0002:00009d50       ??_C@_0BI@PNANCALA@cuMemcpy2DAsync_v2_ptsz?$AA@ 0000000180075d50     cudart_static:cudart_global.obj
 0002:00009d68       ??_C@_0O@GDMEINBN@cuMemcpy3D_v2?$AA@ 0000000180075d68     cudart_static:cudart_global.obj
 0002:00009d78       ??_C@_0BD@PEKOBPMC@cuMemcpy3D_v2_ptds?$AA@ 0000000180075d78     cudart_static:cudart_global.obj
 0002:00009d90       ??_C@_0BD@PHNFLBPJ@cuMemcpy3DAsync_v2?$AA@ 0000000180075d90     cudart_static:cudart_global.obj
 0002:00009da8       ??_C@_0BI@FDGFLBCB@cuMemcpy3DAsync_v2_ptsz?$AA@ 0000000180075da8     cudart_static:cudart_global.obj
 0002:00009dc0       ??_C@_0P@NHGDOELF@cuMemcpy3DPeer?$AA@ 0000000180075dc0     cudart_static:cudart_global.obj
 0002:00009dd0       ??_C@_0BE@KOEJFDEF@cuMemcpy3DPeer_ptds?$AA@ 0000000180075dd0     cudart_static:cudart_global.obj
 0002:00009de8       ??_C@_0BE@GFAKAFCE@cuMemcpy3DPeerAsync?$AA@ 0000000180075de8     cudart_static:cudart_global.obj
 0002:00009e00       ??_C@_0BJ@HFLCEJJB@cuMemcpy3DPeerAsync_ptsz?$AA@ 0000000180075e00     cudart_static:cudart_global.obj
 0002:00009e20       ??_C@_0O@LAINKBFE@cuMemsetD8_v2?$AA@ 0000000180075e20     cudart_static:cudart_global.obj
 0002:00009e30       ??_C@_0BD@JOPHBFOP@cuMemsetD8_v2_ptds?$AA@ 0000000180075e30     cudart_static:cudart_global.obj
 0002:00009e48       ??_C@_0BA@MOLGFGEK@cuMemsetD8Async?$AA@ 0000000180075e48     cudart_static:cudart_global.obj
 0002:00009e58       ??_C@_0BF@LLPECKH@cuMemsetD8Async_ptsz?$AA@ 0000000180075e58     cudart_static:cudart_global.obj
 0002:00009e70       ??_C@_0BA@CBOEJPNA@cuMemsetD2D8_v2?$AA@ 0000000180075e70     cudart_static:cudart_global.obj
 0002:00009e80       ??_C@_0BF@OFDJMHNL@cuMemsetD2D8_v2_ptds?$AA@ 0000000180075e80     cudart_static:cudart_global.obj
 0002:00009e98       ??_C@_0BC@FADIIHMH@cuMemsetD2D8Async?$AA@ 0000000180075e98     cudart_static:cudart_global.obj
 0002:00009eb0       ??_C@_0BH@NIEIHJGG@cuMemsetD2D8Async_ptsz?$AA@ 0000000180075eb0     cudart_static:cudart_global.obj
 0002:00009ec8       ??_C@_0BF@DKCOAGEC@cuFuncSetCacheConfig?$AA@ 0000000180075ec8     cudart_static:cudart_global.obj
 0002:00009ee0       ??_C@_0BJ@OOKDFCIL@cuFuncSetSharedMemConfig?$AA@ 0000000180075ee0     cudart_static:cudart_global.obj
 0002:00009f00       ??_C@_0BD@KKLHOMPH@cuFuncGetAttribute?$AA@ 0000000180075f00     cudart_static:cudart_global.obj
 0002:00009f18       ??_C@_0BD@NOAJCALL@cuFuncSetAttribute?$AA@ 0000000180075f18     cudart_static:cudart_global.obj
 0002:00009f30       ??_C@_0BB@NGHAGIJH@cuArrayCreate_v2?$AA@ 0000000180075f30     cudart_static:cudart_global.obj
 0002:00009f48       ??_C@_0BI@FJCANFJP@cuArrayGetDescriptor_v2?$AA@ 0000000180075f48     cudart_static:cudart_global.obj
 0002:00009f60       ??_C@_0BL@NAKAPJAB@cuArrayGetSparseProperties?$AA@ 0000000180075f60     cudart_static:cudart_global.obj
 0002:00009f80       ??_C@_0BA@NALFIBEN@cuArrayGetPlane?$AA@ 0000000180075f80     cudart_static:cudart_global.obj
 0002:00009f90       ??_C@_0BD@DEMHEMAD@cuArray3DCreate_v2?$AA@ 0000000180075f90     cudart_static:cudart_global.obj
 0002:00009fa8       ??_C@_0BK@LJNCH@cuArray3DGetDescriptor_v2?$AA@ 0000000180075fa8     cudart_static:cudart_global.obj
 0002:00009fc8       ??_C@_0P@PAFPBIJN@cuArrayDestroy?$AA@ 0000000180075fc8     cudart_static:cudart_global.obj
 0002:00009fd8       ??_C@_0BH@PNFBIJFG@cuMipmappedArrayCreate?$AA@ 0000000180075fd8     cudart_static:cudart_global.obj
 0002:00009ff0       ??_C@_0BJ@LBPELPII@cuMipmappedArrayGetLevel?$AA@ 0000000180075ff0     cudart_static:cudart_global.obj
 0002:0000a010       ??_C@_0CE@OLDACCHL@cuMipmappedArrayGetSparsePropert@ 0000000180076010     cudart_static:cudart_global.obj
 0002:0000a038       ??_C@_0BI@IBMHOPNA@cuMipmappedArrayDestroy?$AA@ 0000000180076038     cudart_static:cudart_global.obj
 0002:0000a050       ??_C@_0P@DPCCDEFK@cuTexRefCreate?$AA@ 0000000180076050     cudart_static:cudart_global.obj
 0002:0000a060       ??_C@_0BA@IILDNAEG@cuTexRefDestroy?$AA@ 0000000180076060     cudart_static:cudart_global.obj
 0002:0000a070       ??_C@_0BB@IIDNGPGI@cuTexRefSetArray?$AA@ 0000000180076070     cudart_static:cudart_global.obj
 0002:0000a088       ??_C@_0BK@BIOLFBBA@cuTexRefSetMipmappedArray?$AA@ 0000000180076088     cudart_static:cudart_global.obj
 0002:0000a0a8       ??_C@_0BG@KPGIAPGI@cuTexRefSetAddress_v2?$AA@ 00000001800760a8     cudart_static:cudart_global.obj
 0002:0000a0c0       ??_C@_0BI@DPELPKDI@cuTexRefSetAddress2D_v3?$AA@ 00000001800760c0     cudart_static:cudart_global.obj
 0002:0000a0d8       ??_C@_0BC@CKLOAKEM@cuTexRefSetFormat?$AA@ 00000001800760d8     cudart_static:cudart_global.obj
 0002:0000a0f0       ??_C@_0BH@EEMJAHC@cuTexRefSetAddressMode?$AA@ 00000001800760f0     cudart_static:cudart_global.obj
 0002:0000a108       ??_C@_0BG@MBCEKLKK@cuTexRefSetFilterMode?$AA@ 0000000180076108     cudart_static:cudart_global.obj
 0002:0000a120       ??_C@_0BM@HONGGBBA@cuTexRefSetMipmapFilterMode?$AA@ 0000000180076120     cudart_static:cudart_global.obj
 0002:0000a140       ??_C@_0BL@CBGCJJCF@cuTexRefSetMipmapLevelBias?$AA@ 0000000180076140     cudart_static:cudart_global.obj
 0002:0000a160       ??_C@_0BM@HBBOBNIH@cuTexRefSetMipmapLevelClamp?$AA@ 0000000180076160     cudart_static:cudart_global.obj
 0002:0000a180       ??_C@_0BJ@LIGKOCHO@cuTexRefSetMaxAnisotropy?$AA@ 0000000180076180     cudart_static:cudart_global.obj
 0002:0000a1a0       ??_C@_0BB@PGCGBKHK@cuTexRefSetFlags?$AA@ 00000001800761a0     cudart_static:cudart_global.obj
 0002:0000a1b8       ??_C@_0BH@KHPGLLHG@cuTexRefSetBorderColor?$AA@ 00000001800761b8     cudart_static:cudart_global.obj
 0002:0000a1d0       ??_C@_0BH@GJOIEBFK@cuTexRefGetBorderColor?$AA@ 00000001800761d0     cudart_static:cudart_global.obj
 0002:0000a1e8       ??_C@_0BC@KDOPKBPG@cuSurfRefSetArray?$AA@ 00000001800761e8     cudart_static:cudart_global.obj
 0002:0000a200       ??_C@_0BC@INLCLEBG@cuTexObjectCreate?$AA@ 0000000180076200     cudart_static:cudart_global.obj
 0002:0000a218       ??_C@_0BD@PHGLENHN@cuTexObjectDestroy?$AA@ 0000000180076218     cudart_static:cudart_global.obj
 0002:0000a230       ??_C@_0BL@CMCGAFNF@cuTexObjectGetResourceDesc?$AA@ 0000000180076230     cudart_static:cudart_global.obj
 0002:0000a250       ??_C@_0BK@HCHHAMIG@cuTexObjectGetTextureDesc?$AA@ 0000000180076250     cudart_static:cudart_global.obj
 0002:0000a270       ??_C@_0BP@BGHLOFJD@cuTexObjectGetResourceViewDesc?$AA@ 0000000180076270     cudart_static:cudart_global.obj
 0002:0000a290       ??_C@_0BD@JKCONIJL@cuSurfObjectCreate?$AA@ 0000000180076290     cudart_static:cudart_global.obj
 0002:0000a2a8       ??_C@_0BE@GEHFCOIM@cuSurfObjectDestroy?$AA@ 00000001800762a8     cudart_static:cudart_global.obj
 0002:0000a2c0       ??_C@_0BM@KMDHJFC@cuSurfObjectGetResourceDesc?$AA@ 00000001800762c0     cudart_static:cudart_global.obj
 0002:0000a2e0       ??_C@_0BH@MAEDJMDD@cuImportExternalMemory?$AA@ 00000001800762e0     cudart_static:cudart_global.obj
 0002:0000a2f8       ??_C@_0CA@HAJENFBF@cuExternalMemoryGetMappedBuffer?$AA@ 00000001800762f8     cudart_static:cudart_global.obj
 0002:0000a318       ??_C@_0CI@FNIPNDHI@cuExternalMemoryGetMappedMipmapp@ 0000000180076318     cudart_static:cudart_global.obj
 0002:0000a340       ??_C@_0BI@CKPGLJLE@cuDestroyExternalMemory?$AA@ 0000000180076340     cudart_static:cudart_global.obj
 0002:0000a358       ??_C@_0BK@EBKGJPID@cuImportExternalSemaphore?$AA@ 0000000180076358     cudart_static:cudart_global.obj
 0002:0000a378       ??_C@_0CA@FFIEHCPI@cuSignalExternalSemaphoresAsync?$AA@ 0000000180076378     cudart_static:cudart_global.obj
 0002:0000a398       ??_C@_0CF@PLLCEDJF@cuSignalExternalSemaphoresAsync_@ 0000000180076398     cudart_static:cudart_global.obj
 0002:0000a3c0       ??_C@_0BO@OLBMIAGG@cuWaitExternalSemaphoresAsync?$AA@ 00000001800763c0     cudart_static:cudart_global.obj
 0002:0000a3e0       ??_C@_0CD@DAKNGOLG@cuWaitExternalSemaphoresAsync_pt@ 00000001800763e0     cudart_static:cudart_global.obj
 0002:0000a408       ??_C@_0BL@PGCEAFII@cuDestroyExternalSemaphore?$AA@ 0000000180076408     cudart_static:cudart_global.obj
 0002:0000a428       ??_C@_0BP@JDHDPONH@cuDeviceGetNvSciSyncAttributes?$AA@ 0000000180076428     cudart_static:cudart_global.obj
 0002:0000a448       ??_C@_0P@GGFCGLBF@cuLaunchKernel?$AA@ 0000000180076448     cudart_static:cudart_global.obj
 0002:0000a458       ??_C@_0BE@HLIIHEFM@cuLaunchKernel_ptsz?$AA@ 0000000180076458     cudart_static:cudart_global.obj
 0002:0000a470       ??_C@_0BK@JLKAOMLJ@cuLaunchCooperativeKernel?$AA@ 0000000180076470     cudart_static:cudart_global.obj
 0002:0000a490       ??_C@_0BP@KJIDLAAH@cuLaunchCooperativeKernel_ptsz?$AA@ 0000000180076490     cudart_static:cudart_global.obj
 0002:0000a4b0       ??_C@_0CF@JNAFIKFE@cuLaunchCooperativeKernelMultiDe@ 00000001800764b0     cudart_static:cudart_global.obj
 0002:0000a4d8       ??_C@_0BB@OGELKBFN@cuLaunchHostFunc?$AA@ 00000001800764d8     cudart_static:cudart_global.obj
 0002:0000a4f0       ??_C@_0BG@CCIPGJAC@cuLaunchHostFunc_ptsz?$AA@ 00000001800764f0     cudart_static:cudart_global.obj
 0002:0000a508       ??_C@_0O@OGDCEFHO@cuEventCreate?$AA@ 0000000180076508     cudart_static:cudart_global.obj
 0002:0000a518       ??_C@_0O@ELEBCPEH@cuEventRecord?$AA@ 0000000180076518     cudart_static:cudart_global.obj
 0002:0000a528       ??_C@_0BD@BDGHGAFL@cuEventRecord_ptsz?$AA@ 0000000180076528     cudart_static:cudart_global.obj
 0002:0000a540       ??_C@_0BH@GJNOLJLL@cuEventRecordWithFlags?$AA@ 0000000180076540     cudart_static:cudart_global.obj
 0002:0000a558       ??_C@_0BM@FHHFNKJC@cuEventRecordWithFlags_ptsz?$AA@ 0000000180076558     cudart_static:cudart_global.obj
 0002:0000a578       ??_C@_0N@DLDBPGHM@cuEventQuery?$AA@ 0000000180076578     cudart_static:cudart_global.obj
 0002:0000a588       ??_C@_0BD@GNMDBCJG@cuEventSynchronize?$AA@ 0000000180076588     cudart_static:cudart_global.obj
 0002:0000a5a0       ??_C@_0BC@EGILMLJL@cuEventDestroy_v2?$AA@ 00000001800765a0     cudart_static:cudart_global.obj
 0002:0000a5b8       ??_C@_0BD@COJGHNBG@cuEventElapsedTime?$AA@ 00000001800765b8     cudart_static:cudart_global.obj
 0002:0000a5d0       ??_C@_0BE@EAIIAGPN@cuStreamWaitValue32?$AA@ 00000001800765d0     cudart_static:cudart_global.obj
 0002:0000a5e8       ??_C@_0BJ@OJKAOEFO@cuStreamWaitValue32_ptsz?$AA@ 00000001800765e8     cudart_static:cudart_global.obj
 0002:0000a608       ??_C@_0BF@HEEFEPB@cuStreamWriteValue32?$AA@ 0000000180076608     cudart_static:cudart_global.obj
 0002:0000a620       ??_C@_0BK@GKNJHIJA@cuStreamWriteValue32_ptsz?$AA@ 0000000180076620     cudart_static:cudart_global.obj
 0002:0000a640       ??_C@_0BE@BABJGDJA@cuStreamWaitValue64?$AA@ 0000000180076640     cudart_static:cudart_global.obj
 0002:0000a658       ??_C@_0BJ@MCJANPAA@cuStreamWaitValue64_ptsz?$AA@ 0000000180076658     cudart_static:cudart_global.obj
 0002:0000a678       ??_C@_0BF@FHNFDBJM@cuStreamWriteValue64?$AA@ 0000000180076678     cudart_static:cudart_global.obj
 0002:0000a690       ??_C@_0BK@EBOJEDMO@cuStreamWriteValue64_ptsz?$AA@ 0000000180076690     cudart_static:cudart_global.obj
 0002:0000a6b0       ??_C@_0BD@JFILOGEE@cuStreamBatchMemOp?$AA@ 00000001800766b0     cudart_static:cudart_global.obj
 0002:0000a6c8       ??_C@_0BI@NMABEAAA@cuStreamBatchMemOp_ptsz?$AA@ 00000001800766c8     cudart_static:cudart_global.obj
 0002:0000a6e0       ??_C@_0P@LNOKBPAO@cuStreamCreate?$AA@ 00000001800766e0     cudart_static:cudart_global.obj
 0002:0000a6f0       ??_C@_0BL@BDIPDBBD@cuStreamCreateWithPriority?$AA@ 00000001800766f0     cudart_static:cudart_global.obj
 0002:0000a710       ??_C@_0BE@KHONHPDC@cuStreamGetPriority?$AA@ 0000000180076710     cudart_static:cudart_global.obj
 0002:0000a728       ??_C@_0BJ@MLPBBIKC@cuStreamGetPriority_ptsz?$AA@ 0000000180076728     cudart_static:cudart_global.obj
 0002:0000a748       ??_C@_0BB@HFGBOKNP@cuStreamGetFlags?$AA@ 0000000180076748     cudart_static:cudart_global.obj
 0002:0000a760       ??_C@_0P@PPKBLMKF@cuStreamGetCtx?$AA@ 0000000180076760     cudart_static:cudart_global.obj
 0002:0000a770       ??_C@_0BG@MKAKEPCD@cuStreamGetFlags_ptsz?$AA@ 0000000180076770     cudart_static:cudart_global.obj
 0002:0000a788       ??_C@_0BD@PJMHAHAK@cuStreamDestroy_v2?$AA@ 0000000180076788     cudart_static:cudart_global.obj
 0002:0000a7a0       ??_C@_0BC@LDNOLFPM@cuStreamWaitEvent?$AA@ 00000001800767a0     cudart_static:cudart_global.obj
 0002:0000a7b8       ??_C@_0BH@IMKHMMOG@cuStreamWaitEvent_ptsz?$AA@ 00000001800767b8     cudart_static:cudart_global.obj
 0002:0000a7d0       ??_C@_0BE@NJOMOLME@cuStreamAddCallback?$AA@ 00000001800767d0     cudart_static:cudart_global.obj
 0002:0000a7e8       ??_C@_0BJ@IONJPFOD@cuStreamAddCallback_ptsz?$AA@ 00000001800767e8     cudart_static:cudart_global.obj
 0002:0000a808       ??_C@_0BE@OKHEPNII@cuStreamSynchronize?$AA@ 0000000180076808     cudart_static:cudart_global.obj
 0002:0000a820       ??_C@_0BJ@GBMDMEJA@cuStreamSynchronize_ptsz?$AA@ 0000000180076820     cudart_static:cudart_global.obj
 0002:0000a840       ??_C@_0O@DNMFJLMD@cuStreamQuery?$AA@ 0000000180076840     cudart_static:cudart_global.obj
 0002:0000a850       ??_C@_0BD@FKEIMCOI@cuStreamQuery_ptsz?$AA@ 0000000180076850     cudart_static:cudart_global.obj
 0002:0000a868       ??_C@_0BH@KNBNMAPA@cuStreamAttachMemAsync?$AA@ 0000000180076868     cudart_static:cudart_global.obj
 0002:0000a880       ??_C@_0BM@FCBOGGIP@cuStreamAttachMemAsync_ptsz?$AA@ 0000000180076880     cudart_static:cudart_global.obj
 0002:0000a8a0       ??_C@_0BH@LPPIBNPJ@cuStreamCopyAttributes?$AA@ 00000001800768a0     cudart_static:cudart_global.obj
 0002:0000a8b8       ??_C@_0BM@FMONAHCC@cuStreamCopyAttributes_ptsz?$AA@ 00000001800768b8     cudart_static:cudart_global.obj
 0002:0000a8d8       ??_C@_0BF@CEJOFOMK@cuStreamGetAttribute?$AA@ 00000001800768d8     cudart_static:cudart_global.obj
 0002:0000a8f0       ??_C@_0BK@ONCCNGOE@cuStreamGetAttribute_ptsz?$AA@ 00000001800768f0     cudart_static:cudart_global.obj
 0002:0000a910       ??_C@_0BF@FACAJCIG@cuStreamSetAttribute?$AA@ 0000000180076910     cudart_static:cudart_global.obj
 0002:0000a928       ??_C@_0BK@MICJFNPK@cuStreamSetAttribute_ptsz?$AA@ 0000000180076928     cudart_static:cudart_global.obj
 0002:0000a948       ??_C@_0BG@NLBAKBOI@cuDeviceCanAccessPeer?$AA@ 0000000180076948     cudart_static:cudart_global.obj
 0002:0000a960       ??_C@_0BG@FJIDOCO@cuCtxEnablePeerAccess?$AA@ 0000000180076960     cudart_static:cudart_global.obj
 0002:0000a978       ??_C@_0BH@JPLBFDLI@cuCtxDisablePeerAccess?$AA@ 0000000180076978     cudart_static:cudart_global.obj
 0002:0000a990       ??_C@_0BE@GJNGFIJE@cuIpcGetEventHandle?$AA@ 0000000180076990     cudart_static:cudart_global.obj
 0002:0000a9a8       ??_C@_0BF@CIBEHPGP@cuIpcOpenEventHandle?$AA@ 00000001800769a8     cudart_static:cudart_global.obj
 0002:0000a9c0       ??_C@_0BC@HHLBDMDB@cuIpcGetMemHandle?$AA@ 00000001800769c0     cudart_static:cudart_global.obj
 0002:0000a9d8       ??_C@_0BD@CGPDCFAL@cuIpcOpenMemHandle?$AA@ 00000001800769d8     cudart_static:cudart_global.obj
 0002:0000a9f0       ??_C@_0BG@OOHAMDOB@cuIpcOpenMemHandle_v2?$AA@ 00000001800769f0     cudart_static:cudart_global.obj
 0002:0000aa08       ??_C@_0BE@GPBJBNBJ@cuIpcCloseMemHandle?$AA@ 0000000180076a08     cudart_static:cudart_global.obj
 0002:0000aa20       ??_C@_0BB@BLBNNMNH@cuGLCtxCreate_v2?$AA@ 0000000180076a20     cudart_static:cudart_global.obj
 0002:0000aa38       ??_C@_08ODNBLOHB@cuGLInit?$AA@ 0000000180076a38     cudart_static:cudart_global.obj
 0002:0000aa48       ??_C@_0P@NLFLBNAP@cuGLGetDevices?$AA@ 0000000180076a48     cudart_static:cudart_global.obj
 0002:0000aa58       ??_C@_0BJ@MIFBPOEN@cuGLRegisterBufferObject?$AA@ 0000000180076a58     cudart_static:cudart_global.obj
 0002:0000aa78       ??_C@_0BH@EIJOKJAA@cuGLMapBufferObject_v2?$AA@ 0000000180076a78     cudart_static:cudart_global.obj
 0002:0000aa90       ??_C@_0BM@FENFCCJH@cuGLMapBufferObject_v2_ptds?$AA@ 0000000180076a90     cudart_static:cudart_global.obj
 0002:0000aab0       ??_C@_0BM@FHKOIMKM@cuGLMapBufferObjectAsync_v2?$AA@ 0000000180076ab0     cudart_static:cudart_global.obj
 0002:0000aad0       ??_C@_0CB@FHHEOKLO@cuGLMapBufferObjectAsync_v2_ptsz@ 0000000180076ad0     cudart_static:cudart_global.obj
 0002:0000aaf8       ??_C@_0BG@EHLOPHDP@cuGLUnmapBufferObject?$AA@ 0000000180076af8     cudart_static:cudart_global.obj
 0002:0000ab10       ??_C@_0BL@CIOAHJBP@cuGLUnmapBufferObjectAsync?$AA@ 0000000180076b10     cudart_static:cudart_global.obj
 0002:0000ab30       ??_C@_0BL@POALDJGJ@cuGLUnregisterBufferObject?$AA@ 0000000180076b30     cudart_static:cudart_global.obj
 0002:0000ab50       ??_C@_0BM@NGOHAHGG@cuGLSetBufferObjectMapFlags?$AA@ 0000000180076b50     cudart_static:cudart_global.obj
 0002:0000ab70       ??_C@_0BK@GKPCLOOL@cuGraphicsGLRegisterImage?$AA@ 0000000180076b70     cudart_static:cudart_global.obj
 0002:0000ab90       ??_C@_0BL@MNKFLNED@cuGraphicsGLRegisterBuffer?$AA@ 0000000180076b90     cudart_static:cudart_global.obj
 0002:0000abb0       ??_C@_0P@DBKBCFHC@cuWGLGetDevice?$AA@ 0000000180076bb0     cudart_static:cudart_global.obj
 0002:0000abc0       ??_C@_0BN@IPCKCOAC@cuGraphicsUnregisterResource?$AA@ 0000000180076bc0     cudart_static:cudart_global.obj
 0002:0000abe0       ??_C@_0BH@PNJEFODJ@cuGraphicsMapResources?$AA@ 0000000180076be0     cudart_static:cudart_global.obj
 0002:0000abf8       ??_C@_0BM@LPNLAHOJ@cuGraphicsMapResources_ptsz?$AA@ 0000000180076bf8     cudart_static:cudart_global.obj
 0002:0000ac18       ??_C@_0BJ@PIJKGJLG@cuGraphicsUnmapResources?$AA@ 0000000180076c18     cudart_static:cudart_global.obj
 0002:0000ac38       ??_C@_0BO@JGHIDJPN@cuGraphicsUnmapResources_ptsz?$AA@ 0000000180076c38     cudart_static:cudart_global.obj
 0002:0000ac58       ??_C@_0CB@KLBGDCND@cuGraphicsResourceSetMapFlags_v2@ 0000000180076c58     cudart_static:cudart_global.obj
 0002:0000ac80       ??_C@_0CE@MHCLLDEH@cuGraphicsSubResourceGetMappedAr@ 0000000180076c80     cudart_static:cudart_global.obj
 0002:0000aca8       ??_C@_0CK@GOOLKJPE@cuGraphicsResourceGetMappedMipma@ 0000000180076ca8     cudart_static:cudart_global.obj
 0002:0000acd8       ??_C@_0CG@DPACCDJI@cuGraphicsResourceGetMappedPoint@ 0000000180076cd8     cudart_static:cudart_global.obj
 0002:0000ad00       ??_C@_0BF@HKHLPHDC@cuProfilerInitialize?$AA@ 0000000180076d00     cudart_static:cudart_global.obj
 0002:0000ad18       ??_C@_0BA@EELPNKID@cuProfilerStart?$AA@ 0000000180076d18     cudart_static:cudart_global.obj
 0002:0000ad28       ??_C@_0P@NEDHAKMB@cuProfilerStop?$AA@ 0000000180076d28     cudart_static:cudart_global.obj
 0002:0000ad38       ??_C@_0BB@PHGOMJJK@cuD3D11GetDevice?$AA@ 0000000180076d38     cudart_static:cudart_global.obj
 0002:0000ad50       ??_C@_0BC@BEDPDOKG@cuD3D11GetDevices?$AA@ 0000000180076d50     cudart_static:cudart_global.obj
 0002:0000ad68       ??_C@_0BJ@ENLAMEED@cuD3D11CtxCreateOnDevice?$AA@ 0000000180076d68     cudart_static:cudart_global.obj
 0002:0000ad88       ??_C@_0CA@CLJLEPCC@cuGraphicsD3D11RegisterResource?$AA@ 0000000180076d88     cudart_static:cudart_global.obj
 0002:0000ada8       ??_C@_0BJ@DILEHEBE@cuD3D11GetDirect3DDevice?$AA@ 0000000180076da8     cudart_static:cudart_global.obj
 0002:0000adc8       ??_C@_0BB@DGOABGFK@cuD3D10GetDevice?$AA@ 0000000180076dc8     cudart_static:cudart_global.obj
 0002:0000ade0       ??_C@_0BC@IPJKHCMJ@cuD3D10GetDevices?$AA@ 0000000180076de0     cudart_static:cudart_global.obj
 0002:0000adf8       ??_C@_0BJ@JKFCEEBL@cuD3D10CtxCreateOnDevice?$AA@ 0000000180076df8     cudart_static:cudart_global.obj
 0002:0000ae18       ??_C@_0BJ@OPFGPEEM@cuD3D10GetDirect3DDevice?$AA@ 0000000180076e18     cudart_static:cudart_global.obj
 0002:0000ae38       ??_C@_0CA@MEMJPJMD@cuGraphicsD3D10RegisterResource?$AA@ 0000000180076e38     cudart_static:cudart_global.obj
 0002:0000ae58       ??_C@_0BI@NAJLJNO@cuD3D10RegisterResource?$AA@ 0000000180076e58     cudart_static:cudart_global.obj
 0002:0000ae70       ??_C@_0BK@NGDPFHJG@cuD3D10UnregisterResource?$AA@ 0000000180076e70     cudart_static:cudart_global.obj
 0002:0000ae90       ??_C@_0BE@DBGLMJNC@cuD3D10MapResources?$AA@ 0000000180076e90     cudart_static:cudart_global.obj
 0002:0000aea8       ??_C@_0BG@CLHLIJIJ@cuD3D10UnmapResources?$AA@ 0000000180076ea8     cudart_static:cudart_global.obj
 0002:0000aec0       ??_C@_0BL@CDFPJNJP@cuD3D10ResourceSetMapFlags?$AA@ 0000000180076ec0     cudart_static:cudart_global.obj
 0002:0000aee0       ??_C@_0CH@NBLHKLN@cuD3D10ResourceGetSurfaceDimensi@ 0000000180076ee0     cudart_static:cudart_global.obj
 0002:0000af08       ??_C@_0BO@INHNPEAA@cuD3D10ResourceGetMappedArray?$AA@ 0000000180076f08     cudart_static:cudart_global.obj
 0002:0000af28       ??_C@_0CD@FADFAEH@cuD3D10ResourceGetMappedPointer_@ 0000000180076f28     cudart_static:cudart_global.obj
 0002:0000af50       ??_C@_0CA@MABBNBMG@cuD3D10ResourceGetMappedSize_v2?$AA@ 0000000180076f50     cudart_static:cudart_global.obj
 0002:0000af70       ??_C@_0CB@JJPECHJO@cuD3D10ResourceGetMappedPitch_v2@ 0000000180076f70     cudart_static:cudart_global.obj
 0002:0000af98       ??_C@_0BA@HMKACGED@cuD3D9GetDevice?$AA@ 0000000180076f98     cudart_static:cudart_global.obj
 0002:0000afa8       ??_C@_0BB@OLLLJKDJ@cuD3D9GetDevices?$AA@ 0000000180076fa8     cudart_static:cudart_global.obj
 0002:0000afc0       ??_C@_0BI@EMNOIBMN@cuD3D9CtxCreateOnDevice?$AA@ 0000000180076fc0     cudart_static:cudart_global.obj
 0002:0000afd8       ??_C@_0BI@DJNKDBJK@cuD3D9GetDirect3DDevice?$AA@ 0000000180076fd8     cudart_static:cudart_global.obj
 0002:0000aff0       ??_C@_0BP@JLAPBMAN@cuGraphicsD3D9RegisterResource?$AA@ 0000000180076ff0     cudart_static:cudart_global.obj
 0002:0000b010       ??_C@_0BH@FHGPIHHO@cuD3D9RegisterResource?$AA@ 0000000180077010     cudart_static:cudart_global.obj
 0002:0000b028       ??_C@_0BJ@LJFJKMLC@cuD3D9UnregisterResource?$AA@ 0000000180077028     cudart_static:cudart_global.obj
 0002:0000b048       ??_C@_0BD@ILAGCGAE@cuD3D9MapResources?$AA@ 0000000180077048     cudart_static:cudart_global.obj
 0002:0000b060       ??_C@_0BF@MMKMKOJE@cuD3D9UnmapResources?$AA@ 0000000180077060     cudart_static:cudart_global.obj
 0002:0000b078       ??_C@_0BK@BPDDBPLF@cuD3D9ResourceSetMapFlags?$AA@ 0000000180077078     cudart_static:cudart_global.obj
 0002:0000b098       ??_C@_0CG@NDEOBCEC@cuD3D9ResourceGetSurfaceDimensio@ 0000000180077098     cudart_static:cudart_global.obj
 0002:0000b0c0       ??_C@_0BN@PFBGOALA@cuD3D9ResourceGetMappedArray?$AA@ 00000001800770c0     cudart_static:cudart_global.obj
 0002:0000b0e0       ??_C@_0CC@GJNLEPKE@cuD3D9ResourceGetMappedPointer_v@ 00000001800770e0     cudart_static:cudart_global.obj
 0002:0000b108       ??_C@_0BP@DOAONDGI@cuD3D9ResourceGetMappedSize_v2?$AA@ 0000000180077108     cudart_static:cudart_global.obj
 0002:0000b128       ??_C@_0CA@KIGELGHD@cuD3D9ResourceGetMappedPitch_v2?$AA@ 0000000180077128     cudart_static:cudart_global.obj
 0002:0000b148       ??_C@_0M@ENJJCEOE@cuD3D9Begin?$AA@ 0000000180077148     cudart_static:cudart_global.obj
 0002:0000b158       ??_C@_0BL@KKLPPAFL@cuD3D9RegisterVertexBuffer?$AA@ 0000000180077158     cudart_static:cudart_global.obj
 0002:0000b178       ??_C@_0BN@GMJCFGOO@cuD3D9UnregisterVertexBuffer?$AA@ 0000000180077178     cudart_static:cudart_global.obj
 0002:0000b198       ??_C@_0BJ@MMHHCMNB@cuD3D9MapVertexBuffer_v2?$AA@ 0000000180077198     cudart_static:cudart_global.obj
 0002:0000b1b8       ??_C@_0BI@HJMDGNJF@cuD3D9UnmapVertexBuffer?$AA@ 00000001800771b8     cudart_static:cudart_global.obj
 0002:0000b1d0       ??_C@_09HPCHKPLD@cuD3D9End?$AA@ 00000001800771d0     cudart_static:cudart_global.obj
 0002:0000b1e0       ??_C@_0BB@EFMLDKK@cuGetExportTable?$AA@ 00000001800771e0     cudart_static:cudart_global.obj
 0002:0000b1f8       ??_C@_0DF@BKMNDMBA@cuOccupancyMaxActiveBlocksPerMul@ 00000001800771f8     cudart_static:cudart_global.obj
 0002:0000b230       ??_C@_0CI@FDKEAAFF@cuOccupancyAvailableDynamicSMemP@ 0000000180077230     cudart_static:cudart_global.obj
 0002:0000b258       ??_C@_0M@GNFFFDME@cuMemAdvise?$AA@ 0000000180077258     cudart_static:cudart_global.obj
 0002:0000b268       ??_C@_0BD@JLDILBLK@cuMemPrefetchAsync?$AA@ 0000000180077268     cudart_static:cudart_global.obj
 0002:0000b280       ??_C@_0BI@CEEEPEOA@cuMemPrefetchAsync_ptsz?$AA@ 0000000180077280     cudart_static:cudart_global.obj
 0002:0000b298       ??_C@_0BH@JPKMGBOF@cuMemRangeGetAttribute?$AA@ 0000000180077298     cudart_static:cudart_global.obj
 0002:0000b2b0       ??_C@_0BI@NEONJAKD@cuMemRangeGetAttributes?$AA@ 00000001800772b0     cudart_static:cudart_global.obj
 0002:0000b2c8       ??_C@_0BB@COEDOFII@cuGetErrorString?$AA@ 00000001800772c8     cudart_static:cudart_global.obj
 0002:0000b2e0       ??_C@_0P@GECMDDHD@cuGetErrorName?$AA@ 00000001800772e0     cudart_static:cudart_global.obj
 0002:0000b2f0       ??_C@_0O@PMCNLFJO@cuGraphCreate?$AA@ 00000001800772f0     cudart_static:cudart_global.obj
 0002:0000b300       ??_C@_0BF@LKMNMNHM@cuGraphAddKernelNode?$AA@ 0000000180077300     cudart_static:cudart_global.obj
 0002:0000b318       ??_C@_0BL@PJDNFHPM@cuGraphKernelNodeGetParams?$AA@ 0000000180077318     cudart_static:cudart_global.obj
 0002:0000b338       ??_C@_0BL@NHHIHGGO@cuGraphKernelNodeSetParams?$AA@ 0000000180077338     cudart_static:cudart_global.obj
 0002:0000b358       ??_C@_0BF@NMPJLPAP@cuGraphAddMemcpyNode?$AA@ 0000000180077358     cudart_static:cudart_global.obj
 0002:0000b370       ??_C@_0BL@FMOHFDAH@cuGraphMemcpyNodeGetParams?$AA@ 0000000180077370     cudart_static:cudart_global.obj
 0002:0000b390       ??_C@_0BL@HCKCHCJF@cuGraphMemcpyNodeSetParams?$AA@ 0000000180077390     cudart_static:cudart_global.obj
 0002:0000b3b0       ??_C@_0BF@CJDKCOJD@cuGraphAddMemsetNode?$AA@ 00000001800773b0     cudart_static:cudart_global.obj
 0002:0000b3c8       ??_C@_0BL@CLMGFLPO@cuGraphMemsetNodeGetParams?$AA@ 00000001800773c8     cudart_static:cudart_global.obj
 0002:0000b3e8       ??_C@_0BL@FIDHKGM@cuGraphMemsetNodeSetParams?$AA@ 00000001800773e8     cudart_static:cudart_global.obj
 0002:0000b408       ??_C@_0BD@MBFAKFDH@cuGraphAddHostNode?$AA@ 0000000180077408     cudart_static:cudart_global.obj
 0002:0000b420       ??_C@_0BJ@KNKGHHPK@cuGraphHostNodeGetParams?$AA@ 0000000180077420     cudart_static:cudart_global.obj
 0002:0000b440       ??_C@_0BJ@IDODFGGI@cuGraphHostNodeSetParams?$AA@ 0000000180077440     cudart_static:cudart_global.obj
 0002:0000b460       ??_C@_0BJ@HNJJICOP@cuGraphAddChildGraphNode?$AA@ 0000000180077460     cudart_static:cudart_global.obj
 0002:0000b480       ??_C@_0BO@KAODINOF@cuGraphChildGraphNodeGetGraph?$AA@ 0000000180077480     cudart_static:cudart_global.obj
 0002:0000b4a0       ??_C@_0BE@MGGMBCAK@cuGraphAddEmptyNode?$AA@ 00000001800774a0     cudart_static:cudart_global.obj
 0002:0000b4b8       ??_C@_0BK@EKDGCJIG@cuGraphAddEventRecordNode?$AA@ 00000001800774b8     cudart_static:cudart_global.obj
 0002:0000b4d8       ??_C@_0BP@PMPBGDLB@cuGraphEventRecordNodeGetEvent?$AA@ 00000001800774d8     cudart_static:cudart_global.obj
 0002:0000b4f8       ??_C@_0BP@NNNHAMM@cuGraphEventRecordNodeSetEvent?$AA@ 00000001800774f8     cudart_static:cudart_global.obj
 0002:0000b518       ??_C@_0BI@NKOEOLLL@cuGraphAddEventWaitNode?$AA@ 0000000180077518     cudart_static:cudart_global.obj
 0002:0000b530       ??_C@_0BN@LMOOBIEJ@cuGraphEventWaitNodeGetEvent?$AA@ 0000000180077530     cudart_static:cudart_global.obj
 0002:0000b550       ??_C@_0BN@ENMCALDE@cuGraphEventWaitNodeSetEvent?$AA@ 0000000180077550     cudart_static:cudart_global.obj
 0002:0000b570       ??_C@_0CH@KLKOCNMF@cuGraphAddExternalSemaphoresSign@ 0000000180077570     cudart_static:cudart_global.obj
 0002:0000b598       ??_C@_0CN@JHEOEPAA@cuGraphExternalSemaphoresSignalN@ 0000000180077598     cudart_static:cudart_global.obj
 0002:0000b5c8       ??_C@_0CN@LJALGOJC@cuGraphExternalSemaphoresSignalN@ 00000001800775c8     cudart_static:cudart_global.obj
 0002:0000b5f8       ??_C@_0CF@NCCEBNPG@cuGraphAddExternalSemaphoresWait@ 00000001800775f8     cudart_static:cudart_global.obj
 0002:0000b620       ??_C@_0CL@KGKOOFKP@cuGraphExternalSemaphoresWaitNod@ 0000000180077620     cudart_static:cudart_global.obj
 0002:0000b650       ??_C@_0CL@IIOLMEDN@cuGraphExternalSemaphoresWaitNod@ 0000000180077650     cudart_static:cudart_global.obj
 0002:0000b680       ??_C@_0DB@JNAFBPKC@cuGraphExecExternalSemaphoresSig@ 0000000180077680     cudart_static:cudart_global.obj
 0002:0000b6b8       ??_C@_0CP@IKELDCMJ@cuGraphExecExternalSemaphoresWai@ 00000001800776b8     cudart_static:cudart_global.obj
 0002:0000b6e8       ??_C@_0N@EBANNKCG@cuGraphClone?$AA@ 00000001800776e8     cudart_static:cudart_global.obj
 0002:0000b6f8       ??_C@_0BH@IBJBKIPB@cuGraphNodeFindInClone?$AA@ 00000001800776f8     cudart_static:cudart_global.obj
 0002:0000b710       ??_C@_0BD@IJMLIECN@cuGraphNodeGetType?$AA@ 0000000180077710     cudart_static:cudart_global.obj
 0002:0000b728       ??_C@_0BA@KNIKLHBF@cuGraphGetNodes?$AA@ 0000000180077728     cudart_static:cudart_global.obj
 0002:0000b738       ??_C@_0BE@DCEALNKD@cuGraphGetRootNodes?$AA@ 0000000180077738     cudart_static:cudart_global.obj
 0002:0000b750       ??_C@_0BA@KCCINJCJ@cuGraphGetEdges?$AA@ 0000000180077750     cudart_static:cudart_global.obj
 0002:0000b760       ??_C@_0BL@JNCEOMKA@cuGraphNodeGetDependencies?$AA@ 0000000180077760     cudart_static:cudart_global.obj
 0002:0000b780       ??_C@_0BN@HCBLEMCJ@cuGraphNodeGetDependentNodes?$AA@ 0000000180077780     cudart_static:cudart_global.obj
 0002:0000b7a0       ??_C@_0BH@EANNOME@cuGraphAddDependencies?$AA@ 00000001800777a0     cudart_static:cudart_global.obj
 0002:0000b7b8       ??_C@_0BK@PJIBMMLA@cuGraphRemoveDependencies?$AA@ 00000001800777b8     cudart_static:cudart_global.obj
 0002:0000b7d8       ??_C@_0BD@GOFEGFCO@cuGraphDestroyNode?$AA@ 00000001800777d8     cudart_static:cudart_global.obj
 0002:0000b7f0       ??_C@_0BD@LEBPOKHB@cuGraphInstantiate?$AA@ 00000001800777f0     cudart_static:cudart_global.obj
 0002:0000b808       ??_C@_0BG@FCMIELCH@cuGraphInstantiate_v2?$AA@ 0000000180077808     cudart_static:cudart_global.obj
 0002:0000b820       ??_C@_0O@FLNCPIPJ@cuGraphUpload?$AA@ 0000000180077820     cudart_static:cudart_global.obj
 0002:0000b830       ??_C@_0BD@LCIEEDPG@cuGraphUpload_ptsz?$AA@ 0000000180077830     cudart_static:cudart_global.obj
 0002:0000b848       ??_C@_0O@BLGDPJCO@cuGraphLaunch?$AA@ 0000000180077848     cudart_static:cudart_global.obj
 0002:0000b858       ??_C@_0BD@FAIFMPI@cuGraphLaunch_ptsz?$AA@ 0000000180077858     cudart_static:cudart_global.obj
 0002:0000b870       ??_C@_0BD@JHALMFJB@cuGraphExecDestroy?$AA@ 0000000180077870     cudart_static:cudart_global.obj
 0002:0000b888       ??_C@_0P@BEHJNJGO@cuGraphDestroy?$AA@ 0000000180077888     cudart_static:cudart_global.obj
 0002:0000b898       ??_C@_0BF@HNALFFCM@cuStreamBeginCapture?$AA@ 0000000180077898     cudart_static:cudart_global.obj
 0002:0000b8b0       ??_C@_0BK@NBGPPJM@cuStreamBeginCapture_ptsz?$AA@ 00000001800778b0     cudart_static:cudart_global.obj
 0002:0000b8d0       ??_C@_0BI@EPCLJAAH@cuStreamBeginCapture_v2?$AA@ 00000001800778d0     cudart_static:cudart_global.obj
 0002:0000b8e8       ??_C@_0BN@CPKJONCM@cuStreamBeginCapture_v2_ptsz?$AA@ 00000001800778e8     cudart_static:cudart_global.obj
 0002:0000b908       ??_C@_0BD@OGFKIIFI@cuStreamEndCapture?$AA@ 0000000180077908     cudart_static:cudart_global.obj
 0002:0000b920       ??_C@_0BI@CKLBMPIB@cuStreamEndCapture_ptsz?$AA@ 0000000180077920     cudart_static:cudart_global.obj
 0002:0000b938       ??_C@_0BE@JIGLCNID@cuStreamIsCapturing?$AA@ 0000000180077938     cudart_static:cudart_global.obj
 0002:0000b950       ??_C@_0BJ@DKDELDCB@cuStreamIsCapturing_ptsz?$AA@ 0000000180077950     cudart_static:cudart_global.obj
 0002:0000b970       ??_C@_0BH@JLDOMJLC@cuStreamGetCaptureInfo?$AA@ 0000000180077970     cudart_static:cudart_global.obj
 0002:0000b988       ??_C@_0BM@LODCELOA@cuStreamGetCaptureInfo_ptsz?$AA@ 0000000180077988     cudart_static:cudart_global.obj
 0002:0000b9a8       ??_C@_0BP@OIOJDICI@cuGraphExecKernelNodeSetParams?$AA@ 00000001800779a8     cudart_static:cudart_global.obj
 0002:0000b9c8       ??_C@_0BP@ENDDDMND@cuGraphExecMemcpyNodeSetParams?$AA@ 00000001800779c8     cudart_static:cudart_global.obj
 0002:0000b9e8       ??_C@_0BP@DKBCDECK@cuGraphExecMemsetNodeSetParams?$AA@ 00000001800779e8     cudart_static:cudart_global.obj
 0002:0000ba08       ??_C@_0BN@HPNLFGJL@cuGraphExecHostNodeSetParams?$AA@ 0000000180077a08     cudart_static:cudart_global.obj
 0002:0000ba28       ??_C@_0CD@OMFACKG@cuGraphExecChildGraphNodeSetPara@ 0000000180077a28     cudart_static:cudart_global.obj
 0002:0000ba50       ??_C@_0CD@BHJKEBIB@cuGraphExecEventRecordNodeSetEve@ 0000000180077a50     cudart_static:cudart_global.obj
 0002:0000ba78       ??_C@_0CB@HKIFLALB@cuGraphExecEventWaitNodeSetEvent@ 0000000180077a78     cudart_static:cudart_global.obj
 0002:0000baa0       ??_C@_0CC@OMFFMJKO@cuThreadExchangeStreamCaptureMod@ 0000000180077aa0     cudart_static:cudart_global.obj
 0002:0000bac8       ??_C@_0BC@CJBCKMMG@cuGraphExecUpdate?$AA@ 0000000180077ac8     cudart_static:cudart_global.obj
 0002:0000bae0       ??_C@_0CA@POAEFPAF@cuGraphKernelNodeCopyAttributes?$AA@ 0000000180077ae0     cudart_static:cudart_global.obj
 0002:0000bb00       ??_C@_0BO@HOKMJMBH@cuGraphKernelNodeGetAttribute?$AA@ 0000000180077b00     cudart_static:cudart_global.obj
 0002:0000bb20       ??_C@_0BO@KBCFAFL@cuGraphKernelNodeSetAttribute?$AA@ 0000000180077b20     cudart_static:cudart_global.obj
 0002:0000bb40       __xmm@000000000000000000000000ffffffff 0000000180077b40     cudart_static:cudart_global.obj
 0002:0000bbc0       ?cudartErrorTableEntryCount@cudart@@3IB 0000000180077bc0     cudart_static:generated_error_tables.obj
 0002:0000c880       ??_C@_0M@KMNBMIPJ@cudaSuccess?$AA@ 0000000180078880     cudart_static:generated_error_tables.obj
 0002:0000c890       ??_C@_08PLOOINE@no?5error?$AA@ 0000000180078890     cudart_static:generated_error_tables.obj
 0002:0000c8a0       ??_C@_0BG@GDJODMMM@cudaErrorInvalidValue?$AA@ 00000001800788a0     cudart_static:generated_error_tables.obj
 0002:0000c8b8       ??_C@_0BB@FCMFBGOM@invalid?5argument?$AA@ 00000001800788b8     cudart_static:generated_error_tables.obj
 0002:0000c8d0       ??_C@_0BK@IKHIPDGJ@cudaErrorMemoryAllocation?$AA@ 00000001800788d0     cudart_static:generated_error_tables.obj
 0002:0000c8f0       ??_C@_0O@BNNCBLEN@out?5of?5memory?$AA@ 00000001800788f0     cudart_static:generated_error_tables.obj
 0002:0000c900       ??_C@_0BN@IMJKIHPH@cudaErrorInitializationError?$AA@ 0000000180078900     cudart_static:generated_error_tables.obj
 0002:0000c920       ??_C@_0BF@BLPPFHJN@initialization?5error?$AA@ 0000000180078920     cudart_static:generated_error_tables.obj
 0002:0000c938       ??_C@_0BJ@KGIKCKPH@cudaErrorCudartUnloading?$AA@ 0000000180078938     cudart_static:generated_error_tables.obj
 0002:0000c958       ??_C@_0BF@PJNBNGMN@driver?5shutting?5down?$AA@ 0000000180078958     cudart_static:generated_error_tables.obj
 0002:0000c970       ??_C@_0BK@ONFAMFBJ@cudaErrorProfilerDisabled?$AA@ 0000000180078970     cudart_static:generated_error_tables.obj
 0002:0000c990       ??_C@_0DG@EPCHFMHL@profiler?5disabled?5while?5using?5ex@ 0000000180078990     cudart_static:generated_error_tables.obj
 0002:0000c9c8       ??_C@_0CA@NCMPIFOL@cudaErrorProfilerNotInitialized?$AA@ 00000001800789c8     cudart_static:generated_error_tables.obj
 0002:0000c9e8       ??_C@_0DI@CIPKACOI@profiler?5not?5initialized?3?5call?5c@ 00000001800789e8     cudart_static:generated_error_tables.obj
 0002:0000ca20       ??_C@_0CA@LKCLIMIK@cudaErrorProfilerAlreadyStarted?$AA@ 0000000180078a20     cudart_static:generated_error_tables.obj
 0002:0000ca40       ??_C@_0BJ@GKKBPOMC@profiler?5already?5started?$AA@ 0000000180078a40     cudart_static:generated_error_tables.obj
 0002:0000ca60       ??_C@_0CA@HFIDCJMN@cudaErrorProfilerAlreadyStopped?$AA@ 0000000180078a60     cudart_static:generated_error_tables.obj
 0002:0000ca80       ??_C@_0BJ@KFAJFLIF@profiler?5already?5stopped?$AA@ 0000000180078a80     cudart_static:generated_error_tables.obj
 0002:0000caa0       ??_C@_0BO@PELEDPEM@cudaErrorInvalidConfiguration?$AA@ 0000000180078aa0     cudart_static:generated_error_tables.obj
 0002:0000cac0       ??_C@_0BP@MFPMNJPL@invalid?5configuration?5argument?$AA@ 0000000180078ac0     cudart_static:generated_error_tables.obj
 0002:0000cae0       ??_C@_0BL@FNPJBEBK@cudaErrorInvalidPitchValue?$AA@ 0000000180078ae0     cudart_static:generated_error_tables.obj
 0002:0000cb00       ??_C@_0BH@PPNKDKOD@invalid?5pitch?5argument?$AA@ 0000000180078b00     cudart_static:generated_error_tables.obj
 0002:0000cb18       ??_C@_0BH@BLHNFIBN@cudaErrorInvalidSymbol?$AA@ 0000000180078b18     cudart_static:generated_error_tables.obj
 0002:0000cb30       ??_C@_0BG@EICDNGLJ@invalid?5device?5symbol?$AA@ 0000000180078b30     cudart_static:generated_error_tables.obj
 0002:0000cb48       ??_C@_0BM@GNBGGALL@cudaErrorInvalidHostPointer?$AA@ 0000000180078b48     cudart_static:generated_error_tables.obj
 0002:0000cb68       ??_C@_0BF@MANGCFKK@invalid?5host?5pointer?$AA@ 0000000180078b68     cudart_static:generated_error_tables.obj
 0002:0000cb80       ??_C@_0BO@DDBBOPJK@cudaErrorInvalidDevicePointer?$AA@ 0000000180078b80     cudart_static:generated_error_tables.obj
 0002:0000cba0       ??_C@_0BH@PDNFNJJL@invalid?5device?5pointer?$AA@ 0000000180078ba0     cudart_static:generated_error_tables.obj
 0002:0000cbb8       ??_C@_0BI@EEILLJEL@cudaErrorInvalidTexture?$AA@ 0000000180078bb8     cudart_static:generated_error_tables.obj
 0002:0000cbd0       ??_C@_0BK@FOLOEBK@invalid?5texture?5reference?$AA@ 0000000180078bd0     cudart_static:generated_error_tables.obj
 0002:0000cbf0       ??_C@_0BP@KMIIPNBF@cudaErrorInvalidTextureBinding?$AA@ 0000000180078bf0     cudart_static:generated_error_tables.obj
 0002:0000cc10       ??_C@_0CC@GKNECKPK@texture?5is?5not?5bound?5to?5a?5pointe@ 0000000180078c10     cudart_static:generated_error_tables.obj
 0002:0000cc38       ??_C@_0CC@FFMJNKHO@cudaErrorInvalidChannelDescripto@ 0000000180078c38     cudart_static:generated_error_tables.obj
 0002:0000cc60       ??_C@_0BL@DOIGEJPO@invalid?5channel?5descriptor?$AA@ 0000000180078c60     cudart_static:generated_error_tables.obj
 0002:0000cc80       ??_C@_0CA@KIOIBPDF@cudaErrorInvalidMemcpyDirection?$AA@ 0000000180078c80     cudart_static:generated_error_tables.obj
 0002:0000cca0       ??_C@_0CC@PHJKIMEC@invalid?5copy?5direction?5for?5memcp@ 0000000180078ca0     cudart_static:generated_error_tables.obj
 0002:0000ccc8       ??_C@_0BL@OIBJGNIO@cudaErrorAddressOfConstant?$AA@ 0000000180078cc8     cudart_static:generated_error_tables.obj
 0002:0000cce8       ??_C@_0BM@LKIEEBKD@invalid?5address?5of?5constant?$AA@ 0000000180078ce8     cudart_static:generated_error_tables.obj
 0002:0000cd08       ??_C@_0BM@FFFGOKNM@cudaErrorTextureFetchFailed?$AA@ 0000000180078d08     cudart_static:generated_error_tables.obj
 0002:0000cd28       ??_C@_0BK@DCLCAPAD@fetch?5from?5texture?5failed?$AA@ 0000000180078d28     cudart_static:generated_error_tables.obj
 0002:0000cd48       ??_C@_0BJ@EGCKNKDG@cudaErrorTextureNotBound?$AA@ 0000000180078d48     cudart_static:generated_error_tables.obj
 0002:0000cd68       ??_C@_0CO@BOBNGLB@cannot?5fetch?5from?5a?5texture?5that@ 0000000180078d68     cudart_static:generated_error_tables.obj
 0002:0000cd98       ??_C@_0BO@KIAINAIN@cudaErrorSynchronizationError?$AA@ 0000000180078d98     cudart_static:generated_error_tables.obj
 0002:0000cdb8       ??_C@_0CB@FBCNLAFM@incorrect?5use?5of?5__syncthreads?$CI?$CJ@ 0000000180078db8     cudart_static:generated_error_tables.obj
 0002:0000cde0       ??_C@_0BO@CIEDABBO@cudaErrorInvalidFilterSetting?$AA@ 0000000180078de0     cudart_static:generated_error_tables.obj
 0002:0000ce00       ??_C@_0DC@OPMKHFLG@linear?5filtering?5not?5supported?5f@ 0000000180078e00     cudart_static:generated_error_tables.obj
 0002:0000ce38       ??_C@_0BM@ELPOBKDD@cudaErrorInvalidNormSetting?$AA@ 0000000180078e38     cudart_static:generated_error_tables.obj
 0002:0000ce60       ??_C@_0EB@HOCMFDLN@read?5as?5normalized?5float?5not?5sup@ 0000000180078e60     cudart_static:generated_error_tables.obj
 0002:0000cea8       ??_C@_0BO@FCNCOLGP@cudaErrorMixedDeviceExecution?$AA@ 0000000180078ea8     cudart_static:generated_error_tables.obj
 0002:0000ced0       ??_C@_0EA@GNFPOPGM@device?5emulation?5mode?5and?5device@ 0000000180078ed0     cudart_static:generated_error_tables.obj
 0002:0000cf10       ??_C@_0BL@EPDIBLBJ@cudaErrorNotYetImplemented?$AA@ 0000000180078f10     cudart_static:generated_error_tables.obj
 0002:0000cf30       ??_C@_0BM@KGHEMAH@feature?5not?5yet?5implemented?$AA@ 0000000180078f30     cudart_static:generated_error_tables.obj
 0002:0000cf50       ??_C@_0BN@JCLGPGEM@cudaErrorMemoryValueTooLarge?$AA@ 0000000180078f50     cudart_static:generated_error_tables.obj
 0002:0000cf70       ??_C@_0DI@KJOPIKFF@memory?5size?5or?5pointer?5value?5too@ 0000000180078f70     cudart_static:generated_error_tables.obj
 0002:0000cfa8       ??_C@_0BF@HMCHFHCH@cudaErrorStubLibrary?$AA@ 0000000180078fa8     cudart_static:generated_error_tables.obj
 0002:0000cfc0       ??_C@_0BO@INEHLNFM@CUDA?5driver?5is?5a?5stub?5library?$AA@ 0000000180078fc0     cudart_static:generated_error_tables.obj
 0002:0000cfe0       ??_C@_0BM@IOOPDMEM@cudaErrorInsufficientDriver?$AA@ 0000000180078fe0     cudart_static:generated_error_tables.obj
 0002:0000d000       ??_C@_0DN@LOBAOHNB@CUDA?5driver?5version?5is?5insuffici@ 0000000180079000     cudart_static:generated_error_tables.obj
 0002:0000d040       ??_C@_0CB@BJHNNMPP@cudaErrorCallRequiresNewerDriver@ 0000000180079040     cudart_static:generated_error_tables.obj
 0002:0000d068       ??_C@_0DH@HHBNAFFE@API?5call?5is?5not?5supported?5in?5the@ 0000000180079068     cudart_static:generated_error_tables.obj
 0002:0000d0a0       ??_C@_0BI@FALEMCJH@cudaErrorInvalidSurface?$AA@ 00000001800790a0     cudart_static:generated_error_tables.obj
 0002:0000d0b8       ??_C@_0BK@PNEMCPNJ@invalid?5surface?5reference?$AA@ 00000001800790b8     cudart_static:generated_error_tables.obj
 0002:0000d0d8       ??_C@_0BP@BFIOHIOK@cudaErrorDuplicateVariableName?$AA@ 00000001800790d8     cudart_static:generated_error_tables.obj
 0002:0000d0f8       ??_C@_0DD@NIOFMKBF@duplicate?5global?5variable?5looked@ 00000001800790f8     cudart_static:generated_error_tables.obj
 0002:0000d130       ??_C@_0BO@EIGBMOLO@cudaErrorDuplicateTextureName?$AA@ 0000000180079130     cudart_static:generated_error_tables.obj
 0002:0000d150       ??_C@_0CL@LAMJCCLF@duplicate?5texture?5looked?5up?5by?5s@ 0000000180079150     cudart_static:generated_error_tables.obj
 0002:0000d180       ??_C@_0BO@DOEDLBGP@cudaErrorDuplicateSurfaceName?$AA@ 0000000180079180     cudart_static:generated_error_tables.obj
 0002:0000d1a0       ??_C@_0CL@IENMBAKE@duplicate?5surface?5looked?5up?5by?5s@ 00000001800791a0     cudart_static:generated_error_tables.obj
 0002:0000d1d0       ??_C@_0BM@LKGOHDPH@cudaErrorDevicesUnavailable?$AA@ 00000001800791d0     cudart_static:generated_error_tables.obj
 0002:0000d1f0       ??_C@_0DB@MPFNCFGH@all?5CUDA?9capable?5devices?5are?5bus@ 00000001800791f0     cudart_static:generated_error_tables.obj
 0002:0000d228       ??_C@_0CD@JOMAJEHJ@cudaErrorIncompatibleDriverConte@ 0000000180079228     cudart_static:generated_error_tables.obj
 0002:0000d250       ??_C@_0BM@OAFFPLJL@incompatible?5driver?5context?$AA@ 0000000180079250     cudart_static:generated_error_tables.obj
 0002:0000d270       ??_C@_0BO@KNOFJMF@cudaErrorMissingConfiguration?$AA@ 0000000180079270     cudart_static:generated_error_tables.obj
 0002:0000d290       ??_C@_0CL@HJGAFIOE@__global__?5function?5call?5is?5not?5@ 0000000180079290     cudart_static:generated_error_tables.obj
 0002:0000d2c0       ??_C@_0BM@IMMKADNB@cudaErrorPriorLaunchFailure?$AA@ 00000001800792c0     cudart_static:generated_error_tables.obj
 0002:0000d2e0       ??_C@_0CL@FOOAOBNM@unspecified?5launch?5failure?5in?5pr@ 00000001800792e0     cudart_static:generated_error_tables.obj
 0002:0000d310       ??_C@_0CA@EGEJCLPJ@cudaErrorLaunchMaxDepthExceeded?$AA@ 0000000180079310     cudart_static:generated_error_tables.obj
 0002:0000d330       ??_C@_0DF@OBPAIEBG@launch?5would?5exceed?5maximum?5dept@ 0000000180079330     cudart_static:generated_error_tables.obj
 0002:0000d368       ??_C@_0BN@KIKFBJIA@cudaErrorLaunchFileScopedTex?$AA@ 0000000180079368     cudart_static:generated_error_tables.obj
 0002:0000d390       ??_C@_0GE@IHEGPPBN@launch?5failed?5because?5kernel?5use@ 0000000180079390     cudart_static:generated_error_tables.obj
 0002:0000d3f8       ??_C@_0BO@DBBJOEEB@cudaErrorLaunchFileScopedSurf?$AA@ 00000001800793f8     cudart_static:generated_error_tables.obj
 0002:0000d420       ??_C@_0GE@FFNHDAHH@launch?5failed?5because?5kernel?5use@ 0000000180079420     cudart_static:generated_error_tables.obj
 0002:0000d488       ??_C@_0BL@HEMLCCAN@cudaErrorSyncDepthExceeded?$AA@ 0000000180079488     cudart_static:generated_error_tables.obj
 0002:0000d4b0       ??_C@_0FO@OPAJDABO@cudaDeviceSynchronize?5failed?5bec@ 00000001800794b0     cudart_static:generated_error_tables.obj
 0002:0000d510       ??_C@_0CE@DEIIPNNI@cudaErrorLaunchPendingCountExcee@ 0000000180079510     cudart_static:generated_error_tables.obj
 0002:0000d540       ??_C@_0FA@DBDNOKEP@launch?5failed?5because?5launch?5wou@ 0000000180079540     cudart_static:generated_error_tables.obj
 0002:0000d590       ??_C@_0BP@POCHJJEP@cudaErrorInvalidDeviceFunction?$AA@ 0000000180079590     cudart_static:generated_error_tables.obj
 0002:0000d5b0       ??_C@_0BI@IJOAGNOP@invalid?5device?5function?$AA@ 00000001800795b0     cudart_static:generated_error_tables.obj
 0002:0000d5c8       ??_C@_0BC@GABEMCGL@cudaErrorNoDevice?$AA@ 00000001800795c8     cudart_static:generated_error_tables.obj
 0002:0000d5e0       ??_C@_0CD@FLLNPEOF@no?5CUDA?9capable?5device?5is?5detect@ 00000001800795e0     cudart_static:generated_error_tables.obj
 0002:0000d608       ??_C@_0BH@NFPJFLAC@cudaErrorInvalidDevice?$AA@ 0000000180079608     cudart_static:generated_error_tables.obj
 0002:0000d620       ??_C@_0BH@LCBFOICE@invalid?5device?5ordinal?$AA@ 0000000180079620     cudart_static:generated_error_tables.obj
 0002:0000d638       ??_C@_0BL@IIGMJFKI@cudaErrorDeviceNotLicensed?$AA@ 0000000180079638     cudart_static:generated_error_tables.obj
 0002:0000d658       ??_C@_0CH@LEPLDDOB@device?5doesn?8t?5have?5valid?5Grid?5l@ 0000000180079658     cudart_static:generated_error_tables.obj
